

Microchip MPLAB XC8 Assembler V2.31 build 20201012212115 
                                                                                               Tue Aug 10 00:52:37 2021

Microchip MPLAB XC8 C Compiler v2.31 (Free license) build 20201012212115 Og1 
     1                           	processor	16F887
     2                           	pagewidth 120
     3                           	opt	flic
     4                           	psect	strings,global,class=STRING,delta=2,noexec
     5                           	psect	cinit,global,class=CODE,merge=1,delta=2
     6                           	psect	bssBANK0,global,class=BANK0,space=1,delta=1,noexec
     7                           	psect	bssBANK1,global,class=BANK1,space=1,delta=1,noexec
     8                           	psect	cstackCOMMON,global,class=COMMON,space=1,delta=1,noexec
     9                           	psect	cstackBANK0,global,class=BANK0,space=1,delta=1,noexec
    10                           	psect	maintext,global,class=CODE,split=1,delta=2
    11                           	psect	text1,local,class=CODE,merge=1,delta=2
    12                           	psect	text2,local,class=CODE,merge=1,delta=2
    13                           	psect	text3,local,class=CODE,merge=1,delta=2,group=1
    14                           	psect	text4,local,class=CODE,merge=1,delta=2
    15                           	psect	text5,local,class=CODE,merge=1,delta=2,group=1
    16                           	psect	text6,local,class=CODE,merge=1,delta=2,group=1
    17                           	psect	text7,local,class=CODE,merge=1,delta=2,group=1
    18                           	psect	text8,local,class=CODE,merge=1,delta=2,group=1
    19                           	psect	text9,local,class=CODE,merge=1,delta=2,group=1
    20                           	psect	text10,local,class=CODE,merge=1,delta=2,group=1
    21                           	psect	text11,local,class=CODE,merge=1,delta=2,group=1
    22                           	psect	text12,local,class=CODE,merge=1,delta=2,group=1
    23                           	psect	text13,local,class=CODE,merge=1,delta=2,group=1
    24                           	psect	text14,local,class=CODE,merge=1,delta=2
    25                           	psect	text15,local,class=CODE,merge=1,delta=2
    26                           	psect	text16,local,class=CODE,merge=1,delta=2
    27                           	psect	text17,local,class=CODE,merge=1,delta=2
    28                           	psect	text18,local,class=CODE,merge=1,delta=2
    29                           	psect	text19,local,class=CODE,merge=1,delta=2
    30                           	psect	text20,local,class=CODE,merge=1,delta=2
    31                           	psect	text21,local,class=CODE,merge=1,delta=2
    32                           	psect	text22,local,class=CODE,merge=1,delta=2
    33                           	psect	text23,local,class=CODE,merge=1,delta=2
    34                           	psect	text24,local,class=CODE,merge=1,delta=2
    35                           	psect	text25,local,class=CODE,merge=1,delta=2
    36                           	psect	config,global,abs,ovrld,class=CONFIG,space=4,delta=2,noexec
    37                           	dabs	1,0x7E,2
    38  0000                     
    39                           ; Version 2.20
    40                           ; Generated 12/02/2020 GMT
    41                           ; 
    42                           ; Copyright © 2020, Microchip Technology Inc. and its subsidiaries ("Microchip")
    43                           ; All rights reserved.
    44                           ; 
    45                           ; This software is developed by Microchip Technology Inc. and its subsidiaries ("Microch
      +                          ip").
    46                           ; 
    47                           ; Redistribution and use in source and binary forms, with or without modification, are
    48                           ; permitted provided that the following conditions are met:
    49                           ; 
    50                           ;     1. Redistributions of source code must retain the above copyright notice, this lis
      +                          t of
    51                           ;        conditions and the following disclaimer.
    52                           ; 
    53                           ;     2. Redistributions in binary form must reproduce the above copyright notice, this 
      +                          list
    54                           ;        of conditions and the following disclaimer in the documentation and/or other
    55                           ;        materials provided with the distribution.
    56                           ; 
    57                           ;     3. Microchip's name may not be used to endorse or promote products derived from th
      +                          is
    58                           ;        software without specific prior written permission.
    59                           ; 
    60                           ; THIS SOFTWARE IS PROVIDED BY MICROCHIP "AS IS" AND ANY EXPRESS OR IMPLIED WARRANTIES,
    61                           ; INCLUDING, BUT NOT LIMITED TO, THE IMPLIED WARRANTIES OF MERCHANTABILITY AND FITNESS F
      +                          OR
    62                           ; PURPOSE ARE DISCLAIMED.  IN NO EVENT SHALL MICROCHIP BE LIABLE FOR ANY DIRECT, INDIREC
      +                          T,
    63                           ; INCIDENTAL, SPECIAL, EXEMPLARY, OR CONSEQUENTIAL DAMAGES (INCLUDING BUT NOT LIMITED TO
    64                           ; PROCUREMENT OF SUBSTITUTE GOODS OR SERVICES; LOSS OF USE, DATA OR PROFITS; OR BUSINESS
    65                           ; INTERRUPTION) HOWSOEVER CAUSED AND ON ANY THEORY OF LIABILITY, WHETHER IN CONTRACT, ST
      +                          RICT
    66                           ; LIABILITY, OR TORT (INCLUDING NEGLIGENCE OR OTHERWISE) ARISING IN ANY WAY OUT OF THE U
      +                          SE OF
    67                           ; THIS SOFTWARE, EVEN IF ADVISED OF THE POSSIBILITY OF SUCH DAMAGE.
    68                           ; 
    69                           ; 
    70                           ; Code-generator required, PIC16F887 Definitions
    71                           ; 
    72                           ; SFR Addresses
    73  0000                     	;# 
    74  0001                     	;# 
    75  0002                     	;# 
    76  0003                     	;# 
    77  0004                     	;# 
    78  0005                     	;# 
    79  0006                     	;# 
    80  0007                     	;# 
    81  0008                     	;# 
    82  0009                     	;# 
    83  000A                     	;# 
    84  000B                     	;# 
    85  000C                     	;# 
    86  000D                     	;# 
    87  000E                     	;# 
    88  000E                     	;# 
    89  000F                     	;# 
    90  0010                     	;# 
    91  0011                     	;# 
    92  0012                     	;# 
    93  0013                     	;# 
    94  0014                     	;# 
    95  0015                     	;# 
    96  0015                     	;# 
    97  0016                     	;# 
    98  0017                     	;# 
    99  0018                     	;# 
   100  0019                     	;# 
   101  001A                     	;# 
   102  001B                     	;# 
   103  001B                     	;# 
   104  001C                     	;# 
   105  001D                     	;# 
   106  001E                     	;# 
   107  001F                     	;# 
   108  0081                     	;# 
   109  0085                     	;# 
   110  0086                     	;# 
   111  0087                     	;# 
   112  0088                     	;# 
   113  0089                     	;# 
   114  008C                     	;# 
   115  008D                     	;# 
   116  008E                     	;# 
   117  008F                     	;# 
   118  0090                     	;# 
   119  0091                     	;# 
   120  0092                     	;# 
   121  0093                     	;# 
   122  0093                     	;# 
   123  0093                     	;# 
   124  0094                     	;# 
   125  0095                     	;# 
   126  0096                     	;# 
   127  0097                     	;# 
   128  0098                     	;# 
   129  0099                     	;# 
   130  009A                     	;# 
   131  009B                     	;# 
   132  009C                     	;# 
   133  009D                     	;# 
   134  009E                     	;# 
   135  009F                     	;# 
   136  0105                     	;# 
   137  0107                     	;# 
   138  0108                     	;# 
   139  0109                     	;# 
   140  010C                     	;# 
   141  010C                     	;# 
   142  010D                     	;# 
   143  010E                     	;# 
   144  010F                     	;# 
   145  0185                     	;# 
   146  0187                     	;# 
   147  0188                     	;# 
   148  0189                     	;# 
   149  018C                     	;# 
   150  018D                     	;# 
   151  0000                     	;# 
   152  0001                     	;# 
   153  0002                     	;# 
   154  0003                     	;# 
   155  0004                     	;# 
   156  0005                     	;# 
   157  0006                     	;# 
   158  0007                     	;# 
   159  0008                     	;# 
   160  0009                     	;# 
   161  000A                     	;# 
   162  000B                     	;# 
   163  000C                     	;# 
   164  000D                     	;# 
   165  000E                     	;# 
   166  000E                     	;# 
   167  000F                     	;# 
   168  0010                     	;# 
   169  0011                     	;# 
   170  0012                     	;# 
   171  0013                     	;# 
   172  0014                     	;# 
   173  0015                     	;# 
   174  0015                     	;# 
   175  0016                     	;# 
   176  0017                     	;# 
   177  0018                     	;# 
   178  0019                     	;# 
   179  001A                     	;# 
   180  001B                     	;# 
   181  001B                     	;# 
   182  001C                     	;# 
   183  001D                     	;# 
   184  001E                     	;# 
   185  001F                     	;# 
   186  0081                     	;# 
   187  0085                     	;# 
   188  0086                     	;# 
   189  0087                     	;# 
   190  0088                     	;# 
   191  0089                     	;# 
   192  008C                     	;# 
   193  008D                     	;# 
   194  008E                     	;# 
   195  008F                     	;# 
   196  0090                     	;# 
   197  0091                     	;# 
   198  0092                     	;# 
   199  0093                     	;# 
   200  0093                     	;# 
   201  0093                     	;# 
   202  0094                     	;# 
   203  0095                     	;# 
   204  0096                     	;# 
   205  0097                     	;# 
   206  0098                     	;# 
   207  0099                     	;# 
   208  009A                     	;# 
   209  009B                     	;# 
   210  009C                     	;# 
   211  009D                     	;# 
   212  009E                     	;# 
   213  009F                     	;# 
   214  0105                     	;# 
   215  0107                     	;# 
   216  0108                     	;# 
   217  0109                     	;# 
   218  010C                     	;# 
   219  010C                     	;# 
   220  010D                     	;# 
   221  010E                     	;# 
   222  010F                     	;# 
   223  0185                     	;# 
   224  0187                     	;# 
   225  0188                     	;# 
   226  0189                     	;# 
   227  018C                     	;# 
   228  018D                     	;# 
   229  0000                     	;# 
   230  0001                     	;# 
   231  0002                     	;# 
   232  0003                     	;# 
   233  0004                     	;# 
   234  0005                     	;# 
   235  0006                     	;# 
   236  0007                     	;# 
   237  0008                     	;# 
   238  0009                     	;# 
   239  000A                     	;# 
   240  000B                     	;# 
   241  000C                     	;# 
   242  000D                     	;# 
   243  000E                     	;# 
   244  000E                     	;# 
   245  000F                     	;# 
   246  0010                     	;# 
   247  0011                     	;# 
   248  0012                     	;# 
   249  0013                     	;# 
   250  0014                     	;# 
   251  0015                     	;# 
   252  0015                     	;# 
   253  0016                     	;# 
   254  0017                     	;# 
   255  0018                     	;# 
   256  0019                     	;# 
   257  001A                     	;# 
   258  001B                     	;# 
   259  001B                     	;# 
   260  001C                     	;# 
   261  001D                     	;# 
   262  001E                     	;# 
   263  001F                     	;# 
   264  0081                     	;# 
   265  0085                     	;# 
   266  0086                     	;# 
   267  0087                     	;# 
   268  0088                     	;# 
   269  0089                     	;# 
   270  008C                     	;# 
   271  008D                     	;# 
   272  008E                     	;# 
   273  008F                     	;# 
   274  0090                     	;# 
   275  0091                     	;# 
   276  0092                     	;# 
   277  0093                     	;# 
   278  0093                     	;# 
   279  0093                     	;# 
   280  0094                     	;# 
   281  0095                     	;# 
   282  0096                     	;# 
   283  0097                     	;# 
   284  0098                     	;# 
   285  0099                     	;# 
   286  009A                     	;# 
   287  009B                     	;# 
   288  009C                     	;# 
   289  009D                     	;# 
   290  009E                     	;# 
   291  009F                     	;# 
   292  0105                     	;# 
   293  0107                     	;# 
   294  0108                     	;# 
   295  0109                     	;# 
   296  010C                     	;# 
   297  010C                     	;# 
   298  010D                     	;# 
   299  010E                     	;# 
   300  010F                     	;# 
   301  0185                     	;# 
   302  0187                     	;# 
   303  0188                     	;# 
   304  0189                     	;# 
   305  018C                     	;# 
   306  018D                     	;# 
   307  0000                     	;# 
   308  0001                     	;# 
   309  0002                     	;# 
   310  0003                     	;# 
   311  0004                     	;# 
   312  0005                     	;# 
   313  0006                     	;# 
   314  0007                     	;# 
   315  0008                     	;# 
   316  0009                     	;# 
   317  000A                     	;# 
   318  000B                     	;# 
   319  000C                     	;# 
   320  000D                     	;# 
   321  000E                     	;# 
   322  000E                     	;# 
   323  000F                     	;# 
   324  0010                     	;# 
   325  0011                     	;# 
   326  0012                     	;# 
   327  0013                     	;# 
   328  0014                     	;# 
   329  0015                     	;# 
   330  0015                     	;# 
   331  0016                     	;# 
   332  0017                     	;# 
   333  0018                     	;# 
   334  0019                     	;# 
   335  001A                     	;# 
   336  001B                     	;# 
   337  001B                     	;# 
   338  001C                     	;# 
   339  001D                     	;# 
   340  001E                     	;# 
   341  001F                     	;# 
   342  0081                     	;# 
   343  0085                     	;# 
   344  0086                     	;# 
   345  0087                     	;# 
   346  0088                     	;# 
   347  0089                     	;# 
   348  008C                     	;# 
   349  008D                     	;# 
   350  008E                     	;# 
   351  008F                     	;# 
   352  0090                     	;# 
   353  0091                     	;# 
   354  0092                     	;# 
   355  0093                     	;# 
   356  0093                     	;# 
   357  0093                     	;# 
   358  0094                     	;# 
   359  0095                     	;# 
   360  0096                     	;# 
   361  0097                     	;# 
   362  0098                     	;# 
   363  0099                     	;# 
   364  009A                     	;# 
   365  009B                     	;# 
   366  009C                     	;# 
   367  009D                     	;# 
   368  009E                     	;# 
   369  009F                     	;# 
   370  0105                     	;# 
   371  0107                     	;# 
   372  0108                     	;# 
   373  0109                     	;# 
   374  010C                     	;# 
   375  010C                     	;# 
   376  010D                     	;# 
   377  010E                     	;# 
   378  010F                     	;# 
   379  0185                     	;# 
   380  0187                     	;# 
   381  0188                     	;# 
   382  0189                     	;# 
   383  018C                     	;# 
   384  018D                     	;# 
   385  0008                     _PORTDbits	set	8
   386  0013                     _SSPBUF	set	19
   387  0014                     _SSPCON	set	20
   388  0009                     _PORTE	set	9
   389  0008                     _PORTD	set	8
   390  0007                     _PORTC	set	7
   391  0006                     _PORTB	set	6
   392  0005                     _PORTA	set	5
   393  0043                     _RD3	set	67
   394  0047                     _RD7	set	71
   395  0046                     _RD6	set	70
   396  0045                     _RD5	set	69
   397  0044                     _RD4	set	68
   398  0063                     _SSPIF	set	99
   399  005E                     _PEIE	set	94
   400  005F                     _GIE	set	95
   401  0091                     _SSPCON2bits	set	145
   402  0087                     _TRISCbits	set	135
   403  0094                     _SSPSTAT	set	148
   404  0093                     _SSPADD	set	147
   405  0091                     _SSPCON2	set	145
   406  008F                     _OSCCONbits	set	143
   407  0089                     _TRISE	set	137
   408  0088                     _TRISD	set	136
   409  0463                     _SSPIE	set	1123
   410  043C                     _TRISC4	set	1084
   411  043B                     _TRISC3	set	1083
   412  0189                     _ANSELH	set	393
   413                           
   414                           	psect	strings
   415  1000                     __pstrings:
   416  1000                     stringtab:
   417  1000                     __stringtab:
   418  1000                     stringcode:	
   419                           ;	String table - string pointers are 1 byte each
   420                           
   421  1000                     stringdir:
   422  1000  3010               	movlw	high stringdir
   423  1001  008A               	movwf	10
   424  1002  0804               	movf	4,w
   425  1003  0A84               	incf	4,f
   426  1004  0782               	addwf	2,f
   427  1005                     __stringbase:
   428  1005  3400               	retlw	0
   429  1006                     __end_of__stringtab:
   430  1006                     STR_1:
   431  1006  3453               	retlw	83	;'S'
   432  1007  3431               	retlw	49	;'1'
   433  1008  343A               	retlw	58	;':'
   434  1009  3400               	retlw	0
   435  100A                     STR_2:
   436  100A  3453               	retlw	83	;'S'
   437  100B  3432               	retlw	50	;'2'
   438  100C  343A               	retlw	58	;':'
   439  100D  3400               	retlw	0
   440  100E                     STR_3:
   441  100E  3453               	retlw	83	;'S'
   442  100F  3433               	retlw	51	;'3'
   443  1010  343A               	retlw	58	;':'
   444  1011  3400               	retlw	0
   445                           
   446                           	psect	cinit
   447  07EA                     start_initialization:	
   448                           ; #config settings
   449                           
   450  07EA                     __initialization:
   451                           
   452                           ; Clear objects allocated to BANK0
   453  07EA  1283               	bcf	3,5	;RP0=0, select bank0
   454  07EB  1303               	bcf	3,6	;RP1=0, select bank0
   455  07EC  01EB               	clrf	__pbssBANK0& (0+127)
   456  07ED  01EC               	clrf	(__pbssBANK0+1)& (0+127)
   457  07EE  01ED               	clrf	(__pbssBANK0+2)& (0+127)
   458  07EF  01EE               	clrf	(__pbssBANK0+3)& (0+127)
   459  07F0  01EF               	clrf	(__pbssBANK0+4)& (0+127)
   460                           
   461                           ; Clear objects allocated to BANK1
   462  07F1  1683               	bsf	3,5	;RP0=1, select bank1
   463  07F2  1303               	bcf	3,6	;RP1=0, select bank1
   464  07F3  01A0               	clrf	__pbssBANK1& (0+127)
   465  07F4  01A1               	clrf	(__pbssBANK1+1)& (0+127)
   466  07F5  01A2               	clrf	(__pbssBANK1+2)& (0+127)
   467  07F6  01A3               	clrf	(__pbssBANK1+3)& (0+127)
   468  07F7  01A4               	clrf	(__pbssBANK1+4)& (0+127)
   469  07F8  01A5               	clrf	(__pbssBANK1+5)& (0+127)
   470  07F9  01A6               	clrf	(__pbssBANK1+6)& (0+127)
   471  07FA  01A7               	clrf	(__pbssBANK1+7)& (0+127)
   472  07FB  01A8               	clrf	(__pbssBANK1+8)& (0+127)
   473  07FC                     end_of_initialization:	
   474                           ;End of C runtime variable initialization code
   475                           
   476  07FC                     __end_of__initialization:
   477  07FC  0183               	clrf	3
   478  07FD  120A  118A  2991   	ljmp	_main	;jump to C main() function
   479                           
   480                           	psect	bssBANK0
   481  006B                     __pbssBANK0:
   482  006B                     _unidades:
   483  006B                     	ds	1
   484  006C                     _decenas:
   485  006C                     	ds	1
   486  006D                     _residuo:
   487  006D                     	ds	1
   488  006E                     _centenas:
   489  006E                     	ds	1
   490  006F                     _sensor1:
   491  006F                     	ds	1
   492                           
   493                           	psect	bssBANK1
   494  00A0                     __pbssBANK1:
   495  00A0                     _temp1:
   496  00A0                     	ds	4
   497  00A4                     _dividendo:
   498  00A4                     	ds	1
   499  00A5                     _sensor2:
   500  00A5                     	ds	1
   501  00A6                     _voltaje:
   502  00A6                     	ds	1
   503  00A7                     _temp:
   504  00A7                     	ds	2
   505                           
   506                           	psect	cstackCOMMON
   507  0070                     __pcstackCOMMON:
   508  0070                     ?___flge:
   509  0070                     ?_setup:	
   510                           ; 1 bit 
   511                           
   512  0070                     ?_Lcd_Init:	
   513                           ; 1 bytes @ 0x0
   514                           
   515  0070                     ?_Lcd_Clear:	
   516                           ; 1 bytes @ 0x0
   517                           
   518  0070                     ?_Lcd_Write_String:	
   519                           ; 1 bytes @ 0x0
   520                           
   521  0070                     ?_I2C_Master_Start:	
   522                           ; 1 bytes @ 0x0
   523                           
   524  0070                     ??_I2C_Master_Start:	
   525                           ; 1 bytes @ 0x0
   526                           
   527  0070                     ?_I2C_Master_Write:	
   528                           ; 1 bytes @ 0x0
   529                           
   530  0070                     ?_I2C_Master_Stop:	
   531                           ; 1 bytes @ 0x0
   532                           
   533  0070                     ??_I2C_Master_Stop:	
   534                           ; 1 bytes @ 0x0
   535                           
   536  0070                     ?_division:	
   537                           ; 1 bytes @ 0x0
   538                           
   539  0070                     ?_Lcd_Write_Char:	
   540                           ; 1 bytes @ 0x0
   541                           
   542  0070                     ?_main:	
   543                           ; 1 bytes @ 0x0
   544                           
   545  0070                     ?_I2C_Master_Wait:	
   546                           ; 1 bytes @ 0x0
   547                           
   548  0070                     ??_I2C_Master_Wait:	
   549                           ; 1 bytes @ 0x0
   550                           
   551  0070                     ?_Lcd_Port:	
   552                           ; 1 bytes @ 0x0
   553                           
   554  0070                     ??_Lcd_Port:	
   555                           ; 1 bytes @ 0x0
   556                           
   557  0070                     ?_Lcd_Cmd:	
   558                           ; 1 bytes @ 0x0
   559                           
   560  0070                     ?_I2C_Master_Read:	
   561                           ; 1 bytes @ 0x0
   562                           
   563  0070                     ?__Umul8_16:	
   564                           ; 2 bytes @ 0x0
   565                           
   566  0070                     ?___awdiv:	
   567                           ; 2 bytes @ 0x0
   568                           
   569  0070                     ?___awmod:	
   570                           ; 2 bytes @ 0x0
   571                           
   572  0070                     ?___lldiv:	
   573                           ; 2 bytes @ 0x0
   574                           
   575  0070                     ?___fltol:	
   576                           ; 4 bytes @ 0x0
   577                           
   578  0070                     ?___xxtofl:	
   579                           ; 4 bytes @ 0x0
   580                           
   581  0070                     Lcd_Port@a:	
   582                           ; 4 bytes @ 0x0
   583                           
   584  0070                     __Umul8_16@multiplicand:	
   585                           ; 1 bytes @ 0x0
   586                           
   587  0070                     I2C_Master_Write@d:	
   588                           ; 1 bytes @ 0x0
   589                           
   590  0070                     I2C_Master_Read@a:	
   591                           ; 2 bytes @ 0x0
   592                           
   593  0070                     ___awdiv@divisor:	
   594                           ; 2 bytes @ 0x0
   595                           
   596  0070                     ___awmod@divisor:	
   597                           ; 2 bytes @ 0x0
   598                           
   599  0070                     ___lldiv@divisor:	
   600                           ; 2 bytes @ 0x0
   601                           
   602  0070                     ___flge@ff1:	
   603                           ; 4 bytes @ 0x0
   604                           
   605  0070                     ___fltol@f1:	
   606                           ; 4 bytes @ 0x0
   607                           
   608  0070                     ___xxtofl@val:	
   609                           ; 4 bytes @ 0x0
   610                           
   611                           
   612                           ; 4 bytes @ 0x0
   613  0070                     	ds	1
   614  0071                     ??_Lcd_Write_Char:
   615  0071                     ??_Lcd_Cmd:	
   616                           ; 1 bytes @ 0x1
   617                           
   618                           
   619                           ; 1 bytes @ 0x1
   620  0071                     	ds	1
   621  0072                     ??_I2C_Master_Write:
   622  0072                     ??_I2C_Master_Read:	
   623                           ; 1 bytes @ 0x2
   624                           
   625  0072                     ??__Umul8_16:	
   626                           ; 1 bytes @ 0x2
   627                           
   628  0072                     Lcd_Write_Char@temp:	
   629                           ; 1 bytes @ 0x2
   630                           
   631  0072                     ___awdiv@dividend:	
   632                           ; 1 bytes @ 0x2
   633                           
   634  0072                     ___awmod@dividend:	
   635                           ; 2 bytes @ 0x2
   636                           
   637                           
   638                           ; 2 bytes @ 0x2
   639  0072                     	ds	1
   640  0073                     Lcd_Cmd@a:
   641  0073                     Lcd_Write_Char@y:	
   642                           ; 1 bytes @ 0x3
   643                           
   644                           
   645                           ; 1 bytes @ 0x3
   646  0073                     	ds	1
   647  0074                     ??_Lcd_Init:
   648  0074                     ??_Lcd_Clear:	
   649                           ; 1 bytes @ 0x4
   650                           
   651  0074                     ?_Lcd_Set_Cursor:	
   652                           ; 1 bytes @ 0x4
   653                           
   654  0074                     ??___awdiv:	
   655                           ; 1 bytes @ 0x4
   656                           
   657  0074                     ??___awmod:	
   658                           ; 1 bytes @ 0x4
   659                           
   660  0074                     ??___fltol:	
   661                           ; 1 bytes @ 0x4
   662                           
   663  0074                     ??___xxtofl:	
   664                           ; 1 bytes @ 0x4
   665                           
   666  0074                     Lcd_Set_Cursor@b:	
   667                           ; 1 bytes @ 0x4
   668                           
   669  0074                     Lcd_Write_Char@a:	
   670                           ; 1 bytes @ 0x4
   671                           
   672  0074                     I2C_Master_Read@temp:	
   673                           ; 1 bytes @ 0x4
   674                           
   675  0074                     __Umul8_16@product:	
   676                           ; 2 bytes @ 0x4
   677                           
   678  0074                     ___lldiv@dividend:	
   679                           ; 2 bytes @ 0x4
   680                           
   681  0074                     ___flge@ff2:	
   682                           ; 4 bytes @ 0x4
   683                           
   684                           
   685                           ; 4 bytes @ 0x4
   686  0074                     	ds	1
   687  0075                     ??_Lcd_Set_Cursor:
   688  0075                     ??_Lcd_Write_String:	
   689                           ; 1 bytes @ 0x5
   690                           
   691  0075                     ___awdiv@counter:	
   692                           ; 1 bytes @ 0x5
   693                           
   694  0075                     ___awmod@counter:	
   695                           ; 1 bytes @ 0x5
   696                           
   697  0075                     Lcd_Write_String@i:	
   698                           ; 1 bytes @ 0x5
   699                           
   700                           
   701                           ; 2 bytes @ 0x5
   702  0075                     	ds	1
   703  0076                     ___awdiv@sign:
   704  0076                     ___awmod@sign:	
   705                           ; 1 bytes @ 0x6
   706                           
   707  0076                     __Umul8_16@word_mpld:	
   708                           ; 1 bytes @ 0x6
   709                           
   710                           
   711                           ; 2 bytes @ 0x6
   712  0076                     	ds	1
   713  0077                     Lcd_Set_Cursor@a:
   714  0077                     Lcd_Write_String@a:	
   715                           ; 1 bytes @ 0x7
   716                           
   717  0077                     ___awdiv@quotient:	
   718                           ; 1 bytes @ 0x7
   719                           
   720                           
   721                           ; 2 bytes @ 0x7
   722  0077                     	ds	1
   723  0078                     ??___lldiv:
   724  0078                     ??___flge:	
   725                           ; 1 bytes @ 0x8
   726                           
   727  0078                     Lcd_Set_Cursor@z:	
   728                           ; 1 bytes @ 0x8
   729                           
   730  0078                     __Umul8_16@multiplier:	
   731                           ; 1 bytes @ 0x8
   732                           
   733  0078                     ___xxtofl@sign:	
   734                           ; 1 bytes @ 0x8
   735                           
   736                           
   737                           ; 1 bytes @ 0x8
   738  0078                     	ds	1
   739  0079                     ??_division:
   740  0079                     Lcd_Set_Cursor@y:	
   741                           ; 1 bytes @ 0x9
   742                           
   743  0079                     ___fltol@sign1:	
   744                           ; 1 bytes @ 0x9
   745                           
   746  0079                     ___xxtofl@exp:	
   747                           ; 1 bytes @ 0x9
   748                           
   749  0079                     ___lldiv@quotient:	
   750                           ; 1 bytes @ 0x9
   751                           
   752                           
   753                           ; 4 bytes @ 0x9
   754  0079                     	ds	1
   755  007A                     Lcd_Set_Cursor@temp:
   756  007A                     ___fltol@exp1:	
   757                           ; 1 bytes @ 0xA
   758                           
   759  007A                     ___xxtofl@arg:	
   760                           ; 1 bytes @ 0xA
   761                           
   762                           
   763                           ; 4 bytes @ 0xA
   764  007A                     	ds	2
   765  007C                     division@dividendo:
   766                           
   767                           ; 1 bytes @ 0xC
   768  007C                     	ds	1
   769  007D                     ___lldiv@counter:
   770                           
   771                           ; 1 bytes @ 0xD
   772  007D                     	ds	1
   773  007E                     ??_setup:
   774                           
   775                           	psect	cstackBANK0
   776  0020                     __pcstackBANK0:	
   777                           ; 1 bytes @ 0xE
   778                           
   779  0020                     ?_I2C_Master_Init:
   780  0020                     ?___flmul:	
   781                           ; 1 bytes @ 0x0
   782                           
   783  0020                     I2C_Master_Init@c:	
   784                           ; 4 bytes @ 0x0
   785                           
   786  0020                     ___flmul@b:	
   787                           ; 4 bytes @ 0x0
   788                           
   789                           
   790                           ; 4 bytes @ 0x0
   791  0020                     	ds	4
   792  0024                     ??_I2C_Master_Init:
   793  0024                     ___flmul@a:	
   794                           ; 1 bytes @ 0x4
   795                           
   796                           
   797                           ; 4 bytes @ 0x4
   798  0024                     	ds	4
   799  0028                     ??___flmul:
   800                           
   801                           ; 1 bytes @ 0x8
   802  0028                     	ds	5
   803  002D                     ___flmul@sign:
   804                           
   805                           ; 1 bytes @ 0xD
   806  002D                     	ds	1
   807  002E                     ___flmul@grs:
   808                           
   809                           ; 4 bytes @ 0xE
   810  002E                     	ds	4
   811  0032                     ___flmul@aexp:
   812                           
   813                           ; 1 bytes @ 0x12
   814  0032                     	ds	1
   815  0033                     ___flmul@bexp:
   816                           
   817                           ; 1 bytes @ 0x13
   818  0033                     	ds	1
   819  0034                     ___flmul@prod:
   820                           
   821                           ; 4 bytes @ 0x14
   822  0034                     	ds	4
   823  0038                     ___flmul@temp:
   824                           
   825                           ; 2 bytes @ 0x18
   826  0038                     	ds	2
   827  003A                     ?___fldiv:
   828  003A                     ___fldiv@a:	
   829                           ; 4 bytes @ 0x1A
   830                           
   831                           
   832                           ; 4 bytes @ 0x1A
   833  003A                     	ds	4
   834  003E                     ___fldiv@b:
   835                           
   836                           ; 4 bytes @ 0x1E
   837  003E                     	ds	4
   838  0042                     ??___fldiv:
   839                           
   840                           ; 1 bytes @ 0x22
   841  0042                     	ds	5
   842  0047                     ___fldiv@rem:
   843                           
   844                           ; 4 bytes @ 0x27
   845  0047                     	ds	4
   846  004B                     ___fldiv@sign:
   847                           
   848                           ; 1 bytes @ 0x2B
   849  004B                     	ds	1
   850  004C                     ___fldiv@new_exp:
   851                           
   852                           ; 2 bytes @ 0x2C
   853  004C                     	ds	2
   854  004E                     ___fldiv@grs:
   855                           
   856                           ; 4 bytes @ 0x2E
   857  004E                     	ds	4
   858  0052                     ___fldiv@bexp:
   859                           
   860                           ; 1 bytes @ 0x32
   861  0052                     	ds	1
   862  0053                     ___fldiv@aexp:
   863                           
   864                           ; 1 bytes @ 0x33
   865  0053                     	ds	1
   866  0054                     ?___fladd:
   867  0054                     ___fladd@b:	
   868                           ; 4 bytes @ 0x34
   869                           
   870                           
   871                           ; 4 bytes @ 0x34
   872  0054                     	ds	4
   873  0058                     ___fladd@a:
   874                           
   875                           ; 4 bytes @ 0x38
   876  0058                     	ds	4
   877  005C                     ??___fladd:
   878                           
   879                           ; 1 bytes @ 0x3C
   880  005C                     	ds	8
   881  0064                     ___fladd@signs:
   882                           
   883                           ; 1 bytes @ 0x44
   884  0064                     	ds	1
   885  0065                     ___fladd@aexp:
   886                           
   887                           ; 1 bytes @ 0x45
   888  0065                     	ds	1
   889  0066                     ___fladd@bexp:
   890                           
   891                           ; 1 bytes @ 0x46
   892  0066                     	ds	1
   893  0067                     ___fladd@grs:
   894                           
   895                           ; 1 bytes @ 0x47
   896  0067                     	ds	1
   897  0068                     ??_main:
   898                           
   899                           ; 1 bytes @ 0x48
   900  0068                     	ds	3
   901                           
   902                           	psect	maintext
   903  0191                     __pmaintext:	
   904 ;;
   905 ;;Main: autosize = 0, tempsize = 3, incstack = 0, save=0
   906 ;;
   907 ;; *************** function _main *****************
   908 ;; Defined at:
   909 ;;		line 74 in file "main01.c"
   910 ;; Parameters:    Size  Location     Type
   911 ;;		None
   912 ;; Auto vars:     Size  Location     Type
   913 ;;		None
   914 ;; Return value:  Size  Location     Type
   915 ;;                  1    wreg      void 
   916 ;; Registers used:
   917 ;;		wreg, fsr0l, fsr0h, status,2, status,0, btemp+1, pclath, cstack
   918 ;; Tracked objects:
   919 ;;		On entry : B00/0
   920 ;;		On exit  : 0/0
   921 ;;		Unchanged: 0/0
   922 ;; Data sizes:     COMMON   BANK0   BANK1   BANK3   BANK2
   923 ;;      Params:         0       0       0       0       0
   924 ;;      Locals:         0       0       0       0       0
   925 ;;      Temps:          0       3       0       0       0
   926 ;;      Totals:         0       3       0       0       0
   927 ;;Total ram usage:        3 bytes
   928 ;; Hardware stack levels required when called:    3
   929 ;; This function calls:
   930 ;;		_I2C_Master_Read
   931 ;;		_I2C_Master_Start
   932 ;;		_I2C_Master_Stop
   933 ;;		_I2C_Master_Write
   934 ;;		_Lcd_Clear
   935 ;;		_Lcd_Init
   936 ;;		_Lcd_Set_Cursor
   937 ;;		_Lcd_Write_Char
   938 ;;		_Lcd_Write_String
   939 ;;		___fladd
   940 ;;		___fldiv
   941 ;;		___flge
   942 ;;		___flmul
   943 ;;		___fltol
   944 ;;		___xxtofl
   945 ;;		_division
   946 ;;		_setup
   947 ;; This function is called by:
   948 ;;		Startup code after reset
   949 ;; This function uses a non-reentrant model
   950 ;;
   951                           
   952                           
   953                           ;psect for function _main
   954  0191                     _main:
   955  0191                     l2609:	
   956                           ;incstack = 0
   957                           ; Regs used in _main: [wreg-fsr0h+status,2+status,0+btemp+1+pclath+cstack]
   958                           
   959                           
   960                           ;main01.c: 75: 
   961  0191  160A  118A  27E0  120A  118A  	fcall	_setup
   962  0196                     l2611:
   963                           
   964                           ;main01.c: 76:         if(temp1 < 0){
   965  0196  1683               	bsf	3,5	;RP0=1, select bank1
   966  0197  1303               	bcf	3,6	;RP1=0, select bank1
   967  0198  0188               	clrf	8	;volatile
   968  0199                     l2613:
   969                           
   970                           ;main01.c: 77:             temp1 *= -1;
   971  0199  120A  158A  2191  120A  118A  	fcall	_Lcd_Init
   972  019E                     l2615:
   973                           
   974                           ;main01.c: 78:             Lcd_Set_Cursor(2, 12);
   975  019E  160A  118A  27B9  120A  118A  	fcall	_Lcd_Clear
   976  01A3                     l2617:
   977                           
   978                           ;main01.c: 79:             Lcd_Write_Char(45);
   979  01A3  01F4               	clrf	Lcd_Set_Cursor@b
   980  01A4  0AF4               	incf	Lcd_Set_Cursor@b,f
   981  01A5  3001               	movlw	1
   982  01A6  120A  158A  20E6  120A  118A  	fcall	_Lcd_Set_Cursor
   983  01AB                     l2619:
   984                           
   985                           ;main01.c: 80:         }
   986  01AB  3001               	movlw	(low ((STR_1-__stringbase)| (0+32768)))& (0+255)
   987  01AC  120A  158A  202B  120A  118A  	fcall	_Lcd_Write_String
   988  01B1                     l2621:
   989                           
   990                           ;main01.c: 81:         else if(temp1 >= 0){
   991  01B1  3008               	movlw	8
   992  01B2  1283               	bcf	3,5	;RP0=0, select bank0
   993  01B3  1303               	bcf	3,6	;RP1=0, select bank0
   994  01B4  00E8               	movwf	??_main
   995  01B5  0868               	movf	??_main,w
   996  01B6  00F4               	movwf	Lcd_Set_Cursor@b
   997  01B7  3001               	movlw	1
   998  01B8  120A  158A  20E6  120A  118A  	fcall	_Lcd_Set_Cursor
   999  01BD                     l2623:
  1000                           
  1001                           ;main01.c: 82:             Lcd_Set_Cursor(2, 12);
  1002  01BD  3005               	movlw	(low ((STR_2-__stringbase)| (0+32768)))& (0+255)
  1003  01BE  120A  158A  202B  120A  118A  	fcall	_Lcd_Write_String
  1004  01C3                     l2625:
  1005                           
  1006                           ;main01.c: 83:             Lcd_Write_Char(' ');
  1007  01C3  300E               	movlw	14
  1008  01C4  1283               	bcf	3,5	;RP0=0, select bank0
  1009  01C5  1303               	bcf	3,6	;RP1=0, select bank0
  1010  01C6  00E8               	movwf	??_main
  1011  01C7  0868               	movf	??_main,w
  1012  01C8  00F4               	movwf	Lcd_Set_Cursor@b
  1013  01C9  3001               	movlw	1
  1014  01CA  120A  158A  20E6  120A  118A  	fcall	_Lcd_Set_Cursor
  1015  01CF                     l2627:
  1016                           
  1017                           ;main01.c: 84:         }
  1018  01CF  3009               	movlw	(low ((STR_3-__stringbase)| (0+32768)))& (0+255)
  1019  01D0  120A  158A  202B  120A  118A  	fcall	_Lcd_Write_String
  1020  01D5                     l2629:
  1021                           
  1022                           ;main01.c: 86:         division(temp1);;main01.c: 89:         Lcd_Write_Char(decenas);
  1023  01D5  160A  118A  2799  120A  118A  	fcall	_I2C_Master_Start
  1024  01DA                     l2631:
  1025                           
  1026                           ;main01.c: 90:         Lcd_Set_Cursor(2,15);
  1027  01DA  3051               	movlw	81
  1028  01DB  00F0               	movwf	I2C_Master_Write@d
  1029  01DC  3000               	movlw	0
  1030  01DD  00F1               	movwf	I2C_Master_Write@d+1
  1031  01DE  160A  118A  27A2  120A  118A  	fcall	_I2C_Master_Write
  1032  01E3                     l2633:
  1033                           
  1034                           ;main01.c: 91:         Lcd_Write_Char(unidades);
  1035  01E3  3000               	movlw	0
  1036  01E4  00F0               	movwf	I2C_Master_Read@a
  1037  01E5  00F1               	movwf	I2C_Master_Read@a+1
  1038  01E6  120A  118A  2007  120A  118A  	fcall	_I2C_Master_Read
  1039  01EB  0870               	movf	?_I2C_Master_Read,w
  1040  01EC  1283               	bcf	3,5	;RP0=0, select bank0
  1041  01ED  1303               	bcf	3,6	;RP1=0, select bank0
  1042  01EE  00E8               	movwf	??_main
  1043  01EF  0868               	movf	??_main,w
  1044  01F0  00EF               	movwf	_sensor1
  1045  01F1                     l2635:
  1046                           
  1047                           ;main01.c: 92:         Lcd_Set_Cursor(2,16);
  1048  01F1  120A  158A  2000  120A  118A  	fcall	_I2C_Master_Stop
  1049  01F6                     l2637:
  1050                           
  1051                           ;main01.c: 93:         Lcd_Write_Char(39);
  1052  01F6  3002               	movlw	2
  1053  01F7  1283               	bcf	3,5	;RP0=0, select bank0
  1054  01F8  1303               	bcf	3,6	;RP1=0, select bank0
  1055  01F9  00EA               	movwf	??_main+2
  1056  01FA  3004               	movlw	4
  1057  01FB  00E9               	movwf	??_main+1
  1058  01FC  30B9               	movlw	185
  1059  01FD  00E8               	movwf	??_main
  1060  01FE                     u3777:
  1061  01FE  0BE8               	decfsz	??_main,f
  1062  01FF  29FE               	goto	u3777
  1063  0200  0BE9               	decfsz	??_main+1,f
  1064  0201  29FE               	goto	u3777
  1065  0202  0BEA               	decfsz	??_main+2,f
  1066  0203  29FE               	goto	u3777
  1067  0204  2A05               	nop2
  1068  0205                     l2639:
  1069                           
  1070                           ;main01.c: 96:     return;
  1071  0205  160A  118A  2799  120A  118A  	fcall	_I2C_Master_Start
  1072  020A                     l2641:
  1073                           
  1074                           ;main01.c: 97: }
  1075  020A  3080               	movlw	128
  1076  020B  00F0               	movwf	I2C_Master_Write@d
  1077  020C  3000               	movlw	0
  1078  020D  00F1               	movwf	I2C_Master_Write@d+1
  1079  020E  160A  118A  27A2  120A  118A  	fcall	_I2C_Master_Write
  1080  0213                     l2643:
  1081                           
  1082                           ;main01.c: 98: 
  1083  0213  30F3               	movlw	243
  1084  0214  00F0               	movwf	I2C_Master_Write@d
  1085  0215  3000               	movlw	0
  1086  0216  00F1               	movwf	I2C_Master_Write@d+1
  1087  0217  160A  118A  27A2  120A  118A  	fcall	_I2C_Master_Write
  1088  021C                     l2645:
  1089                           
  1090                           ;main01.c: 99: 
  1091  021C  120A  158A  2000  120A  118A  	fcall	_I2C_Master_Stop
  1092  0221                     l2647:
  1093                           
  1094                           ;main01.c: 100: 
  1095  0221  3002               	movlw	2
  1096  0222  1283               	bcf	3,5	;RP0=0, select bank0
  1097  0223  1303               	bcf	3,6	;RP1=0, select bank0
  1098  0224  00EA               	movwf	??_main+2
  1099  0225  3004               	movlw	4
  1100  0226  00E9               	movwf	??_main+1
  1101  0227  30B9               	movlw	185
  1102  0228  00E8               	movwf	??_main
  1103  0229                     u3787:
  1104  0229  0BE8               	decfsz	??_main,f
  1105  022A  2A29               	goto	u3787
  1106  022B  0BE9               	decfsz	??_main+1,f
  1107  022C  2A29               	goto	u3787
  1108  022D  0BEA               	decfsz	??_main+2,f
  1109  022E  2A29               	goto	u3787
  1110  022F  2A30               	nop2
  1111  0230                     l2649:
  1112                           
  1113                           ;main01.c: 102: 
  1114  0230  160A  118A  2799  120A  118A  	fcall	_I2C_Master_Start
  1115  0235                     l2651:
  1116                           
  1117                           ;main01.c: 103:     centenas = (dividendo)/100;
  1118  0235  3081               	movlw	129
  1119  0236  00F0               	movwf	I2C_Master_Write@d
  1120  0237  3000               	movlw	0
  1121  0238  00F1               	movwf	I2C_Master_Write@d+1
  1122  0239  160A  118A  27A2  120A  118A  	fcall	_I2C_Master_Write
  1123  023E                     l2653:
  1124                           
  1125                           ;main01.c: 104:     residuo = dividendo%100;
  1126  023E  3000               	movlw	0
  1127  023F  00F0               	movwf	I2C_Master_Read@a
  1128  0240  00F1               	movwf	I2C_Master_Read@a+1
  1129  0241  120A  118A  2007  120A  118A  	fcall	_I2C_Master_Read
  1130  0246  0870               	movf	?_I2C_Master_Read,w
  1131  0247  1283               	bcf	3,5	;RP0=0, select bank0
  1132  0248  1303               	bcf	3,6	;RP1=0, select bank0
  1133  0249  00E9               	movwf	??_main+1
  1134  024A  01E8               	clrf	??_main
  1135  024B  0868               	movf	??_main,w
  1136  024C  1683               	bsf	3,5	;RP0=1, select bank1
  1137  024D  1303               	bcf	3,6	;RP1=0, select bank1
  1138  024E  00A7               	movwf	_temp^(0+128)
  1139  024F  1283               	bcf	3,5	;RP0=0, select bank0
  1140  0250  1303               	bcf	3,6	;RP1=0, select bank0
  1141  0251  0869               	movf	??_main+1,w
  1142  0252  1683               	bsf	3,5	;RP0=1, select bank1
  1143  0253  1303               	bcf	3,6	;RP1=0, select bank1
  1144  0254  00A8               	movwf	(_temp+1)^(0+128)
  1145  0255                     l2655:
  1146                           
  1147                           ;main01.c: 105:     decenas = residuo/10;
  1148  0255  3000               	movlw	0
  1149  0256  00F0               	movwf	I2C_Master_Read@a
  1150  0257  00F1               	movwf	I2C_Master_Read@a+1
  1151  0258  120A  118A  2007  120A  118A  	fcall	_I2C_Master_Read
  1152  025D  0870               	movf	?_I2C_Master_Read,w
  1153  025E  1683               	bsf	3,5	;RP0=1, select bank1
  1154  025F  1303               	bcf	3,6	;RP1=0, select bank1
  1155  0260  07A7               	addwf	_temp^(0+128),f
  1156  0261  1803               	skipnc
  1157  0262  0AA8               	incf	(_temp+1)^(0+128),f
  1158  0263  0871               	movf	?_I2C_Master_Read+1,w
  1159  0264  07A8               	addwf	(_temp+1)^(0+128),f
  1160  0265                     l2657:
  1161                           
  1162                           ;main01.c: 106:     unidades = residuo%10;
  1163  0265  120A  158A  2000  120A  118A  	fcall	_I2C_Master_Stop
  1164  026A                     l2659:
  1165                           
  1166                           ;main01.c: 107: 
  1167  026A  3002               	movlw	2
  1168  026B  1283               	bcf	3,5	;RP0=0, select bank0
  1169  026C  1303               	bcf	3,6	;RP1=0, select bank0
  1170  026D  00EA               	movwf	??_main+2
  1171  026E  3004               	movlw	4
  1172  026F  00E9               	movwf	??_main+1
  1173  0270  30B9               	movlw	185
  1174  0271  00E8               	movwf	??_main
  1175  0272                     u3797:
  1176  0272  0BE8               	decfsz	??_main,f
  1177  0273  2A72               	goto	u3797
  1178  0274  0BE9               	decfsz	??_main+1,f
  1179  0275  2A72               	goto	u3797
  1180  0276  0BEA               	decfsz	??_main+2,f
  1181  0277  2A72               	goto	u3797
  1182  0278  2A79               	nop2
  1183  0279                     l2661:
  1184                           
  1185                           ;main01.c: 110:     unidades += 48;
  1186  0279  160A  118A  2799  120A  118A  	fcall	_I2C_Master_Start
  1187  027E                     l2663:
  1188                           
  1189                           ;main01.c: 111:     return;
  1190  027E  3061               	movlw	97
  1191  027F  00F0               	movwf	I2C_Master_Write@d
  1192  0280  3000               	movlw	0
  1193  0281  00F1               	movwf	I2C_Master_Write@d+1
  1194  0282  160A  118A  27A2  120A  118A  	fcall	_I2C_Master_Write
  1195  0287                     l2665:
  1196                           
  1197                           ;main01.c: 112: }
  1198  0287  3000               	movlw	0
  1199  0288  00F0               	movwf	I2C_Master_Read@a
  1200  0289  00F1               	movwf	I2C_Master_Read@a+1
  1201  028A  120A  118A  2007  120A  118A  	fcall	_I2C_Master_Read
  1202  028F  0870               	movf	?_I2C_Master_Read,w
  1203  0290  1283               	bcf	3,5	;RP0=0, select bank0
  1204  0291  1303               	bcf	3,6	;RP1=0, select bank0
  1205  0292  00E8               	movwf	??_main
  1206  0293  0868               	movf	??_main,w
  1207  0294  1683               	bsf	3,5	;RP0=1, select bank1
  1208  0295  1303               	bcf	3,6	;RP1=0, select bank1
  1209  0296  00A5               	movwf	_sensor2^(0+128)
  1210  0297                     l2667:
  1211                           
  1212                           ;main01.c: 113: 
  1213  0297  120A  158A  2000  120A  118A  	fcall	_I2C_Master_Stop
  1214  029C                     l2669:
  1215                           
  1216                           ;main01.c: 114: 
  1217  029C  3002               	movlw	2
  1218  029D  1283               	bcf	3,5	;RP0=0, select bank0
  1219  029E  1303               	bcf	3,6	;RP1=0, select bank0
  1220  029F  00EA               	movwf	??_main+2
  1221  02A0  3004               	movlw	4
  1222  02A1  00E9               	movwf	??_main+1
  1223  02A2  30B9               	movlw	185
  1224  02A3  00E8               	movwf	??_main
  1225  02A4                     u3807:
  1226  02A4  0BE8               	decfsz	??_main,f
  1227  02A5  2AA4               	goto	u3807
  1228  02A6  0BE9               	decfsz	??_main+1,f
  1229  02A7  2AA4               	goto	u3807
  1230  02A8  0BEA               	decfsz	??_main+2,f
  1231  02A9  2AA4               	goto	u3807
  1232  02AA  2AAB               	nop2
  1233  02AB                     l2671:
  1234                           
  1235                           ;main01.c: 116: 
  1236  02AB  30C2               	movlw	194
  1237  02AC  1283               	bcf	3,5	;RP0=0, select bank0
  1238  02AD  1303               	bcf	3,6	;RP1=0, select bank0
  1239  02AE  00D7               	movwf	___fladd@b+3
  1240  02AF  303B               	movlw	59
  1241  02B0  00D6               	movwf	___fladd@b+2
  1242  02B1  3066               	movlw	102
  1243  02B2  00D5               	movwf	___fladd@b+1
  1244  02B3  3066               	movlw	102
  1245  02B4  00D4               	movwf	___fladd@b
  1246  02B5  3047               	movlw	71
  1247  02B6  00BD               	movwf	___fldiv@a+3
  1248  02B7  3080               	movlw	128
  1249  02B8  00BC               	movwf	___fldiv@a+2
  1250  02B9  3000               	movlw	0
  1251  02BA  00BB               	movwf	___fldiv@a+1
  1252  02BB  3000               	movlw	0
  1253  02BC  00BA               	movwf	___fldiv@a
  1254  02BD  3043               	movlw	67
  1255  02BE  00A3               	movwf	___flmul@b+3
  1256  02BF  302F               	movlw	47
  1257  02C0  00A2               	movwf	___flmul@b+2
  1258  02C1  30B8               	movlw	184
  1259  02C2  00A1               	movwf	___flmul@b+1
  1260  02C3  3052               	movlw	82
  1261  02C4  00A0               	movwf	___flmul@b
  1262  02C5  1683               	bsf	3,5	;RP0=1, select bank1
  1263  02C6  1303               	bcf	3,6	;RP1=0, select bank1
  1264  02C7  0827               	movf	_temp^(0+128),w
  1265  02C8  00F0               	movwf	___xxtofl@val
  1266  02C9  0828               	movf	(_temp+1)^(0+128),w
  1267  02CA  00F1               	movwf	___xxtofl@val+1
  1268  02CB  01F2               	clrf	___xxtofl@val+2
  1269  02CC  01F3               	clrf	___xxtofl@val+3
  1270  02CD  3000               	movlw	0
  1271  02CE  120A  118A  20D7  120A  118A  	fcall	___xxtofl
  1272  02D3  0873               	movf	?___xxtofl+3,w
  1273  02D4  1283               	bcf	3,5	;RP0=0, select bank0
  1274  02D5  1303               	bcf	3,6	;RP1=0, select bank0
  1275  02D6  00A7               	movwf	___flmul@a+3
  1276  02D7  0872               	movf	?___xxtofl+2,w
  1277  02D8  00A6               	movwf	___flmul@a+2
  1278  02D9  0871               	movf	?___xxtofl+1,w
  1279  02DA  00A5               	movwf	___flmul@a+1
  1280  02DB  0870               	movf	?___xxtofl,w
  1281  02DC  00A4               	movwf	___flmul@a
  1282  02DD  120A  118A  2489  120A  118A  	fcall	___flmul
  1283  02E2  1283               	bcf	3,5	;RP0=0, select bank0
  1284  02E3  1303               	bcf	3,6	;RP1=0, select bank0
  1285  02E4  0823               	movf	?___flmul+3,w
  1286  02E5  00C1               	movwf	___fldiv@b+3
  1287  02E6  0822               	movf	?___flmul+2,w
  1288  02E7  00C0               	movwf	___fldiv@b+2
  1289  02E8  0821               	movf	?___flmul+1,w
  1290  02E9  00BF               	movwf	___fldiv@b+1
  1291  02EA  0820               	movf	?___flmul,w
  1292  02EB  00BE               	movwf	___fldiv@b
  1293  02EC  120A  158A  239B  120A  118A  	fcall	___fldiv
  1294  02F1  1283               	bcf	3,5	;RP0=0, select bank0
  1295  02F2  1303               	bcf	3,6	;RP1=0, select bank0
  1296  02F3  083D               	movf	?___fldiv+3,w
  1297  02F4  00DB               	movwf	___fladd@a+3
  1298  02F5  083C               	movf	?___fldiv+2,w
  1299  02F6  00DA               	movwf	___fladd@a+2
  1300  02F7  083B               	movf	?___fldiv+1,w
  1301  02F8  00D9               	movwf	___fladd@a+1
  1302  02F9  083A               	movf	?___fldiv,w
  1303  02FA  00D8               	movwf	___fladd@a
  1304  02FB  120A  158A  2578  120A  118A  	fcall	___fladd
  1305  0300  1283               	bcf	3,5	;RP0=0, select bank0
  1306  0301  1303               	bcf	3,6	;RP1=0, select bank0
  1307  0302  0857               	movf	?___fladd+3,w
  1308  0303  1683               	bsf	3,5	;RP0=1, select bank1
  1309  0304  1303               	bcf	3,6	;RP1=0, select bank1
  1310  0305  00A3               	movwf	(_temp1+3)^(0+128)
  1311  0306  1283               	bcf	3,5	;RP0=0, select bank0
  1312  0307  1303               	bcf	3,6	;RP1=0, select bank0
  1313  0308  0856               	movf	?___fladd+2,w
  1314  0309  1683               	bsf	3,5	;RP0=1, select bank1
  1315  030A  1303               	bcf	3,6	;RP1=0, select bank1
  1316  030B  00A2               	movwf	(_temp1+2)^(0+128)
  1317  030C  1283               	bcf	3,5	;RP0=0, select bank0
  1318  030D  1303               	bcf	3,6	;RP1=0, select bank0
  1319  030E  0855               	movf	?___fladd+1,w
  1320  030F  1683               	bsf	3,5	;RP0=1, select bank1
  1321  0310  1303               	bcf	3,6	;RP1=0, select bank1
  1322  0311  00A1               	movwf	(_temp1+1)^(0+128)
  1323  0312  1283               	bcf	3,5	;RP0=0, select bank0
  1324  0313  1303               	bcf	3,6	;RP1=0, select bank0
  1325  0314  0854               	movf	?___fladd,w
  1326  0315  1683               	bsf	3,5	;RP0=1, select bank1
  1327  0316  1303               	bcf	3,6	;RP1=0, select bank1
  1328  0317  00A0               	movwf	_temp1^(0+128)
  1329  0318                     l2673:
  1330                           
  1331                           ;main01.c: 119: 
  1332  0318  01F4               	clrf	Lcd_Set_Cursor@b
  1333  0319  0AF4               	incf	Lcd_Set_Cursor@b,f
  1334  031A  3002               	movlw	2
  1335  031B  120A  158A  20E6  120A  118A  	fcall	_Lcd_Set_Cursor
  1336  0320                     l2675:
  1337                           
  1338                           ;main01.c: 120: 
  1339  0320  1283               	bcf	3,5	;RP0=0, select bank0
  1340  0321  1303               	bcf	3,6	;RP1=0, select bank0
  1341  0322  086F               	movf	_sensor1,w
  1342  0323  120A  158A  21EE  120A  118A  	fcall	_division
  1343  0328                     l2677:
  1344                           
  1345                           ;main01.c: 121:     ANSELH = 0x00;
  1346  0328  1283               	bcf	3,5	;RP0=0, select bank0
  1347  0329  1303               	bcf	3,6	;RP1=0, select bank0
  1348  032A  086E               	movf	_centenas,w
  1349  032B  120A  158A  2077  120A  118A  	fcall	_Lcd_Write_Char
  1350  0330                     l2679:
  1351                           
  1352                           ;main01.c: 122: 
  1353  0330  3002               	movlw	2
  1354  0331  1283               	bcf	3,5	;RP0=0, select bank0
  1355  0332  1303               	bcf	3,6	;RP1=0, select bank0
  1356  0333  00E8               	movwf	??_main
  1357  0334  0868               	movf	??_main,w
  1358  0335  00F4               	movwf	Lcd_Set_Cursor@b
  1359  0336  3002               	movlw	2
  1360  0337  120A  158A  20E6  120A  118A  	fcall	_Lcd_Set_Cursor
  1361  033C                     l2681:
  1362                           
  1363                           ;main01.c: 123:     TRISD = 0X00;
  1364  033C  1283               	bcf	3,5	;RP0=0, select bank0
  1365  033D  1303               	bcf	3,6	;RP1=0, select bank0
  1366  033E  086C               	movf	_decenas,w
  1367  033F  120A  158A  2077  120A  118A  	fcall	_Lcd_Write_Char
  1368  0344                     l2683:
  1369                           
  1370                           ;main01.c: 124:     TRISE = 0X00;
  1371  0344  3003               	movlw	3
  1372  0345  1283               	bcf	3,5	;RP0=0, select bank0
  1373  0346  1303               	bcf	3,6	;RP1=0, select bank0
  1374  0347  00E8               	movwf	??_main
  1375  0348  0868               	movf	??_main,w
  1376  0349  00F4               	movwf	Lcd_Set_Cursor@b
  1377  034A  3002               	movlw	2
  1378  034B  120A  158A  20E6  120A  118A  	fcall	_Lcd_Set_Cursor
  1379  0350                     l2685:
  1380                           
  1381                           ;main01.c: 125: 
  1382  0350  1283               	bcf	3,5	;RP0=0, select bank0
  1383  0351  1303               	bcf	3,6	;RP1=0, select bank0
  1384  0352  086B               	movf	_unidades,w
  1385  0353  120A  158A  2077  120A  118A  	fcall	_Lcd_Write_Char
  1386  0358                     l2687:
  1387                           
  1388                           ;main01.c: 127:     OSCCONbits.IRCF1 = 1;
  1389  0358  3008               	movlw	8
  1390  0359  1283               	bcf	3,5	;RP0=0, select bank0
  1391  035A  1303               	bcf	3,6	;RP1=0, select bank0
  1392  035B  00E8               	movwf	??_main
  1393  035C  0868               	movf	??_main,w
  1394  035D  00F4               	movwf	Lcd_Set_Cursor@b
  1395  035E  3002               	movlw	2
  1396  035F  120A  158A  20E6  120A  118A  	fcall	_Lcd_Set_Cursor
  1397  0364                     l2689:
  1398                           
  1399                           ;main01.c: 128:     OSCCONbits.IRCF2 = 1;
  1400  0364  1683               	bsf	3,5	;RP0=1, select bank1
  1401  0365  1303               	bcf	3,6	;RP1=0, select bank1
  1402  0366  0825               	movf	_sensor2^(0+128),w
  1403  0367  120A  158A  21EE  120A  118A  	fcall	_division
  1404  036C                     l2691:
  1405                           
  1406                           ;main01.c: 129:     OSCCONbits.SCS = 1;
  1407  036C  1283               	bcf	3,5	;RP0=0, select bank0
  1408  036D  1303               	bcf	3,6	;RP1=0, select bank0
  1409  036E  086C               	movf	_decenas,w
  1410  036F  120A  158A  2077  120A  118A  	fcall	_Lcd_Write_Char
  1411  0374                     l2693:
  1412                           
  1413                           ;main01.c: 130: 
  1414  0374  3009               	movlw	9
  1415  0375  1283               	bcf	3,5	;RP0=0, select bank0
  1416  0376  1303               	bcf	3,6	;RP1=0, select bank0
  1417  0377  00E8               	movwf	??_main
  1418  0378  0868               	movf	??_main,w
  1419  0379  00F4               	movwf	Lcd_Set_Cursor@b
  1420  037A  3002               	movlw	2
  1421  037B  120A  158A  20E6  120A  118A  	fcall	_Lcd_Set_Cursor
  1422  0380                     l2695:
  1423                           
  1424                           ;main01.c: 131: 
  1425  0380  1283               	bcf	3,5	;RP0=0, select bank0
  1426  0381  1303               	bcf	3,6	;RP1=0, select bank0
  1427  0382  086B               	movf	_unidades,w
  1428  0383  120A  158A  2077  120A  118A  	fcall	_Lcd_Write_Char
  1429  0388                     l2697:
  1430                           
  1431                           ;main01.c: 134:     PORTB = 0X00;
  1432  0388  1683               	bsf	3,5	;RP0=1, select bank1
  1433  0389  1303               	bcf	3,6	;RP1=0, select bank1
  1434  038A  0823               	movf	(_temp1+3)^(0+128),w
  1435  038B  00F3               	movwf	___flge@ff1+3
  1436  038C  0822               	movf	(_temp1+2)^(0+128),w
  1437  038D  00F2               	movwf	___flge@ff1+2
  1438  038E  0821               	movf	(_temp1+1)^(0+128),w
  1439  038F  00F1               	movwf	___flge@ff1+1
  1440  0390  0820               	movf	_temp1^(0+128),w
  1441  0391  00F0               	movwf	___flge@ff1
  1442  0392  3000               	movlw	0
  1443  0393  00F7               	movwf	___flge@ff2+3
  1444  0394  3000               	movlw	0
  1445  0395  00F6               	movwf	___flge@ff2+2
  1446  0396  3000               	movlw	0
  1447  0397  00F5               	movwf	___flge@ff2+1
  1448  0398  3000               	movlw	0
  1449  0399  00F4               	movwf	___flge@ff2
  1450  039A  120A  118A  2035  120A  118A  	fcall	___flge
  1451  039F  1803               	btfsc	3,0
  1452  03A0  2BA2               	goto	u3751
  1453  03A1  2BA3               	goto	u3750
  1454  03A2                     u3751:
  1455  03A2  2BF5               	goto	l2705
  1456  03A3                     u3750:
  1457  03A3                     l2699:
  1458                           
  1459                           ;main01.c: 135:     PORTC = 0X00;
  1460  03A3  30BF               	movlw	191
  1461  03A4  1283               	bcf	3,5	;RP0=0, select bank0
  1462  03A5  1303               	bcf	3,6	;RP1=0, select bank0
  1463  03A6  00A3               	movwf	___flmul@b+3
  1464  03A7  3080               	movlw	128
  1465  03A8  00A2               	movwf	___flmul@b+2
  1466  03A9  3000               	movlw	0
  1467  03AA  00A1               	movwf	___flmul@b+1
  1468  03AB  3000               	movlw	0
  1469  03AC  00A0               	movwf	___flmul@b
  1470  03AD  1683               	bsf	3,5	;RP0=1, select bank1
  1471  03AE  1303               	bcf	3,6	;RP1=0, select bank1
  1472  03AF  0823               	movf	(_temp1+3)^(0+128),w
  1473  03B0  1283               	bcf	3,5	;RP0=0, select bank0
  1474  03B1  1303               	bcf	3,6	;RP1=0, select bank0
  1475  03B2  00A7               	movwf	___flmul@a+3
  1476  03B3  1683               	bsf	3,5	;RP0=1, select bank1
  1477  03B4  1303               	bcf	3,6	;RP1=0, select bank1
  1478  03B5  0822               	movf	(_temp1+2)^(0+128),w
  1479  03B6  1283               	bcf	3,5	;RP0=0, select bank0
  1480  03B7  1303               	bcf	3,6	;RP1=0, select bank0
  1481  03B8  00A6               	movwf	___flmul@a+2
  1482  03B9  1683               	bsf	3,5	;RP0=1, select bank1
  1483  03BA  1303               	bcf	3,6	;RP1=0, select bank1
  1484  03BB  0821               	movf	(_temp1+1)^(0+128),w
  1485  03BC  1283               	bcf	3,5	;RP0=0, select bank0
  1486  03BD  1303               	bcf	3,6	;RP1=0, select bank0
  1487  03BE  00A5               	movwf	___flmul@a+1
  1488  03BF  1683               	bsf	3,5	;RP0=1, select bank1
  1489  03C0  1303               	bcf	3,6	;RP1=0, select bank1
  1490  03C1  0820               	movf	_temp1^(0+128),w
  1491  03C2  1283               	bcf	3,5	;RP0=0, select bank0
  1492  03C3  1303               	bcf	3,6	;RP1=0, select bank0
  1493  03C4  00A4               	movwf	___flmul@a
  1494  03C5  120A  118A  2489  120A  118A  	fcall	___flmul
  1495  03CA  1283               	bcf	3,5	;RP0=0, select bank0
  1496  03CB  1303               	bcf	3,6	;RP1=0, select bank0
  1497  03CC  0823               	movf	?___flmul+3,w
  1498  03CD  1683               	bsf	3,5	;RP0=1, select bank1
  1499  03CE  1303               	bcf	3,6	;RP1=0, select bank1
  1500  03CF  00A3               	movwf	(_temp1+3)^(0+128)
  1501  03D0  1283               	bcf	3,5	;RP0=0, select bank0
  1502  03D1  1303               	bcf	3,6	;RP1=0, select bank0
  1503  03D2  0822               	movf	?___flmul+2,w
  1504  03D3  1683               	bsf	3,5	;RP0=1, select bank1
  1505  03D4  1303               	bcf	3,6	;RP1=0, select bank1
  1506  03D5  00A2               	movwf	(_temp1+2)^(0+128)
  1507  03D6  1283               	bcf	3,5	;RP0=0, select bank0
  1508  03D7  1303               	bcf	3,6	;RP1=0, select bank0
  1509  03D8  0821               	movf	?___flmul+1,w
  1510  03D9  1683               	bsf	3,5	;RP0=1, select bank1
  1511  03DA  1303               	bcf	3,6	;RP1=0, select bank1
  1512  03DB  00A1               	movwf	(_temp1+1)^(0+128)
  1513  03DC  1283               	bcf	3,5	;RP0=0, select bank0
  1514  03DD  1303               	bcf	3,6	;RP1=0, select bank0
  1515  03DE  0820               	movf	?___flmul,w
  1516  03DF  1683               	bsf	3,5	;RP0=1, select bank1
  1517  03E0  1303               	bcf	3,6	;RP1=0, select bank1
  1518  03E1  00A0               	movwf	_temp1^(0+128)
  1519  03E2                     l2701:
  1520                           
  1521                           ;main01.c: 136:     PORTD = 0X00;
  1522  03E2  300C               	movlw	12
  1523  03E3  1283               	bcf	3,5	;RP0=0, select bank0
  1524  03E4  1303               	bcf	3,6	;RP1=0, select bank0
  1525  03E5  00E8               	movwf	??_main
  1526  03E6  0868               	movf	??_main,w
  1527  03E7  00F4               	movwf	Lcd_Set_Cursor@b
  1528  03E8  3002               	movlw	2
  1529  03E9  120A  158A  20E6  120A  118A  	fcall	_Lcd_Set_Cursor
  1530  03EE                     l2703:
  1531                           
  1532                           ;main01.c: 137:     PORTE = 0X00;
  1533  03EE  302D               	movlw	45
  1534  03EF  120A  158A  2077  120A  118A  	fcall	_Lcd_Write_Char
  1535                           
  1536                           ;main01.c: 138: 
  1537  03F4  2C22               	goto	l71
  1538  03F5                     l2705:
  1539  03F5  1683               	bsf	3,5	;RP0=1, select bank1
  1540  03F6  1303               	bcf	3,6	;RP1=0, select bank1
  1541  03F7  0823               	movf	(_temp1+3)^(0+128),w
  1542  03F8  00F3               	movwf	___flge@ff1+3
  1543  03F9  0822               	movf	(_temp1+2)^(0+128),w
  1544  03FA  00F2               	movwf	___flge@ff1+2
  1545  03FB  0821               	movf	(_temp1+1)^(0+128),w
  1546  03FC  00F1               	movwf	___flge@ff1+1
  1547  03FD  0820               	movf	_temp1^(0+128),w
  1548  03FE  00F0               	movwf	___flge@ff1
  1549  03FF  3000               	movlw	0
  1550  0400  00F7               	movwf	___flge@ff2+3
  1551  0401  3000               	movlw	0
  1552  0402  00F6               	movwf	___flge@ff2+2
  1553  0403  3000               	movlw	0
  1554  0404  00F5               	movwf	___flge@ff2+1
  1555  0405  3000               	movlw	0
  1556  0406  00F4               	movwf	___flge@ff2
  1557  0407  120A  118A  2035  120A  118A  	fcall	___flge
  1558  040C  1C03               	btfss	3,0
  1559  040D  2C0F               	goto	u3761
  1560  040E  2C10               	goto	u3760
  1561  040F                     u3761:
  1562  040F  2C22               	goto	l71
  1563  0410                     u3760:
  1564  0410                     l2707:
  1565                           
  1566                           ;main01.c: 140:     I2C_Master_Init(100000);
  1567  0410  300C               	movlw	12
  1568  0411  1283               	bcf	3,5	;RP0=0, select bank0
  1569  0412  1303               	bcf	3,6	;RP1=0, select bank0
  1570  0413  00E8               	movwf	??_main
  1571  0414  0868               	movf	??_main,w
  1572  0415  00F4               	movwf	Lcd_Set_Cursor@b
  1573  0416  3002               	movlw	2
  1574  0417  120A  158A  20E6  120A  118A  	fcall	_Lcd_Set_Cursor
  1575                           
  1576                           ;main01.c: 141: 
  1577  041C  3020               	movlw	32
  1578  041D  120A  158A  2077  120A  118A  	fcall	_Lcd_Write_Char
  1579  0422                     l71:
  1580                           
  1581                           ;main01.c: 143:     return;
  1582  0422  300D               	movlw	13
  1583  0423  1283               	bcf	3,5	;RP0=0, select bank0
  1584  0424  1303               	bcf	3,6	;RP1=0, select bank0
  1585  0425  00E8               	movwf	??_main
  1586  0426  0868               	movf	??_main,w
  1587  0427  00F4               	movwf	Lcd_Set_Cursor@b
  1588  0428  3002               	movlw	2
  1589  0429  120A  158A  20E6  120A  118A  	fcall	_Lcd_Set_Cursor
  1590                           
  1591                           ;main01.c: 144: }
  1592  042E  1683               	bsf	3,5	;RP0=1, select bank1
  1593  042F  1303               	bcf	3,6	;RP1=0, select bank1
  1594  0430  0823               	movf	(_temp1+3)^(0+128),w
  1595  0431  00F3               	movwf	___fltol@f1+3
  1596  0432  0822               	movf	(_temp1+2)^(0+128),w
  1597  0433  00F2               	movwf	___fltol@f1+2
  1598  0434  0821               	movf	(_temp1+1)^(0+128),w
  1599  0435  00F1               	movwf	___fltol@f1+1
  1600  0436  0820               	movf	_temp1^(0+128),w
  1601  0437  00F0               	movwf	___fltol@f1
  1602  0438  120A  158A  2321  120A  118A  	fcall	___fltol
  1603  043D  0870               	movf	?___fltol,w
  1604  043E  120A  158A  21EE  120A  118A  	fcall	_division
  1605  0443  1283               	bcf	3,5	;RP0=0, select bank0
  1606  0444  1303               	bcf	3,6	;RP1=0, select bank0
  1607  0445  086E               	movf	_centenas,w
  1608  0446  120A  158A  2077  120A  118A  	fcall	_Lcd_Write_Char
  1609  044B  300E               	movlw	14
  1610  044C  1283               	bcf	3,5	;RP0=0, select bank0
  1611  044D  1303               	bcf	3,6	;RP1=0, select bank0
  1612  044E  00E8               	movwf	??_main
  1613  044F  0868               	movf	??_main,w
  1614  0450  00F4               	movwf	Lcd_Set_Cursor@b
  1615  0451  3002               	movlw	2
  1616  0452  120A  158A  20E6  120A  118A  	fcall	_Lcd_Set_Cursor
  1617  0457  1283               	bcf	3,5	;RP0=0, select bank0
  1618  0458  1303               	bcf	3,6	;RP1=0, select bank0
  1619  0459  086C               	movf	_decenas,w
  1620  045A  120A  158A  2077  120A  118A  	fcall	_Lcd_Write_Char
  1621  045F  300F               	movlw	15
  1622  0460  1283               	bcf	3,5	;RP0=0, select bank0
  1623  0461  1303               	bcf	3,6	;RP1=0, select bank0
  1624  0462  00E8               	movwf	??_main
  1625  0463  0868               	movf	??_main,w
  1626  0464  00F4               	movwf	Lcd_Set_Cursor@b
  1627  0465  3002               	movlw	2
  1628  0466  120A  158A  20E6  120A  118A  	fcall	_Lcd_Set_Cursor
  1629  046B  1283               	bcf	3,5	;RP0=0, select bank0
  1630  046C  1303               	bcf	3,6	;RP1=0, select bank0
  1631  046D  086B               	movf	_unidades,w
  1632  046E  120A  158A  2077  120A  118A  	fcall	_Lcd_Write_Char
  1633  0473  3010               	movlw	16
  1634  0474  1283               	bcf	3,5	;RP0=0, select bank0
  1635  0475  1303               	bcf	3,6	;RP1=0, select bank0
  1636  0476  00E8               	movwf	??_main
  1637  0477  0868               	movf	??_main,w
  1638  0478  00F4               	movwf	Lcd_Set_Cursor@b
  1639  0479  3002               	movlw	2
  1640  047A  120A  158A  20E6  120A  118A  	fcall	_Lcd_Set_Cursor
  1641  047F  3027               	movlw	39
  1642  0480  120A  158A  2077  120A  118A  	fcall	_Lcd_Write_Char
  1643  0485  29D5               	goto	l2629
  1644  0486  120A  118A  2800   	ljmp	start
  1645  0489                     __end_of_main:
  1646                           
  1647                           	psect	text1
  1648  17E0                     __ptext1:	
  1649 ;; *************** function _setup *****************
  1650 ;; Defined at:
  1651 ;;		line 176 in file "main01.c"
  1652 ;; Parameters:    Size  Location     Type
  1653 ;;		None
  1654 ;; Auto vars:     Size  Location     Type
  1655 ;;		None
  1656 ;; Return value:  Size  Location     Type
  1657 ;;                  1    wreg      void 
  1658 ;; Registers used:
  1659 ;;		wreg, status,2, status,0, pclath, cstack
  1660 ;; Tracked objects:
  1661 ;;		On entry : 0/0
  1662 ;;		On exit  : 0/0
  1663 ;;		Unchanged: 0/0
  1664 ;; Data sizes:     COMMON   BANK0   BANK1   BANK3   BANK2
  1665 ;;      Params:         0       0       0       0       0
  1666 ;;      Locals:         0       0       0       0       0
  1667 ;;      Temps:          0       0       0       0       0
  1668 ;;      Totals:         0       0       0       0       0
  1669 ;;Total ram usage:        0 bytes
  1670 ;; Hardware stack levels used:    1
  1671 ;; Hardware stack levels required when called:    2
  1672 ;; This function calls:
  1673 ;;		_I2C_Master_Init
  1674 ;; This function is called by:
  1675 ;;		_main
  1676 ;; This function uses a non-reentrant model
  1677 ;;
  1678                           
  1679                           
  1680                           ;psect for function _setup
  1681  17E0                     _setup:
  1682  17E0                     l1941:	
  1683                           ;incstack = 0
  1684                           ; Regs used in _setup: [wreg+status,2+status,0+pclath+cstack]
  1685                           
  1686  17E0  1683               	bsf	3,5	;RP0=1, select bank3
  1687  17E1  1703               	bsf	3,6	;RP1=1, select bank3
  1688  17E2  0189               	clrf	9	;volatile
  1689  17E3  1683               	bsf	3,5	;RP0=1, select bank1
  1690  17E4  1303               	bcf	3,6	;RP1=0, select bank1
  1691  17E5  0188               	clrf	8	;volatile
  1692  17E6  0189               	clrf	9	;volatile
  1693  17E7                     l1943:
  1694  17E7  120F               	bcf	15,4	;volatile
  1695  17E8                     l1945:
  1696  17E8  168F               	bsf	15,5	;volatile
  1697  17E9                     l1947:
  1698  17E9  170F               	bsf	15,6	;volatile
  1699  17EA                     l1949:
  1700  17EA  140F               	bsf	15,0	;volatile
  1701  17EB  1283               	bcf	3,5	;RP0=0, select bank0
  1702  17EC  1303               	bcf	3,6	;RP1=0, select bank0
  1703  17ED  0185               	clrf	5	;volatile
  1704  17EE  0186               	clrf	6	;volatile
  1705  17EF  0187               	clrf	7	;volatile
  1706  17F0  0188               	clrf	8	;volatile
  1707  17F1  0189               	clrf	9	;volatile
  1708  17F2                     l1951:
  1709  17F2  3000               	movlw	0
  1710  17F3  00A3               	movwf	I2C_Master_Init@c+3
  1711  17F4  3001               	movlw	1
  1712  17F5  00A2               	movwf	I2C_Master_Init@c+2
  1713  17F6  3086               	movlw	134
  1714  17F7  00A1               	movwf	I2C_Master_Init@c+1
  1715  17F8  30A0               	movlw	160
  1716  17F9  00A0               	movwf	I2C_Master_Init@c
  1717  17FA  120A  158A  20AE  160A  118A  	fcall	_I2C_Master_Init
  1718  17FF                     l81:
  1719  17FF  0008               	return
  1720  1800                     __end_of_setup:
  1721                           
  1722                           	psect	text2
  1723  08AE                     __ptext2:	
  1724 ;; *************** function _I2C_Master_Init *****************
  1725 ;; Defined at:
  1726 ;;		line 16 in file "I2C.c"
  1727 ;; Parameters:    Size  Location     Type
  1728 ;;  c               4    0[BANK0 ] const unsigned long 
  1729 ;; Auto vars:     Size  Location     Type
  1730 ;;		None
  1731 ;; Return value:  Size  Location     Type
  1732 ;;                  1    wreg      void 
  1733 ;; Registers used:
  1734 ;;		wreg, status,2, status,0, pclath, cstack
  1735 ;; Tracked objects:
  1736 ;;		On entry : 0/0
  1737 ;;		On exit  : 0/0
  1738 ;;		Unchanged: 0/0
  1739 ;; Data sizes:     COMMON   BANK0   BANK1   BANK3   BANK2
  1740 ;;      Params:         0       4       0       0       0
  1741 ;;      Locals:         0       0       0       0       0
  1742 ;;      Temps:          0       4       0       0       0
  1743 ;;      Totals:         0       8       0       0       0
  1744 ;;Total ram usage:        8 bytes
  1745 ;; Hardware stack levels used:    1
  1746 ;; Hardware stack levels required when called:    1
  1747 ;; This function calls:
  1748 ;;		___lldiv
  1749 ;; This function is called by:
  1750 ;;		_setup
  1751 ;; This function uses a non-reentrant model
  1752 ;;
  1753                           
  1754                           
  1755                           ;psect for function _I2C_Master_Init
  1756  08AE                     _I2C_Master_Init:
  1757  08AE                     l1819:	
  1758                           ;incstack = 0
  1759                           ; Regs used in _I2C_Master_Init: [wreg+status,2+status,0+pclath+cstack]
  1760                           
  1761                           
  1762                           ;I2C.c: 16: void I2C_Master_Init(const unsigned long c);I2C.c: 17: {;I2C.c: 18:     SSPC
      +                          ON = 0b00101000;
  1763  08AE  3028               	movlw	40
  1764  08AF  1283               	bcf	3,5	;RP0=0, select bank0
  1765  08B0  1303               	bcf	3,6	;RP1=0, select bank0
  1766  08B1  0094               	movwf	20	;volatile
  1767  08B2                     l1821:
  1768                           
  1769                           ;I2C.c: 19:     SSPCON2 = 0;
  1770  08B2  1683               	bsf	3,5	;RP0=1, select bank1
  1771  08B3  1303               	bcf	3,6	;RP1=0, select bank1
  1772  08B4  0191               	clrf	17	;volatile
  1773  08B5                     l1823:
  1774                           
  1775                           ;I2C.c: 20:     SSPADD = (4000000/(4*c))-1;
  1776  08B5  1283               	bcf	3,5	;RP0=0, select bank0
  1777  08B6  1303               	bcf	3,6	;RP1=0, select bank0
  1778  08B7  0820               	movf	I2C_Master_Init@c,w
  1779  08B8  00A4               	movwf	??_I2C_Master_Init
  1780  08B9  0821               	movf	I2C_Master_Init@c+1,w
  1781  08BA  00A5               	movwf	??_I2C_Master_Init+1
  1782  08BB  0822               	movf	I2C_Master_Init@c+2,w
  1783  08BC  00A6               	movwf	??_I2C_Master_Init+2
  1784  08BD  0823               	movf	I2C_Master_Init@c+3,w
  1785  08BE  00A7               	movwf	??_I2C_Master_Init+3
  1786  08BF  3002               	movlw	2
  1787  08C0                     u2015:
  1788  08C0  1003               	clrc
  1789  08C1  0DA4               	rlf	??_I2C_Master_Init,f
  1790  08C2  0DA5               	rlf	??_I2C_Master_Init+1,f
  1791  08C3  0DA6               	rlf	??_I2C_Master_Init+2,f
  1792  08C4  0DA7               	rlf	??_I2C_Master_Init+3,f
  1793  08C5                     u2010:
  1794  08C5  3EFF               	addlw	-1
  1795  08C6  1D03               	skipz
  1796  08C7  28C0               	goto	u2015
  1797  08C8  0827               	movf	??_I2C_Master_Init+3,w
  1798  08C9  00F3               	movwf	___lldiv@divisor+3
  1799  08CA  0826               	movf	??_I2C_Master_Init+2,w
  1800  08CB  00F2               	movwf	___lldiv@divisor+2
  1801  08CC  0825               	movf	??_I2C_Master_Init+1,w
  1802  08CD  00F1               	movwf	___lldiv@divisor+1
  1803  08CE  0824               	movf	??_I2C_Master_Init,w
  1804  08CF  00F0               	movwf	___lldiv@divisor
  1805  08D0  3000               	movlw	0
  1806  08D1  00F7               	movwf	___lldiv@dividend+3
  1807  08D2  303D               	movlw	61
  1808  08D3  00F6               	movwf	___lldiv@dividend+2
  1809  08D4  3009               	movlw	9
  1810  08D5  00F5               	movwf	___lldiv@dividend+1
  1811  08D6  3000               	movlw	0
  1812  08D7  00F4               	movwf	___lldiv@dividend
  1813  08D8  120A  158A  2254  120A  158A  	fcall	___lldiv
  1814  08DD  0870               	movf	?___lldiv,w
  1815  08DE  3EFF               	addlw	255
  1816  08DF  1683               	bsf	3,5	;RP0=1, select bank1
  1817  08E0  1303               	bcf	3,6	;RP1=0, select bank1
  1818  08E1  0093               	movwf	19	;volatile
  1819  08E2                     l1825:
  1820                           
  1821                           ;I2C.c: 21:     SSPSTAT = 0;
  1822  08E2  0194               	clrf	20	;volatile
  1823  08E3                     l1827:
  1824                           
  1825                           ;I2C.c: 22:     TRISCbits.TRISC3 = 1;
  1826  08E3  1587               	bsf	7,3	;volatile
  1827  08E4                     l1829:
  1828                           
  1829                           ;I2C.c: 23:     TRISCbits.TRISC4 = 1;
  1830  08E4  1607               	bsf	7,4	;volatile
  1831  08E5                     l110:
  1832  08E5  0008               	return
  1833  08E6                     __end_of_I2C_Master_Init:
  1834                           
  1835                           	psect	text3
  1836  0A54                     __ptext3:	
  1837 ;; *************** function ___lldiv *****************
  1838 ;; Defined at:
  1839 ;;		line 5 in file "C:\Program Files\Microchip\xc8\v2.31\pic\sources\c90\common\__lldiv.c"
  1840 ;; Parameters:    Size  Location     Type
  1841 ;;  divisor         4    0[COMMON] unsigned long 
  1842 ;;  dividend        4    4[COMMON] unsigned long 
  1843 ;; Auto vars:     Size  Location     Type
  1844 ;;  quotient        4    9[COMMON] unsigned long 
  1845 ;;  counter         1   13[COMMON] unsigned char 
  1846 ;; Return value:  Size  Location     Type
  1847 ;;                  4    0[COMMON] unsigned long 
  1848 ;; Registers used:
  1849 ;;		wreg, status,2, status,0
  1850 ;; Tracked objects:
  1851 ;;		On entry : 0/0
  1852 ;;		On exit  : 0/0
  1853 ;;		Unchanged: 0/0
  1854 ;; Data sizes:     COMMON   BANK0   BANK1   BANK3   BANK2
  1855 ;;      Params:         8       0       0       0       0
  1856 ;;      Locals:         5       0       0       0       0
  1857 ;;      Temps:          1       0       0       0       0
  1858 ;;      Totals:        14       0       0       0       0
  1859 ;;Total ram usage:       14 bytes
  1860 ;; Hardware stack levels used:    1
  1861 ;; This function calls:
  1862 ;;		Nothing
  1863 ;; This function is called by:
  1864 ;;		_I2C_Master_Init
  1865 ;; This function uses a non-reentrant model
  1866 ;;
  1867                           
  1868                           
  1869                           ;psect for function ___lldiv
  1870  0A54                     ___lldiv:
  1871  0A54                     l1775:	
  1872                           ;incstack = 0
  1873                           ; Regs used in ___lldiv: [wreg+status,2+status,0]
  1874                           
  1875  0A54  3000               	movlw	0
  1876  0A55  00FC               	movwf	___lldiv@quotient+3
  1877  0A56  3000               	movlw	0
  1878  0A57  00FB               	movwf	___lldiv@quotient+2
  1879  0A58  3000               	movlw	0
  1880  0A59  00FA               	movwf	___lldiv@quotient+1
  1881  0A5A  3000               	movlw	0
  1882  0A5B  00F9               	movwf	___lldiv@quotient
  1883  0A5C  0873               	movf	___lldiv@divisor+3,w
  1884  0A5D  0472               	iorwf	___lldiv@divisor+2,w
  1885  0A5E  0471               	iorwf	___lldiv@divisor+1,w
  1886  0A5F  0470               	iorwf	___lldiv@divisor,w
  1887  0A60  1903               	skipnz
  1888  0A61  2A63               	goto	u1931
  1889  0A62  2A64               	goto	u1930
  1890  0A63                     u1931:
  1891  0A63  2AB1               	goto	l1795
  1892  0A64                     u1930:
  1893  0A64                     l1777:
  1894  0A64  01FD               	clrf	___lldiv@counter
  1895  0A65  0AFD               	incf	___lldiv@counter,f
  1896  0A66  2A74               	goto	l1781
  1897  0A67                     l1779:
  1898  0A67  3001               	movlw	1
  1899  0A68  00F8               	movwf	??___lldiv
  1900  0A69                     u1945:
  1901  0A69  1003               	clrc
  1902  0A6A  0DF0               	rlf	___lldiv@divisor,f
  1903  0A6B  0DF1               	rlf	___lldiv@divisor+1,f
  1904  0A6C  0DF2               	rlf	___lldiv@divisor+2,f
  1905  0A6D  0DF3               	rlf	___lldiv@divisor+3,f
  1906  0A6E  0BF8               	decfsz	??___lldiv,f
  1907  0A6F  2A69               	goto	u1945
  1908  0A70  3001               	movlw	1
  1909  0A71  00F8               	movwf	??___lldiv
  1910  0A72  0878               	movf	??___lldiv,w
  1911  0A73  07FD               	addwf	___lldiv@counter,f
  1912  0A74                     l1781:
  1913  0A74  1FF3               	btfss	___lldiv@divisor+3,7
  1914  0A75  2A77               	goto	u1951
  1915  0A76  2A78               	goto	u1950
  1916  0A77                     u1951:
  1917  0A77  2A67               	goto	l1779
  1918  0A78                     u1950:
  1919  0A78                     l1783:
  1920  0A78  3001               	movlw	1
  1921  0A79  00F8               	movwf	??___lldiv
  1922  0A7A                     u1965:
  1923  0A7A  1003               	clrc
  1924  0A7B  0DF9               	rlf	___lldiv@quotient,f
  1925  0A7C  0DFA               	rlf	___lldiv@quotient+1,f
  1926  0A7D  0DFB               	rlf	___lldiv@quotient+2,f
  1927  0A7E  0DFC               	rlf	___lldiv@quotient+3,f
  1928  0A7F  0BF8               	decfsz	??___lldiv,f
  1929  0A80  2A7A               	goto	u1965
  1930  0A81                     l1785:
  1931  0A81  0873               	movf	___lldiv@divisor+3,w
  1932  0A82  0277               	subwf	___lldiv@dividend+3,w
  1933  0A83  1D03               	skipz
  1934  0A84  2A8F               	goto	u1975
  1935  0A85  0872               	movf	___lldiv@divisor+2,w
  1936  0A86  0276               	subwf	___lldiv@dividend+2,w
  1937  0A87  1D03               	skipz
  1938  0A88  2A8F               	goto	u1975
  1939  0A89  0871               	movf	___lldiv@divisor+1,w
  1940  0A8A  0275               	subwf	___lldiv@dividend+1,w
  1941  0A8B  1D03               	skipz
  1942  0A8C  2A8F               	goto	u1975
  1943  0A8D  0870               	movf	___lldiv@divisor,w
  1944  0A8E  0274               	subwf	___lldiv@dividend,w
  1945  0A8F                     u1975:
  1946  0A8F  1C03               	skipc
  1947  0A90  2A92               	goto	u1971
  1948  0A91  2A93               	goto	u1970
  1949  0A92                     u1971:
  1950  0A92  2AA2               	goto	l1791
  1951  0A93                     u1970:
  1952  0A93                     l1787:
  1953  0A93  0870               	movf	___lldiv@divisor,w
  1954  0A94  02F4               	subwf	___lldiv@dividend,f
  1955  0A95  0871               	movf	___lldiv@divisor+1,w
  1956  0A96  1C03               	skipc
  1957  0A97  0F71               	incfsz	___lldiv@divisor+1,w
  1958  0A98  02F5               	subwf	___lldiv@dividend+1,f
  1959  0A99  0872               	movf	___lldiv@divisor+2,w
  1960  0A9A  1C03               	skipc
  1961  0A9B  0F72               	incfsz	___lldiv@divisor+2,w
  1962  0A9C  02F6               	subwf	___lldiv@dividend+2,f
  1963  0A9D  0873               	movf	___lldiv@divisor+3,w
  1964  0A9E  1C03               	skipc
  1965  0A9F  0F73               	incfsz	___lldiv@divisor+3,w
  1966  0AA0  02F7               	subwf	___lldiv@dividend+3,f
  1967  0AA1                     l1789:
  1968  0AA1  1479               	bsf	___lldiv@quotient,0
  1969  0AA2                     l1791:
  1970  0AA2  3001               	movlw	1
  1971  0AA3                     u1985:
  1972  0AA3  1003               	clrc
  1973  0AA4  0CF3               	rrf	___lldiv@divisor+3,f
  1974  0AA5  0CF2               	rrf	___lldiv@divisor+2,f
  1975  0AA6  0CF1               	rrf	___lldiv@divisor+1,f
  1976  0AA7  0CF0               	rrf	___lldiv@divisor,f
  1977  0AA8  3EFF               	addlw	-1
  1978  0AA9  1D03               	skipz
  1979  0AAA  2AA3               	goto	u1985
  1980  0AAB                     l1793:
  1981  0AAB  3001               	movlw	1
  1982  0AAC  02FD               	subwf	___lldiv@counter,f
  1983  0AAD  1D03               	btfss	3,2
  1984  0AAE  2AB0               	goto	u1991
  1985  0AAF  2AB1               	goto	u1990
  1986  0AB0                     u1991:
  1987  0AB0  2A78               	goto	l1783
  1988  0AB1                     u1990:
  1989  0AB1                     l1795:
  1990  0AB1  087C               	movf	___lldiv@quotient+3,w
  1991  0AB2  00F3               	movwf	?___lldiv+3
  1992  0AB3  087B               	movf	___lldiv@quotient+2,w
  1993  0AB4  00F2               	movwf	?___lldiv+2
  1994  0AB5  087A               	movf	___lldiv@quotient+1,w
  1995  0AB6  00F1               	movwf	?___lldiv+1
  1996  0AB7  0879               	movf	___lldiv@quotient,w
  1997  0AB8  00F0               	movwf	?___lldiv
  1998  0AB9                     l313:
  1999  0AB9  0008               	return
  2000  0ABA                     __end_of___lldiv:
  2001                           
  2002                           	psect	text4
  2003  09EE                     __ptext4:	
  2004 ;; *************** function _division *****************
  2005 ;; Defined at:
  2006 ;;		line 159 in file "main01.c"
  2007 ;; Parameters:    Size  Location     Type
  2008 ;;  dividendo       1    wreg     unsigned char 
  2009 ;; Auto vars:     Size  Location     Type
  2010 ;;  dividendo       1   12[COMMON] unsigned char 
  2011 ;; Return value:  Size  Location     Type
  2012 ;;                  1    wreg      void 
  2013 ;; Registers used:
  2014 ;;		wreg, status,2, status,0, pclath, cstack
  2015 ;; Tracked objects:
  2016 ;;		On entry : 0/0
  2017 ;;		On exit  : 0/0
  2018 ;;		Unchanged: 0/0
  2019 ;; Data sizes:     COMMON   BANK0   BANK1   BANK3   BANK2
  2020 ;;      Params:         0       0       0       0       0
  2021 ;;      Locals:         1       0       0       0       0
  2022 ;;      Temps:          3       0       0       0       0
  2023 ;;      Totals:         4       0       0       0       0
  2024 ;;Total ram usage:        4 bytes
  2025 ;; Hardware stack levels used:    1
  2026 ;; Hardware stack levels required when called:    1
  2027 ;; This function calls:
  2028 ;;		___awdiv
  2029 ;;		___awmod
  2030 ;; This function is called by:
  2031 ;;		_main
  2032 ;; This function uses a non-reentrant model
  2033 ;;
  2034                           
  2035                           
  2036                           ;psect for function _division
  2037  09EE                     _division:
  2038                           
  2039                           ;incstack = 0
  2040                           ; Regs used in _division: [wreg+status,2+status,0+pclath+cstack]
  2041                           ;division@dividendo stored from wreg
  2042  09EE  00FC               	movwf	division@dividendo
  2043  09EF                     l2023:
  2044  09EF  3064               	movlw	100
  2045  09F0  00F0               	movwf	___awdiv@divisor
  2046  09F1  3000               	movlw	0
  2047  09F2  00F1               	movwf	___awdiv@divisor+1
  2048  09F3  087C               	movf	division@dividendo,w
  2049  09F4  00F9               	movwf	??_division
  2050  09F5  01FA               	clrf	??_division+1
  2051  09F6  0879               	movf	??_division,w
  2052  09F7  00F2               	movwf	___awdiv@dividend
  2053  09F8  087A               	movf	??_division+1,w
  2054  09F9  00F3               	movwf	___awdiv@dividend+1
  2055  09FA  120A  158A  22BA  120A  158A  	fcall	___awdiv
  2056  09FF  0870               	movf	?___awdiv,w
  2057  0A00  00FB               	movwf	??_division+2
  2058  0A01  087B               	movf	??_division+2,w
  2059  0A02  1283               	bcf	3,5	;RP0=0, select bank0
  2060  0A03  1303               	bcf	3,6	;RP1=0, select bank0
  2061  0A04  00EE               	movwf	_centenas
  2062  0A05  3064               	movlw	100
  2063  0A06  00F0               	movwf	___awmod@divisor
  2064  0A07  3000               	movlw	0
  2065  0A08  00F1               	movwf	___awmod@divisor+1
  2066  0A09  087C               	movf	division@dividendo,w
  2067  0A0A  00F9               	movwf	??_division
  2068  0A0B  01FA               	clrf	??_division+1
  2069  0A0C  0879               	movf	??_division,w
  2070  0A0D  00F2               	movwf	___awmod@dividend
  2071  0A0E  087A               	movf	??_division+1,w
  2072  0A0F  00F3               	movwf	___awmod@dividend+1
  2073  0A10  120A  158A  2138  120A  158A  	fcall	___awmod
  2074  0A15  0870               	movf	?___awmod,w
  2075  0A16  00FB               	movwf	??_division+2
  2076  0A17  087B               	movf	??_division+2,w
  2077  0A18  1283               	bcf	3,5	;RP0=0, select bank0
  2078  0A19  1303               	bcf	3,6	;RP1=0, select bank0
  2079  0A1A  00ED               	movwf	_residuo
  2080  0A1B  300A               	movlw	10
  2081  0A1C  00F0               	movwf	___awdiv@divisor
  2082  0A1D  3000               	movlw	0
  2083  0A1E  00F1               	movwf	___awdiv@divisor+1
  2084  0A1F  086D               	movf	_residuo,w
  2085  0A20  00F9               	movwf	??_division
  2086  0A21  01FA               	clrf	??_division+1
  2087  0A22  0879               	movf	??_division,w
  2088  0A23  00F2               	movwf	___awdiv@dividend
  2089  0A24  087A               	movf	??_division+1,w
  2090  0A25  00F3               	movwf	___awdiv@dividend+1
  2091  0A26  120A  158A  22BA  120A  158A  	fcall	___awdiv
  2092  0A2B  0870               	movf	?___awdiv,w
  2093  0A2C  00FB               	movwf	??_division+2
  2094  0A2D  087B               	movf	??_division+2,w
  2095  0A2E  1283               	bcf	3,5	;RP0=0, select bank0
  2096  0A2F  1303               	bcf	3,6	;RP1=0, select bank0
  2097  0A30  00EC               	movwf	_decenas
  2098  0A31  300A               	movlw	10
  2099  0A32  00F0               	movwf	___awmod@divisor
  2100  0A33  3000               	movlw	0
  2101  0A34  00F1               	movwf	___awmod@divisor+1
  2102  0A35  086D               	movf	_residuo,w
  2103  0A36  00F9               	movwf	??_division
  2104  0A37  01FA               	clrf	??_division+1
  2105  0A38  0879               	movf	??_division,w
  2106  0A39  00F2               	movwf	___awmod@dividend
  2107  0A3A  087A               	movf	??_division+1,w
  2108  0A3B  00F3               	movwf	___awmod@dividend+1
  2109  0A3C  120A  158A  2138  120A  158A  	fcall	___awmod
  2110  0A41  0870               	movf	?___awmod,w
  2111  0A42  00FB               	movwf	??_division+2
  2112  0A43  087B               	movf	??_division+2,w
  2113  0A44  1283               	bcf	3,5	;RP0=0, select bank0
  2114  0A45  1303               	bcf	3,6	;RP1=0, select bank0
  2115  0A46  00EB               	movwf	_unidades
  2116  0A47                     l2025:
  2117  0A47  3030               	movlw	48
  2118  0A48  00F9               	movwf	??_division
  2119  0A49  0879               	movf	??_division,w
  2120  0A4A  07EE               	addwf	_centenas,f
  2121  0A4B                     l2027:
  2122  0A4B  3030               	movlw	48
  2123  0A4C  00F9               	movwf	??_division
  2124  0A4D  0879               	movf	??_division,w
  2125  0A4E  07EC               	addwf	_decenas,f
  2126  0A4F                     l2029:
  2127  0A4F  3030               	movlw	48
  2128  0A50  00F9               	movwf	??_division
  2129  0A51  0879               	movf	??_division,w
  2130  0A52  07EB               	addwf	_unidades,f
  2131  0A53                     l78:
  2132  0A53  0008               	return
  2133  0A54                     __end_of_division:
  2134                           
  2135                           	psect	text5
  2136  0938                     __ptext5:	
  2137 ;; *************** function ___awmod *****************
  2138 ;; Defined at:
  2139 ;;		line 5 in file "C:\Program Files\Microchip\xc8\v2.31\pic\sources\c90\common\awmod.c"
  2140 ;; Parameters:    Size  Location     Type
  2141 ;;  divisor         2    0[COMMON] int 
  2142 ;;  dividend        2    2[COMMON] int 
  2143 ;; Auto vars:     Size  Location     Type
  2144 ;;  sign            1    6[COMMON] unsigned char 
  2145 ;;  counter         1    5[COMMON] unsigned char 
  2146 ;; Return value:  Size  Location     Type
  2147 ;;                  2    0[COMMON] int 
  2148 ;; Registers used:
  2149 ;;		wreg, status,2, status,0
  2150 ;; Tracked objects:
  2151 ;;		On entry : 0/0
  2152 ;;		On exit  : 0/0
  2153 ;;		Unchanged: 0/0
  2154 ;; Data sizes:     COMMON   BANK0   BANK1   BANK3   BANK2
  2155 ;;      Params:         4       0       0       0       0
  2156 ;;      Locals:         2       0       0       0       0
  2157 ;;      Temps:          1       0       0       0       0
  2158 ;;      Totals:         7       0       0       0       0
  2159 ;;Total ram usage:        7 bytes
  2160 ;; Hardware stack levels used:    1
  2161 ;; This function calls:
  2162 ;;		Nothing
  2163 ;; This function is called by:
  2164 ;;		_division
  2165 ;; This function uses a non-reentrant model
  2166 ;;
  2167                           
  2168                           
  2169                           ;psect for function ___awmod
  2170  0938                     ___awmod:
  2171  0938                     l1889:	
  2172                           ;incstack = 0
  2173                           ; Regs used in ___awmod: [wreg+status,2+status,0]
  2174                           
  2175  0938  01F6               	clrf	___awmod@sign
  2176  0939                     l1891:
  2177  0939  1FF3               	btfss	___awmod@dividend+1,7
  2178  093A  293C               	goto	u2141
  2179  093B  293D               	goto	u2140
  2180  093C                     u2141:
  2181  093C  2944               	goto	l1897
  2182  093D                     u2140:
  2183  093D                     l1893:
  2184  093D  09F2               	comf	___awmod@dividend,f
  2185  093E  09F3               	comf	___awmod@dividend+1,f
  2186  093F  0AF2               	incf	___awmod@dividend,f
  2187  0940  1903               	skipnz
  2188  0941  0AF3               	incf	___awmod@dividend+1,f
  2189  0942                     l1895:
  2190  0942  01F6               	clrf	___awmod@sign
  2191  0943  0AF6               	incf	___awmod@sign,f
  2192  0944                     l1897:
  2193  0944  1FF1               	btfss	___awmod@divisor+1,7
  2194  0945  2947               	goto	u2151
  2195  0946  2948               	goto	u2150
  2196  0947                     u2151:
  2197  0947  294D               	goto	l1901
  2198  0948                     u2150:
  2199  0948                     l1899:
  2200  0948  09F0               	comf	___awmod@divisor,f
  2201  0949  09F1               	comf	___awmod@divisor+1,f
  2202  094A  0AF0               	incf	___awmod@divisor,f
  2203  094B  1903               	skipnz
  2204  094C  0AF1               	incf	___awmod@divisor+1,f
  2205  094D                     l1901:
  2206  094D  0870               	movf	___awmod@divisor,w
  2207  094E  0471               	iorwf	___awmod@divisor+1,w
  2208  094F  1903               	btfsc	3,2
  2209  0950  2952               	goto	u2161
  2210  0951  2953               	goto	u2160
  2211  0952                     u2161:
  2212  0952  2982               	goto	l1919
  2213  0953                     u2160:
  2214  0953                     l1903:
  2215  0953  01F5               	clrf	___awmod@counter
  2216  0954  0AF5               	incf	___awmod@counter,f
  2217  0955  2961               	goto	l1909
  2218  0956                     l1905:
  2219  0956  3001               	movlw	1
  2220  0957                     u2175:
  2221  0957  1003               	clrc
  2222  0958  0DF0               	rlf	___awmod@divisor,f
  2223  0959  0DF1               	rlf	___awmod@divisor+1,f
  2224  095A  3EFF               	addlw	-1
  2225  095B  1D03               	skipz
  2226  095C  2957               	goto	u2175
  2227  095D                     l1907:
  2228  095D  3001               	movlw	1
  2229  095E  00F4               	movwf	??___awmod
  2230  095F  0874               	movf	??___awmod,w
  2231  0960  07F5               	addwf	___awmod@counter,f
  2232  0961                     l1909:
  2233  0961  1FF1               	btfss	___awmod@divisor+1,7
  2234  0962  2964               	goto	u2181
  2235  0963  2965               	goto	u2180
  2236  0964                     u2181:
  2237  0964  2956               	goto	l1905
  2238  0965                     u2180:
  2239  0965                     l1911:
  2240  0965  0871               	movf	___awmod@divisor+1,w
  2241  0966  0273               	subwf	___awmod@dividend+1,w
  2242  0967  1D03               	skipz
  2243  0968  296B               	goto	u2195
  2244  0969  0870               	movf	___awmod@divisor,w
  2245  096A  0272               	subwf	___awmod@dividend,w
  2246  096B                     u2195:
  2247  096B  1C03               	skipc
  2248  096C  296E               	goto	u2191
  2249  096D  296F               	goto	u2190
  2250  096E                     u2191:
  2251  096E  2975               	goto	l1915
  2252  096F                     u2190:
  2253  096F                     l1913:
  2254  096F  0870               	movf	___awmod@divisor,w
  2255  0970  02F2               	subwf	___awmod@dividend,f
  2256  0971  0871               	movf	___awmod@divisor+1,w
  2257  0972  1C03               	skipc
  2258  0973  03F3               	decf	___awmod@dividend+1,f
  2259  0974  02F3               	subwf	___awmod@dividend+1,f
  2260  0975                     l1915:
  2261  0975  3001               	movlw	1
  2262  0976                     u2205:
  2263  0976  1003               	clrc
  2264  0977  0CF1               	rrf	___awmod@divisor+1,f
  2265  0978  0CF0               	rrf	___awmod@divisor,f
  2266  0979  3EFF               	addlw	-1
  2267  097A  1D03               	skipz
  2268  097B  2976               	goto	u2205
  2269  097C                     l1917:
  2270  097C  3001               	movlw	1
  2271  097D  02F5               	subwf	___awmod@counter,f
  2272  097E  1D03               	btfss	3,2
  2273  097F  2981               	goto	u2211
  2274  0980  2982               	goto	u2210
  2275  0981                     u2211:
  2276  0981  2965               	goto	l1911
  2277  0982                     u2210:
  2278  0982                     l1919:
  2279  0982  0876               	movf	___awmod@sign,w
  2280  0983  1903               	btfsc	3,2
  2281  0984  2986               	goto	u2221
  2282  0985  2987               	goto	u2220
  2283  0986                     u2221:
  2284  0986  298C               	goto	l1923
  2285  0987                     u2220:
  2286  0987                     l1921:
  2287  0987  09F2               	comf	___awmod@dividend,f
  2288  0988  09F3               	comf	___awmod@dividend+1,f
  2289  0989  0AF2               	incf	___awmod@dividend,f
  2290  098A  1903               	skipnz
  2291  098B  0AF3               	incf	___awmod@dividend+1,f
  2292  098C                     l1923:
  2293  098C  0873               	movf	___awmod@dividend+1,w
  2294  098D  00F1               	movwf	?___awmod+1
  2295  098E  0872               	movf	___awmod@dividend,w
  2296  098F  00F0               	movwf	?___awmod
  2297  0990                     l443:
  2298  0990  0008               	return
  2299  0991                     __end_of___awmod:
  2300                           
  2301                           	psect	text6
  2302  0ABA                     __ptext6:	
  2303 ;; *************** function ___awdiv *****************
  2304 ;; Defined at:
  2305 ;;		line 5 in file "C:\Program Files\Microchip\xc8\v2.31\pic\sources\c90\common\awdiv.c"
  2306 ;; Parameters:    Size  Location     Type
  2307 ;;  divisor         2    0[COMMON] int 
  2308 ;;  dividend        2    2[COMMON] int 
  2309 ;; Auto vars:     Size  Location     Type
  2310 ;;  quotient        2    7[COMMON] int 
  2311 ;;  sign            1    6[COMMON] unsigned char 
  2312 ;;  counter         1    5[COMMON] unsigned char 
  2313 ;; Return value:  Size  Location     Type
  2314 ;;                  2    0[COMMON] int 
  2315 ;; Registers used:
  2316 ;;		wreg, status,2, status,0
  2317 ;; Tracked objects:
  2318 ;;		On entry : 0/0
  2319 ;;		On exit  : 0/0
  2320 ;;		Unchanged: 0/0
  2321 ;; Data sizes:     COMMON   BANK0   BANK1   BANK3   BANK2
  2322 ;;      Params:         4       0       0       0       0
  2323 ;;      Locals:         4       0       0       0       0
  2324 ;;      Temps:          1       0       0       0       0
  2325 ;;      Totals:         9       0       0       0       0
  2326 ;;Total ram usage:        9 bytes
  2327 ;; Hardware stack levels used:    1
  2328 ;; This function calls:
  2329 ;;		Nothing
  2330 ;; This function is called by:
  2331 ;;		_division
  2332 ;; This function uses a non-reentrant model
  2333 ;;
  2334                           
  2335                           
  2336                           ;psect for function ___awdiv
  2337  0ABA                     ___awdiv:
  2338  0ABA                     l1845:	
  2339                           ;incstack = 0
  2340                           ; Regs used in ___awdiv: [wreg+status,2+status,0]
  2341                           
  2342  0ABA  01F6               	clrf	___awdiv@sign
  2343  0ABB                     l1847:
  2344  0ABB  1FF1               	btfss	___awdiv@divisor+1,7
  2345  0ABC  2ABE               	goto	u2041
  2346  0ABD  2ABF               	goto	u2040
  2347  0ABE                     u2041:
  2348  0ABE  2AC6               	goto	l1853
  2349  0ABF                     u2040:
  2350  0ABF                     l1849:
  2351  0ABF  09F0               	comf	___awdiv@divisor,f
  2352  0AC0  09F1               	comf	___awdiv@divisor+1,f
  2353  0AC1  0AF0               	incf	___awdiv@divisor,f
  2354  0AC2  1903               	skipnz
  2355  0AC3  0AF1               	incf	___awdiv@divisor+1,f
  2356  0AC4                     l1851:
  2357  0AC4  01F6               	clrf	___awdiv@sign
  2358  0AC5  0AF6               	incf	___awdiv@sign,f
  2359  0AC6                     l1853:
  2360  0AC6  1FF3               	btfss	___awdiv@dividend+1,7
  2361  0AC7  2AC9               	goto	u2051
  2362  0AC8  2ACA               	goto	u2050
  2363  0AC9                     u2051:
  2364  0AC9  2AD3               	goto	l1859
  2365  0ACA                     u2050:
  2366  0ACA                     l1855:
  2367  0ACA  09F2               	comf	___awdiv@dividend,f
  2368  0ACB  09F3               	comf	___awdiv@dividend+1,f
  2369  0ACC  0AF2               	incf	___awdiv@dividend,f
  2370  0ACD  1903               	skipnz
  2371  0ACE  0AF3               	incf	___awdiv@dividend+1,f
  2372  0ACF                     l1857:
  2373  0ACF  3001               	movlw	1
  2374  0AD0  00F4               	movwf	??___awdiv
  2375  0AD1  0874               	movf	??___awdiv,w
  2376  0AD2  06F6               	xorwf	___awdiv@sign,f
  2377  0AD3                     l1859:
  2378  0AD3  01F7               	clrf	___awdiv@quotient
  2379  0AD4  01F8               	clrf	___awdiv@quotient+1
  2380  0AD5                     l1861:
  2381  0AD5  0870               	movf	___awdiv@divisor,w
  2382  0AD6  0471               	iorwf	___awdiv@divisor+1,w
  2383  0AD7  1903               	btfsc	3,2
  2384  0AD8  2ADA               	goto	u2061
  2385  0AD9  2ADB               	goto	u2060
  2386  0ADA                     u2061:
  2387  0ADA  2B12               	goto	l1881
  2388  0ADB                     u2060:
  2389  0ADB                     l1863:
  2390  0ADB  01F5               	clrf	___awdiv@counter
  2391  0ADC  0AF5               	incf	___awdiv@counter,f
  2392  0ADD  2AE9               	goto	l1869
  2393  0ADE                     l1865:
  2394  0ADE  3001               	movlw	1
  2395  0ADF                     u2075:
  2396  0ADF  1003               	clrc
  2397  0AE0  0DF0               	rlf	___awdiv@divisor,f
  2398  0AE1  0DF1               	rlf	___awdiv@divisor+1,f
  2399  0AE2  3EFF               	addlw	-1
  2400  0AE3  1D03               	skipz
  2401  0AE4  2ADF               	goto	u2075
  2402  0AE5                     l1867:
  2403  0AE5  3001               	movlw	1
  2404  0AE6  00F4               	movwf	??___awdiv
  2405  0AE7  0874               	movf	??___awdiv,w
  2406  0AE8  07F5               	addwf	___awdiv@counter,f
  2407  0AE9                     l1869:
  2408  0AE9  1FF1               	btfss	___awdiv@divisor+1,7
  2409  0AEA  2AEC               	goto	u2081
  2410  0AEB  2AED               	goto	u2080
  2411  0AEC                     u2081:
  2412  0AEC  2ADE               	goto	l1865
  2413  0AED                     u2080:
  2414  0AED                     l1871:
  2415  0AED  3001               	movlw	1
  2416  0AEE                     u2095:
  2417  0AEE  1003               	clrc
  2418  0AEF  0DF7               	rlf	___awdiv@quotient,f
  2419  0AF0  0DF8               	rlf	___awdiv@quotient+1,f
  2420  0AF1  3EFF               	addlw	-1
  2421  0AF2  1D03               	skipz
  2422  0AF3  2AEE               	goto	u2095
  2423  0AF4  0871               	movf	___awdiv@divisor+1,w
  2424  0AF5  0273               	subwf	___awdiv@dividend+1,w
  2425  0AF6  1D03               	skipz
  2426  0AF7  2AFA               	goto	u2105
  2427  0AF8  0870               	movf	___awdiv@divisor,w
  2428  0AF9  0272               	subwf	___awdiv@dividend,w
  2429  0AFA                     u2105:
  2430  0AFA  1C03               	skipc
  2431  0AFB  2AFD               	goto	u2101
  2432  0AFC  2AFE               	goto	u2100
  2433  0AFD                     u2101:
  2434  0AFD  2B05               	goto	l1877
  2435  0AFE                     u2100:
  2436  0AFE                     l1873:
  2437  0AFE  0870               	movf	___awdiv@divisor,w
  2438  0AFF  02F2               	subwf	___awdiv@dividend,f
  2439  0B00  0871               	movf	___awdiv@divisor+1,w
  2440  0B01  1C03               	skipc
  2441  0B02  03F3               	decf	___awdiv@dividend+1,f
  2442  0B03  02F3               	subwf	___awdiv@dividend+1,f
  2443  0B04                     l1875:
  2444  0B04  1477               	bsf	___awdiv@quotient,0
  2445  0B05                     l1877:
  2446  0B05  3001               	movlw	1
  2447  0B06                     u2115:
  2448  0B06  1003               	clrc
  2449  0B07  0CF1               	rrf	___awdiv@divisor+1,f
  2450  0B08  0CF0               	rrf	___awdiv@divisor,f
  2451  0B09  3EFF               	addlw	-1
  2452  0B0A  1D03               	skipz
  2453  0B0B  2B06               	goto	u2115
  2454  0B0C                     l1879:
  2455  0B0C  3001               	movlw	1
  2456  0B0D  02F5               	subwf	___awdiv@counter,f
  2457  0B0E  1D03               	btfss	3,2
  2458  0B0F  2B11               	goto	u2121
  2459  0B10  2B12               	goto	u2120
  2460  0B11                     u2121:
  2461  0B11  2AED               	goto	l1871
  2462  0B12                     u2120:
  2463  0B12                     l1881:
  2464  0B12  0876               	movf	___awdiv@sign,w
  2465  0B13  1903               	btfsc	3,2
  2466  0B14  2B16               	goto	u2131
  2467  0B15  2B17               	goto	u2130
  2468  0B16                     u2131:
  2469  0B16  2B1C               	goto	l1885
  2470  0B17                     u2130:
  2471  0B17                     l1883:
  2472  0B17  09F7               	comf	___awdiv@quotient,f
  2473  0B18  09F8               	comf	___awdiv@quotient+1,f
  2474  0B19  0AF7               	incf	___awdiv@quotient,f
  2475  0B1A  1903               	skipnz
  2476  0B1B  0AF8               	incf	___awdiv@quotient+1,f
  2477  0B1C                     l1885:
  2478  0B1C  0878               	movf	___awdiv@quotient+1,w
  2479  0B1D  00F1               	movwf	?___awdiv+1
  2480  0B1E  0877               	movf	___awdiv@quotient,w
  2481  0B1F  00F0               	movwf	?___awdiv
  2482  0B20                     l430:
  2483  0B20  0008               	return
  2484  0B21                     __end_of___awdiv:
  2485                           
  2486                           	psect	text7
  2487  00D7                     __ptext7:	
  2488 ;; *************** function ___xxtofl *****************
  2489 ;; Defined at:
  2490 ;;		line 10 in file "C:\Program Files\Microchip\xc8\v2.31\pic\sources\c90\common\xxtofl.c"
  2491 ;; Parameters:    Size  Location     Type
  2492 ;;  sign            1    wreg     unsigned char 
  2493 ;;  val             4    0[COMMON] long 
  2494 ;; Auto vars:     Size  Location     Type
  2495 ;;  sign            1    8[COMMON] unsigned char 
  2496 ;;  arg             4   10[COMMON] unsigned long 
  2497 ;;  exp             1    9[COMMON] unsigned char 
  2498 ;; Return value:  Size  Location     Type
  2499 ;;                  4    0[COMMON] unsigned char 
  2500 ;; Registers used:
  2501 ;;		wreg, status,2, status,0
  2502 ;; Tracked objects:
  2503 ;;		On entry : 0/0
  2504 ;;		On exit  : 0/0
  2505 ;;		Unchanged: 0/0
  2506 ;; Data sizes:     COMMON   BANK0   BANK1   BANK3   BANK2
  2507 ;;      Params:         4       0       0       0       0
  2508 ;;      Locals:         6       0       0       0       0
  2509 ;;      Temps:          4       0       0       0       0
  2510 ;;      Totals:        14       0       0       0       0
  2511 ;;Total ram usage:       14 bytes
  2512 ;; Hardware stack levels used:    1
  2513 ;; This function calls:
  2514 ;;		Nothing
  2515 ;; This function is called by:
  2516 ;;		_main
  2517 ;; This function uses a non-reentrant model
  2518 ;;
  2519                           
  2520                           
  2521                           ;psect for function ___xxtofl
  2522  00D7                     ___xxtofl:
  2523                           
  2524                           ;incstack = 0
  2525                           ; Regs used in ___xxtofl: [wreg+status,2+status,0]
  2526                           ;___xxtofl@sign stored from wreg
  2527  00D7  00F8               	movwf	___xxtofl@sign
  2528  00D8                     l2565:
  2529  00D8  0878               	movf	___xxtofl@sign,w
  2530  00D9  1903               	btfsc	3,2
  2531  00DA  28DC               	goto	u3611
  2532  00DB  28DD               	goto	u3610
  2533  00DC                     u3611:
  2534  00DC  28F1               	goto	l2571
  2535  00DD                     u3610:
  2536  00DD                     l2567:
  2537  00DD  1FF3               	btfss	___xxtofl@val+3,7
  2538  00DE  28E0               	goto	u3621
  2539  00DF  28E1               	goto	u3620
  2540  00E0                     u3621:
  2541  00E0  28F1               	goto	l2571
  2542  00E1                     u3620:
  2543  00E1                     l2569:
  2544  00E1  0970               	comf	___xxtofl@val,w
  2545  00E2  00FA               	movwf	___xxtofl@arg
  2546  00E3  0971               	comf	___xxtofl@val+1,w
  2547  00E4  00FB               	movwf	___xxtofl@arg+1
  2548  00E5  0972               	comf	___xxtofl@val+2,w
  2549  00E6  00FC               	movwf	___xxtofl@arg+2
  2550  00E7  0973               	comf	___xxtofl@val+3,w
  2551  00E8  00FD               	movwf	___xxtofl@arg+3
  2552  00E9  0AFA               	incf	___xxtofl@arg,f
  2553  00EA  1903               	skipnz
  2554  00EB  0AFB               	incf	___xxtofl@arg+1,f
  2555  00EC  1903               	skipnz
  2556  00ED  0AFC               	incf	___xxtofl@arg+2,f
  2557  00EE  1903               	skipnz
  2558  00EF  0AFD               	incf	___xxtofl@arg+3,f
  2559  00F0  28F9               	goto	l710
  2560  00F1                     l2571:
  2561  00F1  0873               	movf	___xxtofl@val+3,w
  2562  00F2  00FD               	movwf	___xxtofl@arg+3
  2563  00F3  0872               	movf	___xxtofl@val+2,w
  2564  00F4  00FC               	movwf	___xxtofl@arg+2
  2565  00F5  0871               	movf	___xxtofl@val+1,w
  2566  00F6  00FB               	movwf	___xxtofl@arg+1
  2567  00F7  0870               	movf	___xxtofl@val,w
  2568  00F8  00FA               	movwf	___xxtofl@arg
  2569  00F9                     l710:
  2570  00F9  0873               	movf	___xxtofl@val+3,w
  2571  00FA  0472               	iorwf	___xxtofl@val+2,w
  2572  00FB  0471               	iorwf	___xxtofl@val+1,w
  2573  00FC  0470               	iorwf	___xxtofl@val,w
  2574  00FD  1D03               	skipz
  2575  00FE  2900               	goto	u3631
  2576  00FF  2901               	goto	u3630
  2577  0100                     u3631:
  2578  0100  290A               	goto	l2577
  2579  0101                     u3630:
  2580  0101                     l2573:
  2581  0101  3000               	movlw	0
  2582  0102  00F3               	movwf	?___xxtofl+3
  2583  0103  3000               	movlw	0
  2584  0104  00F2               	movwf	?___xxtofl+2
  2585  0105  3000               	movlw	0
  2586  0106  00F1               	movwf	?___xxtofl+1
  2587  0107  3000               	movlw	0
  2588  0108  00F0               	movwf	?___xxtofl
  2589  0109  2990               	goto	l712
  2590  010A                     l2577:
  2591  010A  3096               	movlw	150
  2592  010B  00F4               	movwf	??___xxtofl
  2593  010C  0874               	movf	??___xxtofl,w
  2594  010D  00F9               	movwf	___xxtofl@exp
  2595  010E  291C               	goto	l2581
  2596  010F                     l2579:
  2597  010F  3001               	movlw	1
  2598  0110  00F4               	movwf	??___xxtofl
  2599  0111  0874               	movf	??___xxtofl,w
  2600  0112  07F9               	addwf	___xxtofl@exp,f
  2601  0113  3001               	movlw	1
  2602  0114                     u3645:
  2603  0114  1003               	clrc
  2604  0115  0CFD               	rrf	___xxtofl@arg+3,f
  2605  0116  0CFC               	rrf	___xxtofl@arg+2,f
  2606  0117  0CFB               	rrf	___xxtofl@arg+1,f
  2607  0118  0CFA               	rrf	___xxtofl@arg,f
  2608  0119  3EFF               	addlw	-1
  2609  011A  1D03               	skipz
  2610  011B  2914               	goto	u3645
  2611  011C                     l2581:
  2612  011C  30FE               	movlw	254
  2613  011D  057D               	andwf	___xxtofl@arg+3,w
  2614  011E  1D03               	btfss	3,2
  2615  011F  2921               	goto	u3651
  2616  0120  2922               	goto	u3650
  2617  0121                     u3651:
  2618  0121  290F               	goto	l2579
  2619  0122                     u3650:
  2620  0122  293E               	goto	l716
  2621  0123                     l2583:
  2622  0123  3001               	movlw	1
  2623  0124  00F4               	movwf	??___xxtofl
  2624  0125  0874               	movf	??___xxtofl,w
  2625  0126  07F9               	addwf	___xxtofl@exp,f
  2626  0127                     l2585:
  2627  0127  3001               	movlw	1
  2628  0128  07FA               	addwf	___xxtofl@arg,f
  2629  0129  3000               	movlw	0
  2630  012A  1803               	skipnc
  2631  012B  3001               	movlw	1
  2632  012C  07FB               	addwf	___xxtofl@arg+1,f
  2633  012D  3000               	movlw	0
  2634  012E  1803               	skipnc
  2635  012F  3001               	movlw	1
  2636  0130  07FC               	addwf	___xxtofl@arg+2,f
  2637  0131  3000               	movlw	0
  2638  0132  1803               	skipnc
  2639  0133  3001               	movlw	1
  2640  0134  07FD               	addwf	___xxtofl@arg+3,f
  2641  0135                     l2587:
  2642  0135  3001               	movlw	1
  2643  0136                     u3665:
  2644  0136  1003               	clrc
  2645  0137  0CFD               	rrf	___xxtofl@arg+3,f
  2646  0138  0CFC               	rrf	___xxtofl@arg+2,f
  2647  0139  0CFB               	rrf	___xxtofl@arg+1,f
  2648  013A  0CFA               	rrf	___xxtofl@arg,f
  2649  013B  3EFF               	addlw	-1
  2650  013C  1D03               	skipz
  2651  013D  2936               	goto	u3665
  2652  013E                     l716:
  2653  013E  30FF               	movlw	255
  2654  013F  057D               	andwf	___xxtofl@arg+3,w
  2655  0140  1D03               	btfss	3,2
  2656  0141  2943               	goto	u3671
  2657  0142  2944               	goto	u3670
  2658  0143                     u3671:
  2659  0143  2923               	goto	l2583
  2660  0144                     u3670:
  2661  0144  2950               	goto	l2591
  2662  0145                     l2589:
  2663  0145  3001               	movlw	1
  2664  0146  02F9               	subwf	___xxtofl@exp,f
  2665  0147  3001               	movlw	1
  2666  0148  00F4               	movwf	??___xxtofl
  2667  0149                     u3685:
  2668  0149  1003               	clrc
  2669  014A  0DFA               	rlf	___xxtofl@arg,f
  2670  014B  0DFB               	rlf	___xxtofl@arg+1,f
  2671  014C  0DFC               	rlf	___xxtofl@arg+2,f
  2672  014D  0DFD               	rlf	___xxtofl@arg+3,f
  2673  014E  0BF4               	decfsz	??___xxtofl,f
  2674  014F  2949               	goto	u3685
  2675  0150                     l2591:
  2676  0150  1BFC               	btfsc	___xxtofl@arg+2,7
  2677  0151  2953               	goto	u3691
  2678  0152  2954               	goto	u3690
  2679  0153                     u3691:
  2680  0153  295A               	goto	l723
  2681  0154                     u3690:
  2682  0154                     l2593:
  2683  0154  3002               	movlw	2
  2684  0155  0279               	subwf	___xxtofl@exp,w
  2685  0156  1803               	skipnc
  2686  0157  2959               	goto	u3701
  2687  0158  295A               	goto	u3700
  2688  0159                     u3701:
  2689  0159  2945               	goto	l2589
  2690  015A                     u3700:
  2691  015A                     l723:
  2692  015A  1879               	btfsc	___xxtofl@exp,0
  2693  015B  295D               	goto	u3711
  2694  015C  295E               	goto	u3710
  2695  015D                     u3711:
  2696  015D  2966               	goto	l724
  2697  015E                     u3710:
  2698  015E                     l2595:
  2699  015E  30FF               	movlw	255
  2700  015F  05FA               	andwf	___xxtofl@arg,f
  2701  0160  30FF               	movlw	255
  2702  0161  05FB               	andwf	___xxtofl@arg+1,f
  2703  0162  307F               	movlw	127
  2704  0163  05FC               	andwf	___xxtofl@arg+2,f
  2705  0164  30FF               	movlw	255
  2706  0165  05FD               	andwf	___xxtofl@arg+3,f
  2707  0166                     l724:
  2708  0166  1003               	clrc
  2709  0167  0CF9               	rrf	___xxtofl@exp,f
  2710  0168                     l2597:
  2711  0168  0879               	movf	___xxtofl@exp,w
  2712  0169  00F4               	movwf	??___xxtofl
  2713  016A  01F5               	clrf	??___xxtofl+1
  2714  016B  01F6               	clrf	??___xxtofl+2
  2715  016C  01F7               	clrf	??___xxtofl+3
  2716  016D  3018               	movlw	24
  2717  016E                     u3725:
  2718  016E  1003               	clrc
  2719  016F  0DF4               	rlf	??___xxtofl,f
  2720  0170  0DF5               	rlf	??___xxtofl+1,f
  2721  0171  0DF6               	rlf	??___xxtofl+2,f
  2722  0172  0DF7               	rlf	??___xxtofl+3,f
  2723  0173                     u3720:
  2724  0173  3EFF               	addlw	-1
  2725  0174  1D03               	skipz
  2726  0175  296E               	goto	u3725
  2727  0176  0874               	movf	??___xxtofl,w
  2728  0177  04FA               	iorwf	___xxtofl@arg,f
  2729  0178  0875               	movf	??___xxtofl+1,w
  2730  0179  04FB               	iorwf	___xxtofl@arg+1,f
  2731  017A  0876               	movf	??___xxtofl+2,w
  2732  017B  04FC               	iorwf	___xxtofl@arg+2,f
  2733  017C  0877               	movf	??___xxtofl+3,w
  2734  017D  04FD               	iorwf	___xxtofl@arg+3,f
  2735  017E                     l2599:
  2736  017E  0878               	movf	___xxtofl@sign,w
  2737  017F  1903               	btfsc	3,2
  2738  0180  2982               	goto	u3731
  2739  0181  2983               	goto	u3730
  2740  0182                     u3731:
  2741  0182  2988               	goto	l2605
  2742  0183                     u3730:
  2743  0183                     l2601:
  2744  0183  1FF3               	btfss	___xxtofl@val+3,7
  2745  0184  2986               	goto	u3741
  2746  0185  2987               	goto	u3740
  2747  0186                     u3741:
  2748  0186  2988               	goto	l2605
  2749  0187                     u3740:
  2750  0187                     l2603:
  2751  0187  17FD               	bsf	___xxtofl@arg+3,7
  2752  0188                     l2605:
  2753  0188  087D               	movf	___xxtofl@arg+3,w
  2754  0189  00F3               	movwf	?___xxtofl+3
  2755  018A  087C               	movf	___xxtofl@arg+2,w
  2756  018B  00F2               	movwf	?___xxtofl+2
  2757  018C  087B               	movf	___xxtofl@arg+1,w
  2758  018D  00F1               	movwf	?___xxtofl+1
  2759  018E  087A               	movf	___xxtofl@arg,w
  2760  018F  00F0               	movwf	?___xxtofl
  2761  0190                     l712:
  2762  0190  0008               	return
  2763  0191                     __end_of___xxtofl:
  2764                           
  2765                           	psect	text8
  2766  0B21                     __ptext8:	
  2767 ;; *************** function ___fltol *****************
  2768 ;; Defined at:
  2769 ;;		line 43 in file "C:\Program Files\Microchip\xc8\v2.31\pic\sources\c90\common\fltol.c"
  2770 ;; Parameters:    Size  Location     Type
  2771 ;;  f1              4    0[COMMON] unsigned char 
  2772 ;; Auto vars:     Size  Location     Type
  2773 ;;  exp1            1   10[COMMON] unsigned char 
  2774 ;;  sign1           1    9[COMMON] unsigned char 
  2775 ;; Return value:  Size  Location     Type
  2776 ;;                  4    0[COMMON] long 
  2777 ;; Registers used:
  2778 ;;		wreg, status,2, status,0
  2779 ;; Tracked objects:
  2780 ;;		On entry : 0/0
  2781 ;;		On exit  : 0/0
  2782 ;;		Unchanged: 0/0
  2783 ;; Data sizes:     COMMON   BANK0   BANK1   BANK3   BANK2
  2784 ;;      Params:         4       0       0       0       0
  2785 ;;      Locals:         2       0       0       0       0
  2786 ;;      Temps:          5       0       0       0       0
  2787 ;;      Totals:        11       0       0       0       0
  2788 ;;Total ram usage:       11 bytes
  2789 ;; Hardware stack levels used:    1
  2790 ;; This function calls:
  2791 ;;		Nothing
  2792 ;; This function is called by:
  2793 ;;		_main
  2794 ;; This function uses a non-reentrant model
  2795 ;;
  2796                           
  2797                           
  2798                           ;psect for function ___fltol
  2799  0B21                     ___fltol:
  2800  0B21                     l2053:	
  2801                           ;incstack = 0
  2802                           ; Regs used in ___fltol: [wreg+status,2+status,0]
  2803                           
  2804  0B21  1003               	clrc
  2805  0B22  0D72               	rlf	___fltol@f1+2,w
  2806  0B23  0D73               	rlf	___fltol@f1+3,w
  2807  0B24  00F4               	movwf	??___fltol
  2808  0B25  0874               	movf	??___fltol,w
  2809  0B26  00FA               	movwf	___fltol@exp1
  2810  0B27  087A               	movf	___fltol@exp1,w
  2811  0B28  1D03               	btfss	3,2
  2812  0B29  2B2B               	goto	u2391
  2813  0B2A  2B2C               	goto	u2390
  2814  0B2B                     u2391:
  2815  0B2B  2B35               	goto	l2059
  2816  0B2C                     u2390:
  2817  0B2C                     l2055:
  2818  0B2C  3000               	movlw	0
  2819  0B2D  00F3               	movwf	?___fltol+3
  2820  0B2E  3000               	movlw	0
  2821  0B2F  00F2               	movwf	?___fltol+2
  2822  0B30  3000               	movlw	0
  2823  0B31  00F1               	movwf	?___fltol+1
  2824  0B32  3000               	movlw	0
  2825  0B33  00F0               	movwf	?___fltol
  2826  0B34  2B9A               	goto	l463
  2827  0B35                     l2059:
  2828  0B35  0870               	movf	___fltol@f1,w
  2829  0B36  00F4               	movwf	??___fltol
  2830  0B37  0871               	movf	___fltol@f1+1,w
  2831  0B38  00F5               	movwf	??___fltol+1
  2832  0B39  0872               	movf	___fltol@f1+2,w
  2833  0B3A  00F6               	movwf	??___fltol+2
  2834  0B3B  0873               	movf	___fltol@f1+3,w
  2835  0B3C  00F7               	movwf	??___fltol+3
  2836  0B3D  301F               	movlw	31
  2837  0B3E                     u2405:
  2838  0B3E  1003               	clrc
  2839  0B3F  0CF7               	rrf	??___fltol+3,f
  2840  0B40  0CF6               	rrf	??___fltol+2,f
  2841  0B41  0CF5               	rrf	??___fltol+1,f
  2842  0B42  0CF4               	rrf	??___fltol,f
  2843  0B43                     u2400:
  2844  0B43  3EFF               	addlw	-1
  2845  0B44  1D03               	skipz
  2846  0B45  2B3E               	goto	u2405
  2847  0B46  0874               	movf	??___fltol,w
  2848  0B47  00F8               	movwf	??___fltol+4
  2849  0B48  0878               	movf	??___fltol+4,w
  2850  0B49  00F9               	movwf	___fltol@sign1
  2851  0B4A                     l2061:
  2852  0B4A  17F2               	bsf	___fltol@f1+2,7
  2853  0B4B                     l2063:
  2854  0B4B  30FF               	movlw	255
  2855  0B4C  05F0               	andwf	___fltol@f1,f
  2856  0B4D  30FF               	movlw	255
  2857  0B4E  05F1               	andwf	___fltol@f1+1,f
  2858  0B4F  30FF               	movlw	255
  2859  0B50  05F2               	andwf	___fltol@f1+2,f
  2860  0B51  3000               	movlw	0
  2861  0B52  05F3               	andwf	___fltol@f1+3,f
  2862  0B53                     l2065:
  2863  0B53  3096               	movlw	150
  2864  0B54  02FA               	subwf	___fltol@exp1,f
  2865  0B55                     l2067:
  2866  0B55  1FFA               	btfss	___fltol@exp1,7
  2867  0B56  2B58               	goto	u2411
  2868  0B57  2B59               	goto	u2410
  2869  0B58                     u2411:
  2870  0B58  2B73               	goto	l2077
  2871  0B59                     u2410:
  2872  0B59                     l2069:
  2873  0B59  087A               	movf	___fltol@exp1,w
  2874  0B5A  3A80               	xorlw	128
  2875  0B5B  3E97               	addlw	151
  2876  0B5C  1803               	skipnc
  2877  0B5D  2B5F               	goto	u2421
  2878  0B5E  2B60               	goto	u2420
  2879  0B5F                     u2421:
  2880  0B5F  2B61               	goto	l2075
  2881  0B60                     u2420:
  2882  0B60  2B2C               	goto	l2055
  2883  0B61                     l2075:
  2884  0B61  3001               	movlw	1
  2885  0B62                     u2435:
  2886  0B62  1003               	clrc
  2887  0B63  0CF3               	rrf	___fltol@f1+3,f
  2888  0B64  0CF2               	rrf	___fltol@f1+2,f
  2889  0B65  0CF1               	rrf	___fltol@f1+1,f
  2890  0B66  0CF0               	rrf	___fltol@f1,f
  2891  0B67  3EFF               	addlw	-1
  2892  0B68  1D03               	skipz
  2893  0B69  2B62               	goto	u2435
  2894  0B6A  3001               	movlw	1
  2895  0B6B  00F4               	movwf	??___fltol
  2896  0B6C  0874               	movf	??___fltol,w
  2897  0B6D  07FA               	addwf	___fltol@exp1,f
  2898  0B6E  1D03               	btfss	3,2
  2899  0B6F  2B71               	goto	u2441
  2900  0B70  2B72               	goto	u2440
  2901  0B71                     u2441:
  2902  0B71  2B61               	goto	l2075
  2903  0B72                     u2440:
  2904  0B72  2B8A               	goto	l2085
  2905  0B73                     l2077:
  2906  0B73  3020               	movlw	32
  2907  0B74  027A               	subwf	___fltol@exp1,w
  2908  0B75  1C03               	skipc
  2909  0B76  2B78               	goto	u2451
  2910  0B77  2B79               	goto	u2450
  2911  0B78                     u2451:
  2912  0B78  2B85               	goto	l470
  2913  0B79                     u2450:
  2914  0B79  2B2C               	goto	l2055
  2915  0B7A                     l2083:
  2916  0B7A  3001               	movlw	1
  2917  0B7B  00F4               	movwf	??___fltol
  2918  0B7C                     u2465:
  2919  0B7C  1003               	clrc
  2920  0B7D  0DF0               	rlf	___fltol@f1,f
  2921  0B7E  0DF1               	rlf	___fltol@f1+1,f
  2922  0B7F  0DF2               	rlf	___fltol@f1+2,f
  2923  0B80  0DF3               	rlf	___fltol@f1+3,f
  2924  0B81  0BF4               	decfsz	??___fltol,f
  2925  0B82  2B7C               	goto	u2465
  2926  0B83  3001               	movlw	1
  2927  0B84  02FA               	subwf	___fltol@exp1,f
  2928  0B85                     l470:
  2929  0B85  087A               	movf	___fltol@exp1,w
  2930  0B86  1D03               	btfss	3,2
  2931  0B87  2B89               	goto	u2471
  2932  0B88  2B8A               	goto	u2470
  2933  0B89                     u2471:
  2934  0B89  2B7A               	goto	l2083
  2935  0B8A                     u2470:
  2936  0B8A                     l2085:
  2937  0B8A  0879               	movf	___fltol@sign1,w
  2938  0B8B  1903               	btfsc	3,2
  2939  0B8C  2B8E               	goto	u2481
  2940  0B8D  2B8F               	goto	u2480
  2941  0B8E                     u2481:
  2942  0B8E  2B9A               	goto	l473
  2943  0B8F                     u2480:
  2944  0B8F                     l2087:
  2945  0B8F  09F0               	comf	___fltol@f1,f
  2946  0B90  09F1               	comf	___fltol@f1+1,f
  2947  0B91  09F2               	comf	___fltol@f1+2,f
  2948  0B92  09F3               	comf	___fltol@f1+3,f
  2949  0B93  0AF0               	incf	___fltol@f1,f
  2950  0B94  1903               	skipnz
  2951  0B95  0AF1               	incf	___fltol@f1+1,f
  2952  0B96  1903               	skipnz
  2953  0B97  0AF2               	incf	___fltol@f1+2,f
  2954  0B98  1903               	skipnz
  2955  0B99  0AF3               	incf	___fltol@f1+3,f
  2956  0B9A                     l473:
  2957  0B9A                     l463:
  2958  0B9A  0008               	return
  2959  0B9B                     __end_of___fltol:
  2960                           
  2961                           	psect	text9
  2962  0489                     __ptext9:	
  2963 ;; *************** function ___flmul *****************
  2964 ;; Defined at:
  2965 ;;		line 8 in file "C:\Program Files\Microchip\xc8\v2.31\pic\sources\c90\common\sprcmul.c"
  2966 ;; Parameters:    Size  Location     Type
  2967 ;;  b               4    0[BANK0 ] long 
  2968 ;;  a               4    4[BANK0 ] long 
  2969 ;; Auto vars:     Size  Location     Type
  2970 ;;  prod            4   20[BANK0 ] struct .
  2971 ;;  grs             4   14[BANK0 ] unsigned long 
  2972 ;;  temp            2   24[BANK0 ] struct .
  2973 ;;  bexp            1   19[BANK0 ] unsigned char 
  2974 ;;  aexp            1   18[BANK0 ] unsigned char 
  2975 ;;  sign            1   13[BANK0 ] unsigned char 
  2976 ;; Return value:  Size  Location     Type
  2977 ;;                  4    0[BANK0 ] unsigned char 
  2978 ;; Registers used:
  2979 ;;		wreg, status,2, status,0, btemp+1, pclath, cstack
  2980 ;; Tracked objects:
  2981 ;;		On entry : 0/0
  2982 ;;		On exit  : 0/0
  2983 ;;		Unchanged: 0/0
  2984 ;; Data sizes:     COMMON   BANK0   BANK1   BANK3   BANK2
  2985 ;;      Params:         0       8       0       0       0
  2986 ;;      Locals:         0      13       0       0       0
  2987 ;;      Temps:          0       5       0       0       0
  2988 ;;      Totals:         0      26       0       0       0
  2989 ;;Total ram usage:       26 bytes
  2990 ;; Hardware stack levels used:    1
  2991 ;; Hardware stack levels required when called:    1
  2992 ;; This function calls:
  2993 ;;		__Umul8_16
  2994 ;; This function is called by:
  2995 ;;		_main
  2996 ;; This function uses a non-reentrant model
  2997 ;;
  2998                           
  2999                           
  3000                           ;psect for function ___flmul
  3001  0489                     ___flmul:
  3002  0489                     l2425:	
  3003                           ;incstack = 0
  3004                           ; Regs used in ___flmul: [wreg+status,2+status,0+btemp+1+pclath+cstack]
  3005                           
  3006  0489  1283               	bcf	3,5	;RP0=0, select bank0
  3007  048A  1303               	bcf	3,6	;RP1=0, select bank0
  3008  048B  0823               	movf	___flmul@b+3,w
  3009  048C  3980               	andlw	128
  3010  048D  00A8               	movwf	??___flmul
  3011  048E  0828               	movf	??___flmul,w
  3012  048F  00AD               	movwf	___flmul@sign
  3013  0490                     l2427:
  3014  0490  0823               	movf	___flmul@b+3,w
  3015  0491  00A8               	movwf	??___flmul
  3016  0492  0728               	addwf	??___flmul,w
  3017  0493  00A9               	movwf	??___flmul+1
  3018  0494  0829               	movf	??___flmul+1,w
  3019  0495  00B3               	movwf	___flmul@bexp
  3020  0496                     l2429:
  3021  0496  1FA2               	btfss	___flmul@b+2,7
  3022  0497  2C99               	goto	u3241
  3023  0498  2C9A               	goto	u3240
  3024  0499                     u3241:
  3025  0499  2C9B               	goto	l2433
  3026  049A                     u3240:
  3027  049A                     l2431:
  3028  049A  1433               	bsf	___flmul@bexp,0
  3029  049B                     l2433:
  3030  049B  0833               	movf	___flmul@bexp,w
  3031  049C  1903               	btfsc	3,2
  3032  049D  2C9F               	goto	u3251
  3033  049E  2CA0               	goto	u3250
  3034  049F                     u3251:
  3035  049F  2CAF               	goto	l2441
  3036  04A0                     u3250:
  3037  04A0                     l2435:
  3038  04A0  0A33               	incf	___flmul@bexp,w
  3039  04A1  1D03               	btfss	3,2
  3040  04A2  2CA4               	goto	u3261
  3041  04A3  2CA5               	goto	u3260
  3042  04A4                     u3261:
  3043  04A4  2CAD               	goto	l2439
  3044  04A5                     u3260:
  3045  04A5                     l2437:
  3046  04A5  3000               	movlw	0
  3047  04A6  00A3               	movwf	___flmul@b+3
  3048  04A7  3000               	movlw	0
  3049  04A8  00A2               	movwf	___flmul@b+2
  3050  04A9  3000               	movlw	0
  3051  04AA  00A1               	movwf	___flmul@b+1
  3052  04AB  3000               	movlw	0
  3053  04AC  00A0               	movwf	___flmul@b
  3054  04AD                     l2439:
  3055  04AD  17A2               	bsf	___flmul@b+2,7
  3056  04AE  2CB7               	goto	l2443
  3057  04AF                     l2441:
  3058  04AF  3000               	movlw	0
  3059  04B0  00A3               	movwf	___flmul@b+3
  3060  04B1  3000               	movlw	0
  3061  04B2  00A2               	movwf	___flmul@b+2
  3062  04B3  3000               	movlw	0
  3063  04B4  00A1               	movwf	___flmul@b+1
  3064  04B5  3000               	movlw	0
  3065  04B6  00A0               	movwf	___flmul@b
  3066  04B7                     l2443:
  3067  04B7  0827               	movf	___flmul@a+3,w
  3068  04B8  3980               	andlw	128
  3069  04B9  00A8               	movwf	??___flmul
  3070  04BA  0828               	movf	??___flmul,w
  3071  04BB  06AD               	xorwf	___flmul@sign,f
  3072  04BC                     l2445:
  3073  04BC  0827               	movf	___flmul@a+3,w
  3074  04BD  00A8               	movwf	??___flmul
  3075  04BE  0728               	addwf	??___flmul,w
  3076  04BF  00A9               	movwf	??___flmul+1
  3077  04C0  0829               	movf	??___flmul+1,w
  3078  04C1  00B2               	movwf	___flmul@aexp
  3079  04C2                     l2447:
  3080  04C2  1FA6               	btfss	___flmul@a+2,7
  3081  04C3  2CC5               	goto	u3271
  3082  04C4  2CC6               	goto	u3270
  3083  04C5                     u3271:
  3084  04C5  2CC7               	goto	l2451
  3085  04C6                     u3270:
  3086  04C6                     l2449:
  3087  04C6  1432               	bsf	___flmul@aexp,0
  3088  04C7                     l2451:
  3089  04C7  0832               	movf	___flmul@aexp,w
  3090  04C8  1903               	btfsc	3,2
  3091  04C9  2CCB               	goto	u3281
  3092  04CA  2CCC               	goto	u3280
  3093  04CB                     u3281:
  3094  04CB  2CDB               	goto	l2459
  3095  04CC                     u3280:
  3096  04CC                     l2453:
  3097  04CC  0A32               	incf	___flmul@aexp,w
  3098  04CD  1D03               	btfss	3,2
  3099  04CE  2CD0               	goto	u3291
  3100  04CF  2CD1               	goto	u3290
  3101  04D0                     u3291:
  3102  04D0  2CD9               	goto	l2457
  3103  04D1                     u3290:
  3104  04D1                     l2455:
  3105  04D1  3000               	movlw	0
  3106  04D2  00A7               	movwf	___flmul@a+3
  3107  04D3  3000               	movlw	0
  3108  04D4  00A6               	movwf	___flmul@a+2
  3109  04D5  3000               	movlw	0
  3110  04D6  00A5               	movwf	___flmul@a+1
  3111  04D7  3000               	movlw	0
  3112  04D8  00A4               	movwf	___flmul@a
  3113  04D9                     l2457:
  3114  04D9  17A6               	bsf	___flmul@a+2,7
  3115  04DA  2CE3               	goto	l2461
  3116  04DB                     l2459:
  3117  04DB  3000               	movlw	0
  3118  04DC  00A7               	movwf	___flmul@a+3
  3119  04DD  3000               	movlw	0
  3120  04DE  00A6               	movwf	___flmul@a+2
  3121  04DF  3000               	movlw	0
  3122  04E0  00A5               	movwf	___flmul@a+1
  3123  04E1  3000               	movlw	0
  3124  04E2  00A4               	movwf	___flmul@a
  3125  04E3                     l2461:
  3126  04E3  0832               	movf	___flmul@aexp,w
  3127  04E4  1903               	btfsc	3,2
  3128  04E5  2CE7               	goto	u3301
  3129  04E6  2CE8               	goto	u3300
  3130  04E7                     u3301:
  3131  04E7  2CED               	goto	l2465
  3132  04E8                     u3300:
  3133  04E8                     l2463:
  3134  04E8  0833               	movf	___flmul@bexp,w
  3135  04E9  1D03               	btfss	3,2
  3136  04EA  2CEC               	goto	u3311
  3137  04EB  2CED               	goto	u3310
  3138  04EC                     u3311:
  3139  04EC  2CF6               	goto	l2469
  3140  04ED                     u3310:
  3141  04ED                     l2465:
  3142  04ED  3000               	movlw	0
  3143  04EE  00A3               	movwf	?___flmul+3
  3144  04EF  3000               	movlw	0
  3145  04F0  00A2               	movwf	?___flmul+2
  3146  04F1  3000               	movlw	0
  3147  04F2  00A1               	movwf	?___flmul+1
  3148  04F3  3000               	movlw	0
  3149  04F4  00A0               	movwf	?___flmul
  3150  04F5  2FE9               	goto	l666
  3151  04F6                     l2469:
  3152  04F6  0820               	movf	___flmul@b,w
  3153  04F7  00A8               	movwf	??___flmul
  3154  04F8  0828               	movf	??___flmul,w
  3155  04F9  00F0               	movwf	__Umul8_16@multiplicand
  3156  04FA  0826               	movf	___flmul@a+2,w
  3157  04FB  120A  158A  2050  120A  118A  	fcall	__Umul8_16
  3158  0500  0871               	movf	?__Umul8_16+1,w
  3159  0501  1283               	bcf	3,5	;RP0=0, select bank0
  3160  0502  1303               	bcf	3,6	;RP1=0, select bank0
  3161  0503  00B9               	movwf	___flmul@temp+1
  3162  0504  0870               	movf	?__Umul8_16,w
  3163  0505  00B8               	movwf	___flmul@temp
  3164  0506                     l2471:
  3165  0506  0838               	movf	___flmul@temp,w
  3166  0507  00A8               	movwf	??___flmul
  3167  0508  01A9               	clrf	??___flmul+1
  3168  0509  01AA               	clrf	??___flmul+2
  3169  050A  01AB               	clrf	??___flmul+3
  3170  050B  082B               	movf	??___flmul+3,w
  3171  050C  00B1               	movwf	___flmul@grs+3
  3172  050D  082A               	movf	??___flmul+2,w
  3173  050E  00B0               	movwf	___flmul@grs+2
  3174  050F  0829               	movf	??___flmul+1,w
  3175  0510  00AF               	movwf	___flmul@grs+1
  3176  0511  0828               	movf	??___flmul,w
  3177  0512  00AE               	movwf	___flmul@grs
  3178  0513                     l2473:
  3179  0513  0839               	movf	___flmul@temp+1,w
  3180  0514  00A8               	movwf	??___flmul
  3181  0515  01A9               	clrf	??___flmul+1
  3182  0516  01AA               	clrf	??___flmul+2
  3183  0517  01AB               	clrf	??___flmul+3
  3184  0518  082B               	movf	??___flmul+3,w
  3185  0519  00B7               	movwf	___flmul@prod+3
  3186  051A  082A               	movf	??___flmul+2,w
  3187  051B  00B6               	movwf	___flmul@prod+2
  3188  051C  0829               	movf	??___flmul+1,w
  3189  051D  00B5               	movwf	___flmul@prod+1
  3190  051E  0828               	movf	??___flmul,w
  3191  051F  00B4               	movwf	___flmul@prod
  3192  0520  0821               	movf	___flmul@b+1,w
  3193  0521  00A8               	movwf	??___flmul
  3194  0522  0828               	movf	??___flmul,w
  3195  0523  00F0               	movwf	__Umul8_16@multiplicand
  3196  0524  0825               	movf	___flmul@a+1,w
  3197  0525  120A  158A  2050  120A  118A  	fcall	__Umul8_16
  3198  052A  0871               	movf	?__Umul8_16+1,w
  3199  052B  1283               	bcf	3,5	;RP0=0, select bank0
  3200  052C  1303               	bcf	3,6	;RP1=0, select bank0
  3201  052D  00B9               	movwf	___flmul@temp+1
  3202  052E  0870               	movf	?__Umul8_16,w
  3203  052F  00B8               	movwf	___flmul@temp
  3204  0530                     l2475:
  3205  0530  0838               	movf	___flmul@temp,w
  3206  0531  00A8               	movwf	??___flmul
  3207  0532  01A9               	clrf	??___flmul+1
  3208  0533  01AA               	clrf	??___flmul+2
  3209  0534  01AB               	clrf	??___flmul+3
  3210  0535  0828               	movf	??___flmul,w
  3211  0536  07AE               	addwf	___flmul@grs,f
  3212  0537  0829               	movf	??___flmul+1,w
  3213  0538  1103               	clrz
  3214  0539  1803               	skipnc
  3215  053A  3E01               	addlw	1
  3216  053B  1903               	skipnz
  3217  053C  2D3E               	goto	u3321
  3218  053D  07AF               	addwf	___flmul@grs+1,f
  3219  053E                     u3321:
  3220  053E  082A               	movf	??___flmul+2,w
  3221  053F  1103               	clrz
  3222  0540  1803               	skipnc
  3223  0541  3E01               	addlw	1
  3224  0542  1903               	skipnz
  3225  0543  2D45               	goto	u3322
  3226  0544  07B0               	addwf	___flmul@grs+2,f
  3227  0545                     u3322:
  3228  0545  082B               	movf	??___flmul+3,w
  3229  0546  1103               	clrz
  3230  0547  1803               	skipnc
  3231  0548  3E01               	addlw	1
  3232  0549  1903               	skipnz
  3233  054A  2D4C               	goto	u3323
  3234  054B  07B1               	addwf	___flmul@grs+3,f
  3235  054C                     u3323:
  3236  054C                     l2477:
  3237  054C  0839               	movf	___flmul@temp+1,w
  3238  054D  00A8               	movwf	??___flmul
  3239  054E  01A9               	clrf	??___flmul+1
  3240  054F  01AA               	clrf	??___flmul+2
  3241  0550  01AB               	clrf	??___flmul+3
  3242  0551  0828               	movf	??___flmul,w
  3243  0552  07B4               	addwf	___flmul@prod,f
  3244  0553  0829               	movf	??___flmul+1,w
  3245  0554  1103               	clrz
  3246  0555  1803               	skipnc
  3247  0556  3E01               	addlw	1
  3248  0557  1903               	skipnz
  3249  0558  2D5A               	goto	u3331
  3250  0559  07B5               	addwf	___flmul@prod+1,f
  3251  055A                     u3331:
  3252  055A  082A               	movf	??___flmul+2,w
  3253  055B  1103               	clrz
  3254  055C  1803               	skipnc
  3255  055D  3E01               	addlw	1
  3256  055E  1903               	skipnz
  3257  055F  2D61               	goto	u3332
  3258  0560  07B6               	addwf	___flmul@prod+2,f
  3259  0561                     u3332:
  3260  0561  082B               	movf	??___flmul+3,w
  3261  0562  1103               	clrz
  3262  0563  1803               	skipnc
  3263  0564  3E01               	addlw	1
  3264  0565  1903               	skipnz
  3265  0566  2D68               	goto	u3333
  3266  0567  07B7               	addwf	___flmul@prod+3,f
  3267  0568                     u3333:
  3268  0568  0822               	movf	___flmul@b+2,w
  3269  0569  00A8               	movwf	??___flmul
  3270  056A  0828               	movf	??___flmul,w
  3271  056B  00F0               	movwf	__Umul8_16@multiplicand
  3272  056C  0824               	movf	___flmul@a,w
  3273  056D  120A  158A  2050  120A  118A  	fcall	__Umul8_16
  3274  0572  0871               	movf	?__Umul8_16+1,w
  3275  0573  1283               	bcf	3,5	;RP0=0, select bank0
  3276  0574  1303               	bcf	3,6	;RP1=0, select bank0
  3277  0575  00B9               	movwf	___flmul@temp+1
  3278  0576  0870               	movf	?__Umul8_16,w
  3279  0577  00B8               	movwf	___flmul@temp
  3280  0578                     l2479:
  3281  0578  0838               	movf	___flmul@temp,w
  3282  0579  00A8               	movwf	??___flmul
  3283  057A  01A9               	clrf	??___flmul+1
  3284  057B  01AA               	clrf	??___flmul+2
  3285  057C  01AB               	clrf	??___flmul+3
  3286  057D  0828               	movf	??___flmul,w
  3287  057E  07AE               	addwf	___flmul@grs,f
  3288  057F  0829               	movf	??___flmul+1,w
  3289  0580  1103               	clrz
  3290  0581  1803               	skipnc
  3291  0582  3E01               	addlw	1
  3292  0583  1903               	skipnz
  3293  0584  2D86               	goto	u3341
  3294  0585  07AF               	addwf	___flmul@grs+1,f
  3295  0586                     u3341:
  3296  0586  082A               	movf	??___flmul+2,w
  3297  0587  1103               	clrz
  3298  0588  1803               	skipnc
  3299  0589  3E01               	addlw	1
  3300  058A  1903               	skipnz
  3301  058B  2D8D               	goto	u3342
  3302  058C  07B0               	addwf	___flmul@grs+2,f
  3303  058D                     u3342:
  3304  058D  082B               	movf	??___flmul+3,w
  3305  058E  1103               	clrz
  3306  058F  1803               	skipnc
  3307  0590  3E01               	addlw	1
  3308  0591  1903               	skipnz
  3309  0592  2D94               	goto	u3343
  3310  0593  07B1               	addwf	___flmul@grs+3,f
  3311  0594                     u3343:
  3312  0594                     l2481:
  3313  0594  0839               	movf	___flmul@temp+1,w
  3314  0595  00A8               	movwf	??___flmul
  3315  0596  01A9               	clrf	??___flmul+1
  3316  0597  01AA               	clrf	??___flmul+2
  3317  0598  01AB               	clrf	??___flmul+3
  3318  0599  0828               	movf	??___flmul,w
  3319  059A  07B4               	addwf	___flmul@prod,f
  3320  059B  0829               	movf	??___flmul+1,w
  3321  059C  1103               	clrz
  3322  059D  1803               	skipnc
  3323  059E  3E01               	addlw	1
  3324  059F  1903               	skipnz
  3325  05A0  2DA2               	goto	u3351
  3326  05A1  07B5               	addwf	___flmul@prod+1,f
  3327  05A2                     u3351:
  3328  05A2  082A               	movf	??___flmul+2,w
  3329  05A3  1103               	clrz
  3330  05A4  1803               	skipnc
  3331  05A5  3E01               	addlw	1
  3332  05A6  1903               	skipnz
  3333  05A7  2DA9               	goto	u3352
  3334  05A8  07B6               	addwf	___flmul@prod+2,f
  3335  05A9                     u3352:
  3336  05A9  082B               	movf	??___flmul+3,w
  3337  05AA  1103               	clrz
  3338  05AB  1803               	skipnc
  3339  05AC  3E01               	addlw	1
  3340  05AD  1903               	skipnz
  3341  05AE  2DB0               	goto	u3353
  3342  05AF  07B7               	addwf	___flmul@prod+3,f
  3343  05B0                     u3353:
  3344  05B0                     l2483:
  3345  05B0  3008               	movlw	8
  3346  05B1  00A8               	movwf	??___flmul
  3347  05B2                     u3365:
  3348  05B2  1003               	clrc
  3349  05B3  0DAE               	rlf	___flmul@grs,f
  3350  05B4  0DAF               	rlf	___flmul@grs+1,f
  3351  05B5  0DB0               	rlf	___flmul@grs+2,f
  3352  05B6  0DB1               	rlf	___flmul@grs+3,f
  3353  05B7  0BA8               	decfsz	??___flmul,f
  3354  05B8  2DB2               	goto	u3365
  3355  05B9                     l2485:
  3356  05B9  0821               	movf	___flmul@b+1,w
  3357  05BA  00A8               	movwf	??___flmul
  3358  05BB  0828               	movf	??___flmul,w
  3359  05BC  00F0               	movwf	__Umul8_16@multiplicand
  3360  05BD  0824               	movf	___flmul@a,w
  3361  05BE  120A  158A  2050  120A  118A  	fcall	__Umul8_16
  3362  05C3  0871               	movf	?__Umul8_16+1,w
  3363  05C4  1283               	bcf	3,5	;RP0=0, select bank0
  3364  05C5  1303               	bcf	3,6	;RP1=0, select bank0
  3365  05C6  00B9               	movwf	___flmul@temp+1
  3366  05C7  0870               	movf	?__Umul8_16,w
  3367  05C8  00B8               	movwf	___flmul@temp
  3368  05C9                     l2487:
  3369  05C9  0838               	movf	___flmul@temp,w
  3370  05CA  00A8               	movwf	??___flmul
  3371  05CB  0839               	movf	___flmul@temp+1,w
  3372  05CC  00A9               	movwf	??___flmul+1
  3373  05CD  01AA               	clrf	??___flmul+2
  3374  05CE  01AB               	clrf	??___flmul+3
  3375  05CF  0828               	movf	??___flmul,w
  3376  05D0  07AE               	addwf	___flmul@grs,f
  3377  05D1  0829               	movf	??___flmul+1,w
  3378  05D2  1103               	clrz
  3379  05D3  1803               	skipnc
  3380  05D4  3E01               	addlw	1
  3381  05D5  1903               	skipnz
  3382  05D6  2DD8               	goto	u3371
  3383  05D7  07AF               	addwf	___flmul@grs+1,f
  3384  05D8                     u3371:
  3385  05D8  082A               	movf	??___flmul+2,w
  3386  05D9  1103               	clrz
  3387  05DA  1803               	skipnc
  3388  05DB  3E01               	addlw	1
  3389  05DC  1903               	skipnz
  3390  05DD  2DDF               	goto	u3372
  3391  05DE  07B0               	addwf	___flmul@grs+2,f
  3392  05DF                     u3372:
  3393  05DF  082B               	movf	??___flmul+3,w
  3394  05E0  1103               	clrz
  3395  05E1  1803               	skipnc
  3396  05E2  3E01               	addlw	1
  3397  05E3  1903               	skipnz
  3398  05E4  2DE6               	goto	u3373
  3399  05E5  07B1               	addwf	___flmul@grs+3,f
  3400  05E6                     u3373:
  3401  05E6                     l2489:
  3402  05E6  0820               	movf	___flmul@b,w
  3403  05E7  00A8               	movwf	??___flmul
  3404  05E8  0828               	movf	??___flmul,w
  3405  05E9  00F0               	movwf	__Umul8_16@multiplicand
  3406  05EA  0825               	movf	___flmul@a+1,w
  3407  05EB  120A  158A  2050  120A  118A  	fcall	__Umul8_16
  3408  05F0  0871               	movf	?__Umul8_16+1,w
  3409  05F1  1283               	bcf	3,5	;RP0=0, select bank0
  3410  05F2  1303               	bcf	3,6	;RP1=0, select bank0
  3411  05F3  00B9               	movwf	___flmul@temp+1
  3412  05F4  0870               	movf	?__Umul8_16,w
  3413  05F5  00B8               	movwf	___flmul@temp
  3414  05F6                     l2491:
  3415  05F6  0838               	movf	___flmul@temp,w
  3416  05F7  00A8               	movwf	??___flmul
  3417  05F8  0839               	movf	___flmul@temp+1,w
  3418  05F9  00A9               	movwf	??___flmul+1
  3419  05FA  01AA               	clrf	??___flmul+2
  3420  05FB  01AB               	clrf	??___flmul+3
  3421  05FC  0828               	movf	??___flmul,w
  3422  05FD  07AE               	addwf	___flmul@grs,f
  3423  05FE  0829               	movf	??___flmul+1,w
  3424  05FF  1103               	clrz
  3425  0600  1803               	skipnc
  3426  0601  3E01               	addlw	1
  3427  0602  1903               	skipnz
  3428  0603  2E05               	goto	u3381
  3429  0604  07AF               	addwf	___flmul@grs+1,f
  3430  0605                     u3381:
  3431  0605  082A               	movf	??___flmul+2,w
  3432  0606  1103               	clrz
  3433  0607  1803               	skipnc
  3434  0608  3E01               	addlw	1
  3435  0609  1903               	skipnz
  3436  060A  2E0C               	goto	u3382
  3437  060B  07B0               	addwf	___flmul@grs+2,f
  3438  060C                     u3382:
  3439  060C  082B               	movf	??___flmul+3,w
  3440  060D  1103               	clrz
  3441  060E  1803               	skipnc
  3442  060F  3E01               	addlw	1
  3443  0610  1903               	skipnz
  3444  0611  2E13               	goto	u3383
  3445  0612  07B1               	addwf	___flmul@grs+3,f
  3446  0613                     u3383:
  3447  0613                     l2493:
  3448  0613  3008               	movlw	8
  3449  0614  00A8               	movwf	??___flmul
  3450  0615                     u3395:
  3451  0615  1003               	clrc
  3452  0616  0DAE               	rlf	___flmul@grs,f
  3453  0617  0DAF               	rlf	___flmul@grs+1,f
  3454  0618  0DB0               	rlf	___flmul@grs+2,f
  3455  0619  0DB1               	rlf	___flmul@grs+3,f
  3456  061A  0BA8               	decfsz	??___flmul,f
  3457  061B  2E15               	goto	u3395
  3458  061C  0820               	movf	___flmul@b,w
  3459  061D  00A8               	movwf	??___flmul
  3460  061E  0828               	movf	??___flmul,w
  3461  061F  00F0               	movwf	__Umul8_16@multiplicand
  3462  0620  0824               	movf	___flmul@a,w
  3463  0621  120A  158A  2050  120A  118A  	fcall	__Umul8_16
  3464  0626  0871               	movf	?__Umul8_16+1,w
  3465  0627  1283               	bcf	3,5	;RP0=0, select bank0
  3466  0628  1303               	bcf	3,6	;RP1=0, select bank0
  3467  0629  00B9               	movwf	___flmul@temp+1
  3468  062A  0870               	movf	?__Umul8_16,w
  3469  062B  00B8               	movwf	___flmul@temp
  3470  062C                     l2495:
  3471  062C  0838               	movf	___flmul@temp,w
  3472  062D  00A8               	movwf	??___flmul
  3473  062E  0839               	movf	___flmul@temp+1,w
  3474  062F  00A9               	movwf	??___flmul+1
  3475  0630  01AA               	clrf	??___flmul+2
  3476  0631  01AB               	clrf	??___flmul+3
  3477  0632  0828               	movf	??___flmul,w
  3478  0633  07AE               	addwf	___flmul@grs,f
  3479  0634  0829               	movf	??___flmul+1,w
  3480  0635  1103               	clrz
  3481  0636  1803               	skipnc
  3482  0637  3E01               	addlw	1
  3483  0638  1903               	skipnz
  3484  0639  2E3B               	goto	u3401
  3485  063A  07AF               	addwf	___flmul@grs+1,f
  3486  063B                     u3401:
  3487  063B  082A               	movf	??___flmul+2,w
  3488  063C  1103               	clrz
  3489  063D  1803               	skipnc
  3490  063E  3E01               	addlw	1
  3491  063F  1903               	skipnz
  3492  0640  2E42               	goto	u3402
  3493  0641  07B0               	addwf	___flmul@grs+2,f
  3494  0642                     u3402:
  3495  0642  082B               	movf	??___flmul+3,w
  3496  0643  1103               	clrz
  3497  0644  1803               	skipnc
  3498  0645  3E01               	addlw	1
  3499  0646  1903               	skipnz
  3500  0647  2E49               	goto	u3403
  3501  0648  07B1               	addwf	___flmul@grs+3,f
  3502  0649                     u3403:
  3503  0649                     l2497:
  3504  0649  0821               	movf	___flmul@b+1,w
  3505  064A  00A8               	movwf	??___flmul
  3506  064B  0828               	movf	??___flmul,w
  3507  064C  00F0               	movwf	__Umul8_16@multiplicand
  3508  064D  0826               	movf	___flmul@a+2,w
  3509  064E  120A  158A  2050  120A  118A  	fcall	__Umul8_16
  3510  0653  0871               	movf	?__Umul8_16+1,w
  3511  0654  1283               	bcf	3,5	;RP0=0, select bank0
  3512  0655  1303               	bcf	3,6	;RP1=0, select bank0
  3513  0656  00B9               	movwf	___flmul@temp+1
  3514  0657  0870               	movf	?__Umul8_16,w
  3515  0658  00B8               	movwf	___flmul@temp
  3516  0659  0838               	movf	___flmul@temp,w
  3517  065A  00A8               	movwf	??___flmul
  3518  065B  0839               	movf	___flmul@temp+1,w
  3519  065C  00A9               	movwf	??___flmul+1
  3520  065D  01AA               	clrf	??___flmul+2
  3521  065E  01AB               	clrf	??___flmul+3
  3522  065F  0828               	movf	??___flmul,w
  3523  0660  07B4               	addwf	___flmul@prod,f
  3524  0661  0829               	movf	??___flmul+1,w
  3525  0662  1103               	clrz
  3526  0663  1803               	skipnc
  3527  0664  3E01               	addlw	1
  3528  0665  1903               	skipnz
  3529  0666  2E68               	goto	u3411
  3530  0667  07B5               	addwf	___flmul@prod+1,f
  3531  0668                     u3411:
  3532  0668  082A               	movf	??___flmul+2,w
  3533  0669  1103               	clrz
  3534  066A  1803               	skipnc
  3535  066B  3E01               	addlw	1
  3536  066C  1903               	skipnz
  3537  066D  2E6F               	goto	u3412
  3538  066E  07B6               	addwf	___flmul@prod+2,f
  3539  066F                     u3412:
  3540  066F  082B               	movf	??___flmul+3,w
  3541  0670  1103               	clrz
  3542  0671  1803               	skipnc
  3543  0672  3E01               	addlw	1
  3544  0673  1903               	skipnz
  3545  0674  2E76               	goto	u3413
  3546  0675  07B7               	addwf	___flmul@prod+3,f
  3547  0676                     u3413:
  3548  0676                     l2499:
  3549  0676  0822               	movf	___flmul@b+2,w
  3550  0677  00A8               	movwf	??___flmul
  3551  0678  0828               	movf	??___flmul,w
  3552  0679  00F0               	movwf	__Umul8_16@multiplicand
  3553  067A  0825               	movf	___flmul@a+1,w
  3554  067B  120A  158A  2050  120A  118A  	fcall	__Umul8_16
  3555  0680  0871               	movf	?__Umul8_16+1,w
  3556  0681  1283               	bcf	3,5	;RP0=0, select bank0
  3557  0682  1303               	bcf	3,6	;RP1=0, select bank0
  3558  0683  00B9               	movwf	___flmul@temp+1
  3559  0684  0870               	movf	?__Umul8_16,w
  3560  0685  00B8               	movwf	___flmul@temp
  3561  0686                     l2501:
  3562  0686  0838               	movf	___flmul@temp,w
  3563  0687  00A8               	movwf	??___flmul
  3564  0688  0839               	movf	___flmul@temp+1,w
  3565  0689  00A9               	movwf	??___flmul+1
  3566  068A  01AA               	clrf	??___flmul+2
  3567  068B  01AB               	clrf	??___flmul+3
  3568  068C  0828               	movf	??___flmul,w
  3569  068D  07B4               	addwf	___flmul@prod,f
  3570  068E  0829               	movf	??___flmul+1,w
  3571  068F  1103               	clrz
  3572  0690  1803               	skipnc
  3573  0691  3E01               	addlw	1
  3574  0692  1903               	skipnz
  3575  0693  2E95               	goto	u3421
  3576  0694  07B5               	addwf	___flmul@prod+1,f
  3577  0695                     u3421:
  3578  0695  082A               	movf	??___flmul+2,w
  3579  0696  1103               	clrz
  3580  0697  1803               	skipnc
  3581  0698  3E01               	addlw	1
  3582  0699  1903               	skipnz
  3583  069A  2E9C               	goto	u3422
  3584  069B  07B6               	addwf	___flmul@prod+2,f
  3585  069C                     u3422:
  3586  069C  082B               	movf	??___flmul+3,w
  3587  069D  1103               	clrz
  3588  069E  1803               	skipnc
  3589  069F  3E01               	addlw	1
  3590  06A0  1903               	skipnz
  3591  06A1  2EA3               	goto	u3423
  3592  06A2  07B7               	addwf	___flmul@prod+3,f
  3593  06A3                     u3423:
  3594  06A3  0822               	movf	___flmul@b+2,w
  3595  06A4  00A8               	movwf	??___flmul
  3596  06A5  0828               	movf	??___flmul,w
  3597  06A6  00F0               	movwf	__Umul8_16@multiplicand
  3598  06A7  0826               	movf	___flmul@a+2,w
  3599  06A8  120A  158A  2050  120A  118A  	fcall	__Umul8_16
  3600  06AD  0871               	movf	?__Umul8_16+1,w
  3601  06AE  1283               	bcf	3,5	;RP0=0, select bank0
  3602  06AF  1303               	bcf	3,6	;RP1=0, select bank0
  3603  06B0  00B9               	movwf	___flmul@temp+1
  3604  06B1  0870               	movf	?__Umul8_16,w
  3605  06B2  00B8               	movwf	___flmul@temp
  3606  06B3                     l2503:
  3607  06B3  0838               	movf	___flmul@temp,w
  3608  06B4  00A8               	movwf	??___flmul
  3609  06B5  0839               	movf	___flmul@temp+1,w
  3610  06B6  00A9               	movwf	??___flmul+1
  3611  06B7  01AA               	clrf	??___flmul+2
  3612  06B8  01AB               	clrf	??___flmul+3
  3613  06B9  3008               	movlw	8
  3614  06BA                     u3435:
  3615  06BA  1003               	clrc
  3616  06BB  0DA8               	rlf	??___flmul,f
  3617  06BC  0DA9               	rlf	??___flmul+1,f
  3618  06BD  0DAA               	rlf	??___flmul+2,f
  3619  06BE  0DAB               	rlf	??___flmul+3,f
  3620  06BF                     u3430:
  3621  06BF  3EFF               	addlw	-1
  3622  06C0  1D03               	skipz
  3623  06C1  2EBA               	goto	u3435
  3624  06C2  0828               	movf	??___flmul,w
  3625  06C3  07B4               	addwf	___flmul@prod,f
  3626  06C4  0829               	movf	??___flmul+1,w
  3627  06C5  1103               	clrz
  3628  06C6  1803               	skipnc
  3629  06C7  3E01               	addlw	1
  3630  06C8  1903               	skipnz
  3631  06C9  2ECB               	goto	u3441
  3632  06CA  07B5               	addwf	___flmul@prod+1,f
  3633  06CB                     u3441:
  3634  06CB  082A               	movf	??___flmul+2,w
  3635  06CC  1103               	clrz
  3636  06CD  1803               	skipnc
  3637  06CE  3E01               	addlw	1
  3638  06CF  1903               	skipnz
  3639  06D0  2ED2               	goto	u3442
  3640  06D1  07B6               	addwf	___flmul@prod+2,f
  3641  06D2                     u3442:
  3642  06D2  082B               	movf	??___flmul+3,w
  3643  06D3  1103               	clrz
  3644  06D4  1803               	skipnc
  3645  06D5  3E01               	addlw	1
  3646  06D6  1903               	skipnz
  3647  06D7  2ED9               	goto	u3443
  3648  06D8  07B7               	addwf	___flmul@prod+3,f
  3649  06D9                     u3443:
  3650  06D9                     l2505:
  3651  06D9  082E               	movf	___flmul@grs,w
  3652  06DA  00A8               	movwf	??___flmul
  3653  06DB  082F               	movf	___flmul@grs+1,w
  3654  06DC  00A9               	movwf	??___flmul+1
  3655  06DD  0830               	movf	___flmul@grs+2,w
  3656  06DE  00AA               	movwf	??___flmul+2
  3657  06DF  0831               	movf	___flmul@grs+3,w
  3658  06E0  00AB               	movwf	??___flmul+3
  3659  06E1  3018               	movlw	24
  3660  06E2                     u3455:
  3661  06E2  1003               	clrc
  3662  06E3  0CAB               	rrf	??___flmul+3,f
  3663  06E4  0CAA               	rrf	??___flmul+2,f
  3664  06E5  0CA9               	rrf	??___flmul+1,f
  3665  06E6  0CA8               	rrf	??___flmul,f
  3666  06E7                     u3450:
  3667  06E7  3EFF               	addlw	-1
  3668  06E8  1D03               	skipz
  3669  06E9  2EE2               	goto	u3455
  3670  06EA  0828               	movf	??___flmul,w
  3671  06EB  07B4               	addwf	___flmul@prod,f
  3672  06EC  0829               	movf	??___flmul+1,w
  3673  06ED  1103               	clrz
  3674  06EE  1803               	skipnc
  3675  06EF  3E01               	addlw	1
  3676  06F0  1903               	skipnz
  3677  06F1  2EF3               	goto	u3461
  3678  06F2  07B5               	addwf	___flmul@prod+1,f
  3679  06F3                     u3461:
  3680  06F3  082A               	movf	??___flmul+2,w
  3681  06F4  1103               	clrz
  3682  06F5  1803               	skipnc
  3683  06F6  3E01               	addlw	1
  3684  06F7  1903               	skipnz
  3685  06F8  2EFA               	goto	u3462
  3686  06F9  07B6               	addwf	___flmul@prod+2,f
  3687  06FA                     u3462:
  3688  06FA  082B               	movf	??___flmul+3,w
  3689  06FB  1103               	clrz
  3690  06FC  1803               	skipnc
  3691  06FD  3E01               	addlw	1
  3692  06FE  1903               	skipnz
  3693  06FF  2F01               	goto	u3463
  3694  0700  07B7               	addwf	___flmul@prod+3,f
  3695  0701                     u3463:
  3696  0701                     l2507:
  3697  0701  3008               	movlw	8
  3698  0702  00A8               	movwf	??___flmul
  3699  0703                     u3475:
  3700  0703  1003               	clrc
  3701  0704  0DAE               	rlf	___flmul@grs,f
  3702  0705  0DAF               	rlf	___flmul@grs+1,f
  3703  0706  0DB0               	rlf	___flmul@grs+2,f
  3704  0707  0DB1               	rlf	___flmul@grs+3,f
  3705  0708  0BA8               	decfsz	??___flmul,f
  3706  0709  2F03               	goto	u3475
  3707  070A                     l2509:
  3708  070A  0833               	movf	___flmul@bexp,w
  3709  070B  0732               	addwf	___flmul@aexp,w
  3710  070C  00A8               	movwf	??___flmul
  3711  070D  01A9               	clrf	??___flmul+1
  3712  070E  0DA9               	rlf	??___flmul+1,f
  3713  070F  0828               	movf	??___flmul,w
  3714  0710  3E82               	addlw	130
  3715  0711  00B8               	movwf	___flmul@temp
  3716  0712  0829               	movf	??___flmul+1,w
  3717  0713  1803               	skipnc
  3718  0714  3E01               	addlw	1
  3719  0715  3EFF               	addlw	255
  3720  0716  00B9               	movwf	___flmul@temp+1
  3721  0717  2F35               	goto	l2521
  3722  0718                     l2511:
  3723  0718  3001               	movlw	1
  3724  0719  00A8               	movwf	??___flmul
  3725  071A                     u3485:
  3726  071A  1003               	clrc
  3727  071B  0DB4               	rlf	___flmul@prod,f
  3728  071C  0DB5               	rlf	___flmul@prod+1,f
  3729  071D  0DB6               	rlf	___flmul@prod+2,f
  3730  071E  0DB7               	rlf	___flmul@prod+3,f
  3731  071F  0BA8               	decfsz	??___flmul,f
  3732  0720  2F1A               	goto	u3485
  3733  0721                     l2513:
  3734  0721  1FB1               	btfss	___flmul@grs+3,7
  3735  0722  2F24               	goto	u3491
  3736  0723  2F25               	goto	u3490
  3737  0724                     u3491:
  3738  0724  2F26               	goto	l2517
  3739  0725                     u3490:
  3740  0725                     l2515:
  3741  0725  1434               	bsf	___flmul@prod,0
  3742  0726                     l2517:
  3743  0726  3001               	movlw	1
  3744  0727  00A8               	movwf	??___flmul
  3745  0728                     u3505:
  3746  0728  1003               	clrc
  3747  0729  0DAE               	rlf	___flmul@grs,f
  3748  072A  0DAF               	rlf	___flmul@grs+1,f
  3749  072B  0DB0               	rlf	___flmul@grs+2,f
  3750  072C  0DB1               	rlf	___flmul@grs+3,f
  3751  072D  0BA8               	decfsz	??___flmul,f
  3752  072E  2F28               	goto	u3505
  3753  072F                     l2519:
  3754  072F  30FF               	movlw	255
  3755  0730  07B8               	addwf	___flmul@temp,f
  3756  0731  1803               	skipnc
  3757  0732  0AB9               	incf	___flmul@temp+1,f
  3758  0733  30FF               	movlw	255
  3759  0734  07B9               	addwf	___flmul@temp+1,f
  3760  0735                     l2521:
  3761  0735  1FB6               	btfss	___flmul@prod+2,7
  3762  0736  2F38               	goto	u3511
  3763  0737  2F39               	goto	u3510
  3764  0738                     u3511:
  3765  0738  2F18               	goto	l2511
  3766  0739                     u3510:
  3767  0739                     l2523:
  3768  0739  01B2               	clrf	___flmul@aexp
  3769  073A                     l2525:
  3770  073A  1FB1               	btfss	___flmul@grs+3,7
  3771  073B  2F3D               	goto	u3521
  3772  073C  2F3E               	goto	u3520
  3773  073D                     u3521:
  3774  073D  2F5A               	goto	l2533
  3775  073E                     u3520:
  3776  073E                     l2527:
  3777  073E  30FF               	movlw	255
  3778  073F  052E               	andwf	___flmul@grs,w
  3779  0740  00A8               	movwf	??___flmul
  3780  0741  30FF               	movlw	255
  3781  0742  052F               	andwf	___flmul@grs+1,w
  3782  0743  00A9               	movwf	??___flmul+1
  3783  0744  30FF               	movlw	255
  3784  0745  0530               	andwf	___flmul@grs+2,w
  3785  0746  00AA               	movwf	??___flmul+2
  3786  0747  307F               	movlw	127
  3787  0748  0531               	andwf	___flmul@grs+3,w
  3788  0749  00AB               	movwf	??___flmul+3
  3789  074A  082B               	movf	??___flmul+3,w
  3790  074B  042A               	iorwf	??___flmul+2,w
  3791  074C  0429               	iorwf	??___flmul+1,w
  3792  074D  0428               	iorwf	??___flmul,w
  3793  074E  1903               	skipnz
  3794  074F  2F51               	goto	u3531
  3795  0750  2F52               	goto	u3530
  3796  0751                     u3531:
  3797  0751  2F55               	goto	l672
  3798  0752                     u3530:
  3799  0752                     l2529:
  3800  0752  01B2               	clrf	___flmul@aexp
  3801  0753  0AB2               	incf	___flmul@aexp,f
  3802  0754  2F5A               	goto	l2533
  3803  0755                     l672:
  3804  0755  1C34               	btfss	___flmul@prod,0
  3805  0756  2F58               	goto	u3541
  3806  0757  2F59               	goto	u3540
  3807  0758                     u3541:
  3808  0758  2F5A               	goto	l2533
  3809  0759                     u3540:
  3810  0759  2F52               	goto	l2529
  3811  075A                     l2533:
  3812  075A  0832               	movf	___flmul@aexp,w
  3813  075B  1903               	btfsc	3,2
  3814  075C  2F5E               	goto	u3551
  3815  075D  2F5F               	goto	u3550
  3816  075E                     u3551:
  3817  075E  2F90               	goto	l2543
  3818  075F                     u3550:
  3819  075F                     l2535:
  3820  075F  3001               	movlw	1
  3821  0760  07B4               	addwf	___flmul@prod,f
  3822  0761  3000               	movlw	0
  3823  0762  1803               	skipnc
  3824  0763  3001               	movlw	1
  3825  0764  07B5               	addwf	___flmul@prod+1,f
  3826  0765  3000               	movlw	0
  3827  0766  1803               	skipnc
  3828  0767  3001               	movlw	1
  3829  0768  07B6               	addwf	___flmul@prod+2,f
  3830  0769  3000               	movlw	0
  3831  076A  1803               	skipnc
  3832  076B  3001               	movlw	1
  3833  076C  07B7               	addwf	___flmul@prod+3,f
  3834  076D                     l2537:
  3835  076D  1C37               	btfss	___flmul@prod+3,0
  3836  076E  2F70               	goto	u3561
  3837  076F  2F71               	goto	u3560
  3838  0770                     u3561:
  3839  0770  2F90               	goto	l2543
  3840  0771                     u3560:
  3841  0771                     l2539:
  3842  0771  0834               	movf	___flmul@prod,w
  3843  0772  00A8               	movwf	??___flmul
  3844  0773  0835               	movf	___flmul@prod+1,w
  3845  0774  00A9               	movwf	??___flmul+1
  3846  0775  0836               	movf	___flmul@prod+2,w
  3847  0776  00AA               	movwf	??___flmul+2
  3848  0777  0837               	movf	___flmul@prod+3,w
  3849  0778  00AB               	movwf	??___flmul+3
  3850  0779  3001               	movlw	1
  3851  077A  00AC               	movwf	??___flmul+4
  3852  077B                     u3575:
  3853  077B  0D2B               	rlf	??___flmul+3,w
  3854  077C  0CAB               	rrf	??___flmul+3,f
  3855  077D  0CAA               	rrf	??___flmul+2,f
  3856  077E  0CA9               	rrf	??___flmul+1,f
  3857  077F  0CA8               	rrf	??___flmul,f
  3858  0780                     u3570:
  3859  0780  0BAC               	decfsz	??___flmul+4,f
  3860  0781  2F7B               	goto	u3575
  3861  0782  082B               	movf	??___flmul+3,w
  3862  0783  00B7               	movwf	___flmul@prod+3
  3863  0784  082A               	movf	??___flmul+2,w
  3864  0785  00B6               	movwf	___flmul@prod+2
  3865  0786  0829               	movf	??___flmul+1,w
  3866  0787  00B5               	movwf	___flmul@prod+1
  3867  0788  0828               	movf	??___flmul,w
  3868  0789  00B4               	movwf	___flmul@prod
  3869  078A                     l2541:
  3870  078A  3001               	movlw	1
  3871  078B  07B8               	addwf	___flmul@temp,f
  3872  078C  1803               	skipnc
  3873  078D  0AB9               	incf	___flmul@temp+1,f
  3874  078E  3000               	movlw	0
  3875  078F  07B9               	addwf	___flmul@temp+1,f
  3876  0790                     l2543:
  3877  0790  0839               	movf	___flmul@temp+1,w
  3878  0791  3A80               	xorlw	128
  3879  0792  00FF               	movwf	btemp+1
  3880  0793  3080               	movlw	128
  3881  0794  027F               	subwf	btemp+1,w
  3882  0795  1D03               	skipz
  3883  0796  2F99               	goto	u3585
  3884  0797  30FF               	movlw	255
  3885  0798  0238               	subwf	___flmul@temp,w
  3886  0799                     u3585:
  3887  0799  1C03               	skipc
  3888  079A  2F9C               	goto	u3581
  3889  079B  2F9D               	goto	u3580
  3890  079C                     u3581:
  3891  079C  2FA8               	goto	l2547
  3892  079D                     u3580:
  3893  079D                     l2545:
  3894  079D  307F               	movlw	127
  3895  079E  1283               	bcf	3,5	;RP0=0, select bank0
  3896  079F  1303               	bcf	3,6	;RP1=0, select bank0
  3897  07A0  00B7               	movwf	___flmul@prod+3
  3898  07A1  3080               	movlw	128
  3899  07A2  00B6               	movwf	___flmul@prod+2
  3900  07A3  3000               	movlw	0
  3901  07A4  00B5               	movwf	___flmul@prod+1
  3902  07A5  3000               	movlw	0
  3903  07A6  00B4               	movwf	___flmul@prod
  3904  07A7  2FDD               	goto	l678
  3905  07A8                     l2547:
  3906  07A8  1283               	bcf	3,5	;RP0=0, select bank0
  3907  07A9  1303               	bcf	3,6	;RP1=0, select bank0
  3908  07AA  0839               	movf	___flmul@temp+1,w
  3909  07AB  3A80               	xorlw	128
  3910  07AC  00FF               	movwf	btemp+1
  3911  07AD  3080               	movlw	128
  3912  07AE  027F               	subwf	btemp+1,w
  3913  07AF  1D03               	skipz
  3914  07B0  2FB3               	goto	u3595
  3915  07B1  3001               	movlw	1
  3916  07B2  0238               	subwf	___flmul@temp,w
  3917  07B3                     u3595:
  3918  07B3  1803               	skipnc
  3919  07B4  2FB6               	goto	u3591
  3920  07B5  2FB7               	goto	u3590
  3921  07B6                     u3591:
  3922  07B6  2FC3               	goto	l2553
  3923  07B7                     u3590:
  3924  07B7                     l2549:
  3925  07B7  3000               	movlw	0
  3926  07B8  1283               	bcf	3,5	;RP0=0, select bank0
  3927  07B9  1303               	bcf	3,6	;RP1=0, select bank0
  3928  07BA  00B7               	movwf	___flmul@prod+3
  3929  07BB  3000               	movlw	0
  3930  07BC  00B6               	movwf	___flmul@prod+2
  3931  07BD  3000               	movlw	0
  3932  07BE  00B5               	movwf	___flmul@prod+1
  3933  07BF  3000               	movlw	0
  3934  07C0  00B4               	movwf	___flmul@prod
  3935  07C1                     l2551:
  3936  07C1  01AD               	clrf	___flmul@sign
  3937  07C2  2FDD               	goto	l678
  3938  07C3                     l2553:
  3939  07C3  1283               	bcf	3,5	;RP0=0, select bank0
  3940  07C4  1303               	bcf	3,6	;RP1=0, select bank0
  3941  07C5  0838               	movf	___flmul@temp,w
  3942  07C6  00A8               	movwf	??___flmul
  3943  07C7  0828               	movf	??___flmul,w
  3944  07C8  00B3               	movwf	___flmul@bexp
  3945  07C9  30FF               	movlw	255
  3946  07CA  05B4               	andwf	___flmul@prod,f
  3947  07CB  30FF               	movlw	255
  3948  07CC  05B5               	andwf	___flmul@prod+1,f
  3949  07CD  307F               	movlw	127
  3950  07CE  05B6               	andwf	___flmul@prod+2,f
  3951  07CF  3000               	movlw	0
  3952  07D0  05B7               	andwf	___flmul@prod+3,f
  3953  07D1                     l2555:
  3954  07D1  1C33               	btfss	___flmul@bexp,0
  3955  07D2  2FD4               	goto	u3601
  3956  07D3  2FD5               	goto	u3600
  3957  07D4                     u3601:
  3958  07D4  2FD6               	goto	l2559
  3959  07D5                     u3600:
  3960  07D5                     l2557:
  3961  07D5  17B6               	bsf	___flmul@prod+2,7
  3962  07D6                     l2559:
  3963  07D6  0833               	movf	___flmul@bexp,w
  3964  07D7  00A8               	movwf	??___flmul
  3965  07D8  1003               	clrc
  3966  07D9  0C28               	rrf	??___flmul,w
  3967  07DA  00A9               	movwf	??___flmul+1
  3968  07DB  0829               	movf	??___flmul+1,w
  3969  07DC  00B7               	movwf	___flmul@prod+3
  3970  07DD                     l678:
  3971  07DD  082D               	movf	___flmul@sign,w
  3972  07DE  00A8               	movwf	??___flmul
  3973  07DF  0828               	movf	??___flmul,w
  3974  07E0  04B7               	iorwf	___flmul@prod+3,f
  3975  07E1                     l2561:
  3976  07E1  0837               	movf	___flmul@prod+3,w
  3977  07E2  00A3               	movwf	?___flmul+3
  3978  07E3  0836               	movf	___flmul@prod+2,w
  3979  07E4  00A2               	movwf	?___flmul+2
  3980  07E5  0835               	movf	___flmul@prod+1,w
  3981  07E6  00A1               	movwf	?___flmul+1
  3982  07E7  0834               	movf	___flmul@prod,w
  3983  07E8  00A0               	movwf	?___flmul
  3984  07E9                     l666:
  3985  07E9  0008               	return
  3986  07EA                     __end_of___flmul:
  3987                           
  3988                           	psect	text10
  3989  0850                     __ptext10:	
  3990 ;; *************** function __Umul8_16 *****************
  3991 ;; Defined at:
  3992 ;;		line 4 in file "C:\Program Files\Microchip\xc8\v2.31\pic\sources\c90\common\Umul8_16.c"
  3993 ;; Parameters:    Size  Location     Type
  3994 ;;  multiplier      1    wreg     unsigned char 
  3995 ;;  multiplicand    1    0[COMMON] unsigned char 
  3996 ;; Auto vars:     Size  Location     Type
  3997 ;;  multiplier      1    8[COMMON] unsigned char 
  3998 ;;  word_mpld       2    6[COMMON] unsigned int 
  3999 ;;  product         2    4[COMMON] unsigned int 
  4000 ;; Return value:  Size  Location     Type
  4001 ;;                  2    0[COMMON] unsigned int 
  4002 ;; Registers used:
  4003 ;;		wreg, status,2, status,0
  4004 ;; Tracked objects:
  4005 ;;		On entry : 0/0
  4006 ;;		On exit  : 0/0
  4007 ;;		Unchanged: 0/0
  4008 ;; Data sizes:     COMMON   BANK0   BANK1   BANK3   BANK2
  4009 ;;      Params:         2       0       0       0       0
  4010 ;;      Locals:         5       0       0       0       0
  4011 ;;      Temps:          2       0       0       0       0
  4012 ;;      Totals:         9       0       0       0       0
  4013 ;;Total ram usage:        9 bytes
  4014 ;; Hardware stack levels used:    1
  4015 ;; This function calls:
  4016 ;;		Nothing
  4017 ;; This function is called by:
  4018 ;;		___flmul
  4019 ;; This function uses a non-reentrant model
  4020 ;;
  4021                           
  4022                           
  4023                           ;psect for function __Umul8_16
  4024  0850                     __Umul8_16:
  4025                           
  4026                           ;incstack = 0
  4027                           ; Regs used in __Umul8_16: [wreg+status,2+status,0]
  4028                           ;__Umul8_16@multiplier stored from wreg
  4029  0850  00F8               	movwf	__Umul8_16@multiplier
  4030  0851                     l1927:
  4031  0851  01F4               	clrf	__Umul8_16@product
  4032  0852  01F5               	clrf	__Umul8_16@product+1
  4033  0853                     l1929:
  4034  0853  0870               	movf	__Umul8_16@multiplicand,w
  4035  0854  00F2               	movwf	??__Umul8_16
  4036  0855  01F3               	clrf	??__Umul8_16+1
  4037  0856  0872               	movf	??__Umul8_16,w
  4038  0857  00F6               	movwf	__Umul8_16@word_mpld
  4039  0858  0873               	movf	??__Umul8_16+1,w
  4040  0859  00F7               	movwf	__Umul8_16@word_mpld+1
  4041  085A                     l1931:
  4042  085A  1C78               	btfss	__Umul8_16@multiplier,0
  4043  085B  285D               	goto	u2231
  4044  085C  285E               	goto	u2230
  4045  085D                     u2231:
  4046  085D  2864               	goto	l685
  4047  085E                     u2230:
  4048  085E                     l1933:
  4049  085E  0876               	movf	__Umul8_16@word_mpld,w
  4050  085F  07F4               	addwf	__Umul8_16@product,f
  4051  0860  1803               	skipnc
  4052  0861  0AF5               	incf	__Umul8_16@product+1,f
  4053  0862  0877               	movf	__Umul8_16@word_mpld+1,w
  4054  0863  07F5               	addwf	__Umul8_16@product+1,f
  4055  0864                     l685:
  4056  0864  3001               	movlw	1
  4057  0865                     u2245:
  4058  0865  1003               	clrc
  4059  0866  0DF6               	rlf	__Umul8_16@word_mpld,f
  4060  0867  0DF7               	rlf	__Umul8_16@word_mpld+1,f
  4061  0868  3EFF               	addlw	-1
  4062  0869  1D03               	skipz
  4063  086A  2865               	goto	u2245
  4064  086B  1003               	clrc
  4065  086C  0CF8               	rrf	__Umul8_16@multiplier,f
  4066  086D                     l1935:
  4067  086D  0878               	movf	__Umul8_16@multiplier,w
  4068  086E  1D03               	btfss	3,2
  4069  086F  2871               	goto	u2251
  4070  0870  2872               	goto	u2250
  4071  0871                     u2251:
  4072  0871  285A               	goto	l1931
  4073  0872                     u2250:
  4074  0872                     l1937:
  4075  0872  0875               	movf	__Umul8_16@product+1,w
  4076  0873  00F1               	movwf	?__Umul8_16+1
  4077  0874  0874               	movf	__Umul8_16@product,w
  4078  0875  00F0               	movwf	?__Umul8_16
  4079  0876                     l687:
  4080  0876  0008               	return
  4081  0877                     __end_of__Umul8_16:
  4082                           
  4083                           	psect	text11
  4084  0035                     __ptext11:	
  4085 ;; *************** function ___flge *****************
  4086 ;; Defined at:
  4087 ;;		line 4 in file "C:\Program Files\Microchip\xc8\v2.31\pic\sources\c90\common\flge.c"
  4088 ;; Parameters:    Size  Location     Type
  4089 ;;  ff1             4    0[COMMON] unsigned int 
  4090 ;;  ff2             4    4[COMMON] unsigned int 
  4091 ;; Auto vars:     Size  Location     Type
  4092 ;;		None
  4093 ;; Return value:  Size  Location     Type
  4094 ;;		None               void
  4095 ;; Registers used:
  4096 ;;		wreg, status,2, status,0
  4097 ;; Tracked objects:
  4098 ;;		On entry : 0/0
  4099 ;;		On exit  : 0/0
  4100 ;;		Unchanged: 0/0
  4101 ;; Data sizes:     COMMON   BANK0   BANK1   BANK3   BANK2
  4102 ;;      Params:         8       0       0       0       0
  4103 ;;      Locals:         0       0       0       0       0
  4104 ;;      Temps:          4       0       0       0       0
  4105 ;;      Totals:        12       0       0       0       0
  4106 ;;Total ram usage:       12 bytes
  4107 ;; Hardware stack levels used:    1
  4108 ;; This function calls:
  4109 ;;		Nothing
  4110 ;; This function is called by:
  4111 ;;		_main
  4112 ;; This function uses a non-reentrant model
  4113 ;;
  4114                           
  4115                           
  4116                           ;psect for function ___flge
  4117  0035                     ___flge:
  4118  0035                     l2033:	
  4119                           ;incstack = 0
  4120                           ; Regs used in ___flge: [wreg+status,2+status,0]
  4121                           
  4122  0035  3000               	movlw	0
  4123  0036  0570               	andwf	___flge@ff1,w
  4124  0037  00F8               	movwf	??___flge
  4125  0038  3000               	movlw	0
  4126  0039  0571               	andwf	___flge@ff1+1,w
  4127  003A  00F9               	movwf	??___flge+1
  4128  003B  3080               	movlw	128
  4129  003C  0572               	andwf	___flge@ff1+2,w
  4130  003D  00FA               	movwf	??___flge+2
  4131  003E  307F               	movlw	127
  4132  003F  0573               	andwf	___flge@ff1+3,w
  4133  0040  00FB               	movwf	??___flge+3
  4134  0041  087B               	movf	??___flge+3,w
  4135  0042  047A               	iorwf	??___flge+2,w
  4136  0043  0479               	iorwf	??___flge+1,w
  4137  0044  0478               	iorwf	??___flge,w
  4138  0045  1D03               	skipz
  4139  0046  2848               	goto	u2321
  4140  0047  2849               	goto	u2320
  4141  0048                     u2321:
  4142  0048  2851               	goto	l451
  4143  0049                     u2320:
  4144  0049                     l2035:
  4145  0049  3000               	movlw	0
  4146  004A  00F3               	movwf	___flge@ff1+3
  4147  004B  3000               	movlw	0
  4148  004C  00F2               	movwf	___flge@ff1+2
  4149  004D  3000               	movlw	0
  4150  004E  00F1               	movwf	___flge@ff1+1
  4151  004F  3000               	movlw	0
  4152  0050  00F0               	movwf	___flge@ff1
  4153  0051                     l451:
  4154  0051  3000               	movlw	0
  4155  0052  0574               	andwf	___flge@ff2,w
  4156  0053  00F8               	movwf	??___flge
  4157  0054  3000               	movlw	0
  4158  0055  0575               	andwf	___flge@ff2+1,w
  4159  0056  00F9               	movwf	??___flge+1
  4160  0057  3080               	movlw	128
  4161  0058  0576               	andwf	___flge@ff2+2,w
  4162  0059  00FA               	movwf	??___flge+2
  4163  005A  307F               	movlw	127
  4164  005B  0577               	andwf	___flge@ff2+3,w
  4165  005C  00FB               	movwf	??___flge+3
  4166  005D  087B               	movf	??___flge+3,w
  4167  005E  047A               	iorwf	??___flge+2,w
  4168  005F  0479               	iorwf	??___flge+1,w
  4169  0060  0478               	iorwf	??___flge,w
  4170  0061  1D03               	skipz
  4171  0062  2864               	goto	u2331
  4172  0063  2865               	goto	u2330
  4173  0064                     u2331:
  4174  0064  286D               	goto	l2039
  4175  0065                     u2330:
  4176  0065                     l2037:
  4177  0065  3000               	movlw	0
  4178  0066  00F7               	movwf	___flge@ff2+3
  4179  0067  3000               	movlw	0
  4180  0068  00F6               	movwf	___flge@ff2+2
  4181  0069  3000               	movlw	0
  4182  006A  00F5               	movwf	___flge@ff2+1
  4183  006B  3000               	movlw	0
  4184  006C  00F4               	movwf	___flge@ff2
  4185  006D                     l2039:
  4186  006D  1FF3               	btfss	___flge@ff1+3,7
  4187  006E  2870               	goto	u2341
  4188  006F  2871               	goto	u2340
  4189  0070                     u2341:
  4190  0070  2895               	goto	l2043
  4191  0071                     u2340:
  4192  0071                     l2041:
  4193  0071  3000               	movlw	0
  4194  0072  00F8               	movwf	??___flge
  4195  0073  3000               	movlw	0
  4196  0074  00F9               	movwf	??___flge+1
  4197  0075  3000               	movlw	0
  4198  0076  00FA               	movwf	??___flge+2
  4199  0077  3080               	movlw	128
  4200  0078  00FB               	movwf	??___flge+3
  4201  0079  0870               	movf	___flge@ff1,w
  4202  007A  02F8               	subwf	??___flge,f
  4203  007B  0871               	movf	___flge@ff1+1,w
  4204  007C  1C03               	skipc
  4205  007D  0F71               	incfsz	___flge@ff1+1,w
  4206  007E  2880               	goto	u2351
  4207  007F  2881               	goto	u2352
  4208  0080                     u2351:
  4209  0080  02F9               	subwf	??___flge+1,f
  4210  0081                     u2352:
  4211  0081  0872               	movf	___flge@ff1+2,w
  4212  0082  1C03               	skipc
  4213  0083  0F72               	incfsz	___flge@ff1+2,w
  4214  0084  2886               	goto	u2353
  4215  0085  2887               	goto	u2354
  4216  0086                     u2353:
  4217  0086  02FA               	subwf	??___flge+2,f
  4218  0087                     u2354:
  4219  0087  0873               	movf	___flge@ff1+3,w
  4220  0088  1C03               	skipc
  4221  0089  0F73               	incfsz	___flge@ff1+3,w
  4222  008A  288C               	goto	u2355
  4223  008B  288D               	goto	u2356
  4224  008C                     u2355:
  4225  008C  02FB               	subwf	??___flge+3,f
  4226  008D                     u2356:
  4227  008D  087B               	movf	??___flge+3,w
  4228  008E  00F3               	movwf	___flge@ff1+3
  4229  008F  087A               	movf	??___flge+2,w
  4230  0090  00F2               	movwf	___flge@ff1+2
  4231  0091  0879               	movf	??___flge+1,w
  4232  0092  00F1               	movwf	___flge@ff1+1
  4233  0093  0878               	movf	??___flge,w
  4234  0094  00F0               	movwf	___flge@ff1
  4235  0095                     l2043:
  4236  0095  1FF7               	btfss	___flge@ff2+3,7
  4237  0096  2898               	goto	u2361
  4238  0097  2899               	goto	u2360
  4239  0098                     u2361:
  4240  0098  28BD               	goto	l454
  4241  0099                     u2360:
  4242  0099                     l2045:
  4243  0099  3000               	movlw	0
  4244  009A  00F8               	movwf	??___flge
  4245  009B  3000               	movlw	0
  4246  009C  00F9               	movwf	??___flge+1
  4247  009D  3000               	movlw	0
  4248  009E  00FA               	movwf	??___flge+2
  4249  009F  3080               	movlw	128
  4250  00A0  00FB               	movwf	??___flge+3
  4251  00A1  0874               	movf	___flge@ff2,w
  4252  00A2  02F8               	subwf	??___flge,f
  4253  00A3  0875               	movf	___flge@ff2+1,w
  4254  00A4  1C03               	skipc
  4255  00A5  0F75               	incfsz	___flge@ff2+1,w
  4256  00A6  28A8               	goto	u2371
  4257  00A7  28A9               	goto	u2372
  4258  00A8                     u2371:
  4259  00A8  02F9               	subwf	??___flge+1,f
  4260  00A9                     u2372:
  4261  00A9  0876               	movf	___flge@ff2+2,w
  4262  00AA  1C03               	skipc
  4263  00AB  0F76               	incfsz	___flge@ff2+2,w
  4264  00AC  28AE               	goto	u2373
  4265  00AD  28AF               	goto	u2374
  4266  00AE                     u2373:
  4267  00AE  02FA               	subwf	??___flge+2,f
  4268  00AF                     u2374:
  4269  00AF  0877               	movf	___flge@ff2+3,w
  4270  00B0  1C03               	skipc
  4271  00B1  0F77               	incfsz	___flge@ff2+3,w
  4272  00B2  28B4               	goto	u2375
  4273  00B3  28B5               	goto	u2376
  4274  00B4                     u2375:
  4275  00B4  02FB               	subwf	??___flge+3,f
  4276  00B5                     u2376:
  4277  00B5  087B               	movf	??___flge+3,w
  4278  00B6  00F7               	movwf	___flge@ff2+3
  4279  00B7  087A               	movf	??___flge+2,w
  4280  00B8  00F6               	movwf	___flge@ff2+2
  4281  00B9  0879               	movf	??___flge+1,w
  4282  00BA  00F5               	movwf	___flge@ff2+1
  4283  00BB  0878               	movf	??___flge,w
  4284  00BC  00F4               	movwf	___flge@ff2
  4285  00BD                     l454:
  4286  00BD  3080               	movlw	128
  4287  00BE  06F3               	xorwf	___flge@ff1+3,f
  4288  00BF  3080               	movlw	128
  4289  00C0  06F7               	xorwf	___flge@ff2+3,f
  4290  00C1  0877               	movf	___flge@ff2+3,w
  4291  00C2  0273               	subwf	___flge@ff1+3,w
  4292  00C3  1D03               	skipz
  4293  00C4  28CF               	goto	u2385
  4294  00C5  0876               	movf	___flge@ff2+2,w
  4295  00C6  0272               	subwf	___flge@ff1+2,w
  4296  00C7  1D03               	skipz
  4297  00C8  28CF               	goto	u2385
  4298  00C9  0875               	movf	___flge@ff2+1,w
  4299  00CA  0271               	subwf	___flge@ff1+1,w
  4300  00CB  1D03               	skipz
  4301  00CC  28CF               	goto	u2385
  4302  00CD  0874               	movf	___flge@ff2,w
  4303  00CE  0270               	subwf	___flge@ff1,w
  4304  00CF                     u2385:
  4305  00CF  1803               	skipnc
  4306  00D0  28D2               	goto	u2381
  4307  00D1  28D3               	goto	u2380
  4308  00D2                     u2381:
  4309  00D2  28D5               	goto	l2049
  4310  00D3                     u2380:
  4311  00D3                     l2047:
  4312  00D3  1003               	clrc
  4313  00D4  28D6               	goto	l455
  4314  00D5                     l2049:
  4315  00D5  1403               	setc
  4316  00D6                     l455:
  4317  00D6  0008               	return
  4318  00D7                     __end_of___flge:
  4319                           
  4320                           	psect	text12
  4321  0B9B                     __ptext12:	
  4322 ;; *************** function ___fldiv *****************
  4323 ;; Defined at:
  4324 ;;		line 8 in file "C:\Program Files\Microchip\xc8\v2.31\pic\sources\c90\common\sprcdiv.c"
  4325 ;; Parameters:    Size  Location     Type
  4326 ;;  a               4   26[BANK0 ] unsigned int 
  4327 ;;  b               4   30[BANK0 ] unsigned int 
  4328 ;; Auto vars:     Size  Location     Type
  4329 ;;  grs             4   46[BANK0 ] unsigned long 
  4330 ;;  rem             4   39[BANK0 ] unsigned long 
  4331 ;;  new_exp         2   44[BANK0 ] int 
  4332 ;;  aexp            1   51[BANK0 ] unsigned char 
  4333 ;;  bexp            1   50[BANK0 ] unsigned char 
  4334 ;;  sign            1   43[BANK0 ] unsigned char 
  4335 ;; Return value:  Size  Location     Type
  4336 ;;                  4   26[BANK0 ] unsigned char 
  4337 ;; Registers used:
  4338 ;;		wreg, status,2, status,0, btemp+1
  4339 ;; Tracked objects:
  4340 ;;		On entry : 0/0
  4341 ;;		On exit  : 0/0
  4342 ;;		Unchanged: 0/0
  4343 ;; Data sizes:     COMMON   BANK0   BANK1   BANK3   BANK2
  4344 ;;      Params:         0       8       0       0       0
  4345 ;;      Locals:         0      13       0       0       0
  4346 ;;      Temps:          0       5       0       0       0
  4347 ;;      Totals:         0      26       0       0       0
  4348 ;;Total ram usage:       26 bytes
  4349 ;; Hardware stack levels used:    1
  4350 ;; This function calls:
  4351 ;;		Nothing
  4352 ;; This function is called by:
  4353 ;;		_main
  4354 ;; This function uses a non-reentrant model
  4355 ;;
  4356                           
  4357                           
  4358                           ;psect for function ___fldiv
  4359  0B9B                     ___fldiv:
  4360  0B9B                     l2283:	
  4361                           ;incstack = 0
  4362                           ; Regs used in ___fldiv: [wreg+status,2+status,0+btemp+1]
  4363                           
  4364  0B9B  1283               	bcf	3,5	;RP0=0, select bank0
  4365  0B9C  1303               	bcf	3,6	;RP1=0, select bank0
  4366  0B9D  0841               	movf	___fldiv@b+3,w
  4367  0B9E  3980               	andlw	128
  4368  0B9F  00C2               	movwf	??___fldiv
  4369  0BA0  0842               	movf	??___fldiv,w
  4370  0BA1  00CB               	movwf	___fldiv@sign
  4371  0BA2                     l2285:
  4372  0BA2  0841               	movf	___fldiv@b+3,w
  4373  0BA3  00C2               	movwf	??___fldiv
  4374  0BA4  0742               	addwf	??___fldiv,w
  4375  0BA5  00C3               	movwf	??___fldiv+1
  4376  0BA6  0843               	movf	??___fldiv+1,w
  4377  0BA7  00D2               	movwf	___fldiv@bexp
  4378  0BA8                     l2287:
  4379  0BA8  1FC0               	btfss	___fldiv@b+2,7
  4380  0BA9  2BAB               	goto	u2951
  4381  0BAA  2BAC               	goto	u2950
  4382  0BAB                     u2951:
  4383  0BAB  2BAD               	goto	l2291
  4384  0BAC                     u2950:
  4385  0BAC                     l2289:
  4386  0BAC  1452               	bsf	___fldiv@bexp,0
  4387  0BAD                     l2291:
  4388  0BAD  0852               	movf	___fldiv@bexp,w
  4389  0BAE  1903               	btfsc	3,2
  4390  0BAF  2BB1               	goto	u2961
  4391  0BB0  2BB2               	goto	u2960
  4392  0BB1                     u2961:
  4393  0BB1  2BC2               	goto	l2301
  4394  0BB2                     u2960:
  4395  0BB2                     l2293:
  4396  0BB2  0A52               	incf	___fldiv@bexp,w
  4397  0BB3  1D03               	btfss	3,2
  4398  0BB4  2BB6               	goto	u2971
  4399  0BB5  2BB7               	goto	u2970
  4400  0BB6                     u2971:
  4401  0BB6  2BBF               	goto	l2297
  4402  0BB7                     u2970:
  4403  0BB7                     l2295:
  4404  0BB7  3000               	movlw	0
  4405  0BB8  00C1               	movwf	___fldiv@b+3
  4406  0BB9  3000               	movlw	0
  4407  0BBA  00C0               	movwf	___fldiv@b+2
  4408  0BBB  3000               	movlw	0
  4409  0BBC  00BF               	movwf	___fldiv@b+1
  4410  0BBD  3000               	movlw	0
  4411  0BBE  00BE               	movwf	___fldiv@b
  4412  0BBF                     l2297:
  4413  0BBF  17C0               	bsf	___fldiv@b+2,7
  4414  0BC0                     l2299:
  4415  0BC0  01C1               	clrf	___fldiv@b+3
  4416  0BC1  2BCA               	goto	l2303
  4417  0BC2                     l2301:
  4418  0BC2  3000               	movlw	0
  4419  0BC3  00C1               	movwf	___fldiv@b+3
  4420  0BC4  3000               	movlw	0
  4421  0BC5  00C0               	movwf	___fldiv@b+2
  4422  0BC6  3000               	movlw	0
  4423  0BC7  00BF               	movwf	___fldiv@b+1
  4424  0BC8  3000               	movlw	0
  4425  0BC9  00BE               	movwf	___fldiv@b
  4426  0BCA                     l2303:
  4427  0BCA  083D               	movf	___fldiv@a+3,w
  4428  0BCB  3980               	andlw	128
  4429  0BCC  00C2               	movwf	??___fldiv
  4430  0BCD  0842               	movf	??___fldiv,w
  4431  0BCE  06CB               	xorwf	___fldiv@sign,f
  4432  0BCF                     l2305:
  4433  0BCF  083D               	movf	___fldiv@a+3,w
  4434  0BD0  00C2               	movwf	??___fldiv
  4435  0BD1  0742               	addwf	??___fldiv,w
  4436  0BD2  00C3               	movwf	??___fldiv+1
  4437  0BD3  0843               	movf	??___fldiv+1,w
  4438  0BD4  00D3               	movwf	___fldiv@aexp
  4439  0BD5                     l2307:
  4440  0BD5  1FBC               	btfss	___fldiv@a+2,7
  4441  0BD6  2BD8               	goto	u2981
  4442  0BD7  2BD9               	goto	u2980
  4443  0BD8                     u2981:
  4444  0BD8  2BDA               	goto	l2311
  4445  0BD9                     u2980:
  4446  0BD9                     l2309:
  4447  0BD9  1453               	bsf	___fldiv@aexp,0
  4448  0BDA                     l2311:
  4449  0BDA  0853               	movf	___fldiv@aexp,w
  4450  0BDB  1903               	btfsc	3,2
  4451  0BDC  2BDE               	goto	u2991
  4452  0BDD  2BDF               	goto	u2990
  4453  0BDE                     u2991:
  4454  0BDE  2BEF               	goto	l2321
  4455  0BDF                     u2990:
  4456  0BDF                     l2313:
  4457  0BDF  0A53               	incf	___fldiv@aexp,w
  4458  0BE0  1D03               	btfss	3,2
  4459  0BE1  2BE3               	goto	u3001
  4460  0BE2  2BE4               	goto	u3000
  4461  0BE3                     u3001:
  4462  0BE3  2BEC               	goto	l2317
  4463  0BE4                     u3000:
  4464  0BE4                     l2315:
  4465  0BE4  3000               	movlw	0
  4466  0BE5  00BD               	movwf	___fldiv@a+3
  4467  0BE6  3000               	movlw	0
  4468  0BE7  00BC               	movwf	___fldiv@a+2
  4469  0BE8  3000               	movlw	0
  4470  0BE9  00BB               	movwf	___fldiv@a+1
  4471  0BEA  3000               	movlw	0
  4472  0BEB  00BA               	movwf	___fldiv@a
  4473  0BEC                     l2317:
  4474  0BEC  17BC               	bsf	___fldiv@a+2,7
  4475  0BED                     l2319:
  4476  0BED  01BD               	clrf	___fldiv@a+3
  4477  0BEE  2BF7               	goto	l626
  4478  0BEF                     l2321:
  4479  0BEF  3000               	movlw	0
  4480  0BF0  00BD               	movwf	___fldiv@a+3
  4481  0BF1  3000               	movlw	0
  4482  0BF2  00BC               	movwf	___fldiv@a+2
  4483  0BF3  3000               	movlw	0
  4484  0BF4  00BB               	movwf	___fldiv@a+1
  4485  0BF5  3000               	movlw	0
  4486  0BF6  00BA               	movwf	___fldiv@a
  4487  0BF7                     l626:
  4488  0BF7  083D               	movf	___fldiv@a+3,w
  4489  0BF8  043C               	iorwf	___fldiv@a+2,w
  4490  0BF9  043B               	iorwf	___fldiv@a+1,w
  4491  0BFA  043A               	iorwf	___fldiv@a,w
  4492  0BFB  1D03               	skipz
  4493  0BFC  2BFE               	goto	u3011
  4494  0BFD  2BFF               	goto	u3010
  4495  0BFE                     u3011:
  4496  0BFE  2C18               	goto	l2331
  4497  0BFF                     u3010:
  4498  0BFF                     l2323:
  4499  0BFF  3000               	movlw	0
  4500  0C00  00C1               	movwf	___fldiv@b+3
  4501  0C01  3000               	movlw	0
  4502  0C02  00C0               	movwf	___fldiv@b+2
  4503  0C03  3000               	movlw	0
  4504  0C04  00BF               	movwf	___fldiv@b+1
  4505  0C05  3000               	movlw	0
  4506  0C06  00BE               	movwf	___fldiv@b
  4507  0C07  3080               	movlw	128
  4508  0C08  04C0               	iorwf	___fldiv@b+2,f
  4509  0C09  307F               	movlw	127
  4510  0C0A  04C1               	iorwf	___fldiv@b+3,f
  4511  0C0B                     l2325:
  4512  0C0B  084B               	movf	___fldiv@sign,w
  4513  0C0C  00C2               	movwf	??___fldiv
  4514  0C0D  0842               	movf	??___fldiv,w
  4515  0C0E  04C1               	iorwf	___fldiv@b+3,f
  4516  0C0F                     l2327:
  4517  0C0F  0841               	movf	___fldiv@b+3,w
  4518  0C10  00BD               	movwf	?___fldiv+3
  4519  0C11  0840               	movf	___fldiv@b+2,w
  4520  0C12  00BC               	movwf	?___fldiv+2
  4521  0C13  083F               	movf	___fldiv@b+1,w
  4522  0C14  00BB               	movwf	?___fldiv+1
  4523  0C15  083E               	movf	___fldiv@b,w
  4524  0C16  00BA               	movwf	?___fldiv
  4525  0C17  2D77               	goto	l628
  4526  0C18                     l2331:
  4527  0C18  0852               	movf	___fldiv@bexp,w
  4528  0C19  1D03               	btfss	3,2
  4529  0C1A  2C1C               	goto	u3021
  4530  0C1B  2C1D               	goto	u3020
  4531  0C1C                     u3021:
  4532  0C1C  2C26               	goto	l2337
  4533  0C1D                     u3020:
  4534  0C1D                     l2333:
  4535  0C1D  3000               	movlw	0
  4536  0C1E  00BD               	movwf	?___fldiv+3
  4537  0C1F  3000               	movlw	0
  4538  0C20  00BC               	movwf	?___fldiv+2
  4539  0C21  3000               	movlw	0
  4540  0C22  00BB               	movwf	?___fldiv+1
  4541  0C23  3000               	movlw	0
  4542  0C24  00BA               	movwf	?___fldiv
  4543  0C25  2D77               	goto	l628
  4544  0C26                     l2337:
  4545  0C26  0852               	movf	___fldiv@bexp,w
  4546  0C27  00C2               	movwf	??___fldiv
  4547  0C28  01C3               	clrf	??___fldiv+1
  4548  0C29  0843               	movf	??___fldiv+1,w
  4549  0C2A  00C5               	movwf	??___fldiv+3
  4550  0C2B  0853               	movf	___fldiv@aexp,w
  4551  0C2C  0242               	subwf	??___fldiv,w
  4552  0C2D  00C4               	movwf	??___fldiv+2
  4553  0C2E  1C03               	skipc
  4554  0C2F  03C5               	decf	??___fldiv+3,f
  4555  0C30  0844               	movf	??___fldiv+2,w
  4556  0C31  3E7F               	addlw	127
  4557  0C32  00CC               	movwf	___fldiv@new_exp
  4558  0C33  0845               	movf	??___fldiv+3,w
  4559  0C34  1803               	skipnc
  4560  0C35  3E01               	addlw	1
  4561  0C36  3E00               	addlw	0
  4562  0C37  00CD               	movwf	___fldiv@new_exp+1
  4563  0C38                     l2339:
  4564  0C38  0841               	movf	___fldiv@b+3,w
  4565  0C39  00CA               	movwf	___fldiv@rem+3
  4566  0C3A  0840               	movf	___fldiv@b+2,w
  4567  0C3B  00C9               	movwf	___fldiv@rem+2
  4568  0C3C  083F               	movf	___fldiv@b+1,w
  4569  0C3D  00C8               	movwf	___fldiv@rem+1
  4570  0C3E  083E               	movf	___fldiv@b,w
  4571  0C3F  00C7               	movwf	___fldiv@rem
  4572  0C40                     l2341:
  4573  0C40  3000               	movlw	0
  4574  0C41  00C1               	movwf	___fldiv@b+3
  4575  0C42  3000               	movlw	0
  4576  0C43  00C0               	movwf	___fldiv@b+2
  4577  0C44  3000               	movlw	0
  4578  0C45  00BF               	movwf	___fldiv@b+1
  4579  0C46  3000               	movlw	0
  4580  0C47  00BE               	movwf	___fldiv@b
  4581  0C48                     l2343:
  4582  0C48  3000               	movlw	0
  4583  0C49  00D1               	movwf	___fldiv@grs+3
  4584  0C4A  3000               	movlw	0
  4585  0C4B  00D0               	movwf	___fldiv@grs+2
  4586  0C4C  3000               	movlw	0
  4587  0C4D  00CF               	movwf	___fldiv@grs+1
  4588  0C4E  3000               	movlw	0
  4589  0C4F  00CE               	movwf	___fldiv@grs
  4590  0C50                     l2345:
  4591  0C50  01D3               	clrf	___fldiv@aexp
  4592  0C51  2C9C               	goto	l2365
  4593  0C52                     l2347:
  4594  0C52  0853               	movf	___fldiv@aexp,w
  4595  0C53  1903               	btfsc	3,2
  4596  0C54  2C56               	goto	u3031
  4597  0C55  2C57               	goto	u3030
  4598  0C56                     u3031:
  4599  0C56  2C77               	goto	l2357
  4600  0C57                     u3030:
  4601  0C57                     l2349:
  4602  0C57  3001               	movlw	1
  4603  0C58  00C2               	movwf	??___fldiv
  4604  0C59                     u3045:
  4605  0C59  1003               	clrc
  4606  0C5A  0DC7               	rlf	___fldiv@rem,f
  4607  0C5B  0DC8               	rlf	___fldiv@rem+1,f
  4608  0C5C  0DC9               	rlf	___fldiv@rem+2,f
  4609  0C5D  0DCA               	rlf	___fldiv@rem+3,f
  4610  0C5E  0BC2               	decfsz	??___fldiv,f
  4611  0C5F  2C59               	goto	u3045
  4612  0C60  3001               	movlw	1
  4613  0C61  00C2               	movwf	??___fldiv
  4614  0C62                     u3055:
  4615  0C62  1003               	clrc
  4616  0C63  0DBE               	rlf	___fldiv@b,f
  4617  0C64  0DBF               	rlf	___fldiv@b+1,f
  4618  0C65  0DC0               	rlf	___fldiv@b+2,f
  4619  0C66  0DC1               	rlf	___fldiv@b+3,f
  4620  0C67  0BC2               	decfsz	??___fldiv,f
  4621  0C68  2C62               	goto	u3055
  4622  0C69                     l2351:
  4623  0C69  1FD1               	btfss	___fldiv@grs+3,7
  4624  0C6A  2C6C               	goto	u3061
  4625  0C6B  2C6D               	goto	u3060
  4626  0C6C                     u3061:
  4627  0C6C  2C6E               	goto	l2355
  4628  0C6D                     u3060:
  4629  0C6D                     l2353:
  4630  0C6D  143E               	bsf	___fldiv@b,0
  4631  0C6E                     l2355:
  4632  0C6E  3001               	movlw	1
  4633  0C6F  00C2               	movwf	??___fldiv
  4634  0C70                     u3075:
  4635  0C70  1003               	clrc
  4636  0C71  0DCE               	rlf	___fldiv@grs,f
  4637  0C72  0DCF               	rlf	___fldiv@grs+1,f
  4638  0C73  0DD0               	rlf	___fldiv@grs+2,f
  4639  0C74  0DD1               	rlf	___fldiv@grs+3,f
  4640  0C75  0BC2               	decfsz	??___fldiv,f
  4641  0C76  2C70               	goto	u3075
  4642  0C77                     l2357:
  4643  0C77  083D               	movf	___fldiv@a+3,w
  4644  0C78  024A               	subwf	___fldiv@rem+3,w
  4645  0C79  1D03               	skipz
  4646  0C7A  2C85               	goto	u3085
  4647  0C7B  083C               	movf	___fldiv@a+2,w
  4648  0C7C  0249               	subwf	___fldiv@rem+2,w
  4649  0C7D  1D03               	skipz
  4650  0C7E  2C85               	goto	u3085
  4651  0C7F  083B               	movf	___fldiv@a+1,w
  4652  0C80  0248               	subwf	___fldiv@rem+1,w
  4653  0C81  1D03               	skipz
  4654  0C82  2C85               	goto	u3085
  4655  0C83  083A               	movf	___fldiv@a,w
  4656  0C84  0247               	subwf	___fldiv@rem,w
  4657  0C85                     u3085:
  4658  0C85  1C03               	skipc
  4659  0C86  2C88               	goto	u3081
  4660  0C87  2C89               	goto	u3080
  4661  0C88                     u3081:
  4662  0C88  2C98               	goto	l2363
  4663  0C89                     u3080:
  4664  0C89                     l2359:
  4665  0C89  1751               	bsf	___fldiv@grs+3,6
  4666  0C8A                     l2361:
  4667  0C8A  083A               	movf	___fldiv@a,w
  4668  0C8B  02C7               	subwf	___fldiv@rem,f
  4669  0C8C  083B               	movf	___fldiv@a+1,w
  4670  0C8D  1C03               	skipc
  4671  0C8E  0F3B               	incfsz	___fldiv@a+1,w
  4672  0C8F  02C8               	subwf	___fldiv@rem+1,f
  4673  0C90  083C               	movf	___fldiv@a+2,w
  4674  0C91  1C03               	skipc
  4675  0C92  0F3C               	incfsz	___fldiv@a+2,w
  4676  0C93  02C9               	subwf	___fldiv@rem+2,f
  4677  0C94  083D               	movf	___fldiv@a+3,w
  4678  0C95  1C03               	skipc
  4679  0C96  0F3D               	incfsz	___fldiv@a+3,w
  4680  0C97  02CA               	subwf	___fldiv@rem+3,f
  4681  0C98                     l2363:
  4682  0C98  3001               	movlw	1
  4683  0C99  00C2               	movwf	??___fldiv
  4684  0C9A  0842               	movf	??___fldiv,w
  4685  0C9B  07D3               	addwf	___fldiv@aexp,f
  4686  0C9C                     l2365:
  4687  0C9C  301A               	movlw	26
  4688  0C9D  0253               	subwf	___fldiv@aexp,w
  4689  0C9E  1C03               	skipc
  4690  0C9F  2CA1               	goto	u3091
  4691  0CA0  2CA2               	goto	u3090
  4692  0CA1                     u3091:
  4693  0CA1  2C52               	goto	l2347
  4694  0CA2                     u3090:
  4695  0CA2                     l2367:
  4696  0CA2  084A               	movf	___fldiv@rem+3,w
  4697  0CA3  0449               	iorwf	___fldiv@rem+2,w
  4698  0CA4  0448               	iorwf	___fldiv@rem+1,w
  4699  0CA5  0447               	iorwf	___fldiv@rem,w
  4700  0CA6  1903               	skipnz
  4701  0CA7  2CA9               	goto	u3101
  4702  0CA8  2CAA               	goto	u3100
  4703  0CA9                     u3101:
  4704  0CA9  2CC9               	goto	l2381
  4705  0CAA                     u3100:
  4706  0CAA                     l2369:
  4707  0CAA  144E               	bsf	___fldiv@grs,0
  4708  0CAB  2CC9               	goto	l2381
  4709  0CAC                     l2371:
  4710  0CAC  3001               	movlw	1
  4711  0CAD  00C2               	movwf	??___fldiv
  4712  0CAE                     u3115:
  4713  0CAE  1003               	clrc
  4714  0CAF  0DBE               	rlf	___fldiv@b,f
  4715  0CB0  0DBF               	rlf	___fldiv@b+1,f
  4716  0CB1  0DC0               	rlf	___fldiv@b+2,f
  4717  0CB2  0DC1               	rlf	___fldiv@b+3,f
  4718  0CB3  0BC2               	decfsz	??___fldiv,f
  4719  0CB4  2CAE               	goto	u3115
  4720  0CB5                     l2373:
  4721  0CB5  1FD1               	btfss	___fldiv@grs+3,7
  4722  0CB6  2CB8               	goto	u3121
  4723  0CB7  2CB9               	goto	u3120
  4724  0CB8                     u3121:
  4725  0CB8  2CBA               	goto	l2377
  4726  0CB9                     u3120:
  4727  0CB9                     l2375:
  4728  0CB9  143E               	bsf	___fldiv@b,0
  4729  0CBA                     l2377:
  4730  0CBA  3001               	movlw	1
  4731  0CBB  00C2               	movwf	??___fldiv
  4732  0CBC                     u3135:
  4733  0CBC  1003               	clrc
  4734  0CBD  0DCE               	rlf	___fldiv@grs,f
  4735  0CBE  0DCF               	rlf	___fldiv@grs+1,f
  4736  0CBF  0DD0               	rlf	___fldiv@grs+2,f
  4737  0CC0  0DD1               	rlf	___fldiv@grs+3,f
  4738  0CC1  0BC2               	decfsz	??___fldiv,f
  4739  0CC2  2CBC               	goto	u3135
  4740  0CC3                     l2379:
  4741  0CC3  30FF               	movlw	255
  4742  0CC4  07CC               	addwf	___fldiv@new_exp,f
  4743  0CC5  1803               	skipnc
  4744  0CC6  0ACD               	incf	___fldiv@new_exp+1,f
  4745  0CC7  30FF               	movlw	255
  4746  0CC8  07CD               	addwf	___fldiv@new_exp+1,f
  4747  0CC9                     l2381:
  4748  0CC9  1FC0               	btfss	___fldiv@b+2,7
  4749  0CCA  2CCC               	goto	u3141
  4750  0CCB  2CCD               	goto	u3140
  4751  0CCC                     u3141:
  4752  0CCC  2CAC               	goto	l2371
  4753  0CCD                     u3140:
  4754  0CCD                     l2383:
  4755  0CCD  01D3               	clrf	___fldiv@aexp
  4756  0CCE                     l2385:
  4757  0CCE  1FD1               	btfss	___fldiv@grs+3,7
  4758  0CCF  2CD1               	goto	u3151
  4759  0CD0  2CD2               	goto	u3150
  4760  0CD1                     u3151:
  4761  0CD1  2CEE               	goto	l2393
  4762  0CD2                     u3150:
  4763  0CD2                     l2387:
  4764  0CD2  30FF               	movlw	255
  4765  0CD3  054E               	andwf	___fldiv@grs,w
  4766  0CD4  00C2               	movwf	??___fldiv
  4767  0CD5  30FF               	movlw	255
  4768  0CD6  054F               	andwf	___fldiv@grs+1,w
  4769  0CD7  00C3               	movwf	??___fldiv+1
  4770  0CD8  30FF               	movlw	255
  4771  0CD9  0550               	andwf	___fldiv@grs+2,w
  4772  0CDA  00C4               	movwf	??___fldiv+2
  4773  0CDB  307F               	movlw	127
  4774  0CDC  0551               	andwf	___fldiv@grs+3,w
  4775  0CDD  00C5               	movwf	??___fldiv+3
  4776  0CDE  0845               	movf	??___fldiv+3,w
  4777  0CDF  0444               	iorwf	??___fldiv+2,w
  4778  0CE0  0443               	iorwf	??___fldiv+1,w
  4779  0CE1  0442               	iorwf	??___fldiv,w
  4780  0CE2  1903               	skipnz
  4781  0CE3  2CE5               	goto	u3161
  4782  0CE4  2CE6               	goto	u3160
  4783  0CE5                     u3161:
  4784  0CE5  2CE9               	goto	l642
  4785  0CE6                     u3160:
  4786  0CE6                     l2389:
  4787  0CE6  01D3               	clrf	___fldiv@aexp
  4788  0CE7  0AD3               	incf	___fldiv@aexp,f
  4789  0CE8  2CEE               	goto	l2393
  4790  0CE9                     l642:
  4791  0CE9  1C3E               	btfss	___fldiv@b,0
  4792  0CEA  2CEC               	goto	u3171
  4793  0CEB  2CED               	goto	u3170
  4794  0CEC                     u3171:
  4795  0CEC  2CEE               	goto	l2393
  4796  0CED                     u3170:
  4797  0CED  2CE6               	goto	l2389
  4798  0CEE                     l2393:
  4799  0CEE  0853               	movf	___fldiv@aexp,w
  4800  0CEF  1903               	btfsc	3,2
  4801  0CF0  2CF2               	goto	u3181
  4802  0CF1  2CF3               	goto	u3180
  4803  0CF2                     u3181:
  4804  0CF2  2D24               	goto	l2403
  4805  0CF3                     u3180:
  4806  0CF3                     l2395:
  4807  0CF3  3001               	movlw	1
  4808  0CF4  07BE               	addwf	___fldiv@b,f
  4809  0CF5  3000               	movlw	0
  4810  0CF6  1803               	skipnc
  4811  0CF7  3001               	movlw	1
  4812  0CF8  07BF               	addwf	___fldiv@b+1,f
  4813  0CF9  3000               	movlw	0
  4814  0CFA  1803               	skipnc
  4815  0CFB  3001               	movlw	1
  4816  0CFC  07C0               	addwf	___fldiv@b+2,f
  4817  0CFD  3000               	movlw	0
  4818  0CFE  1803               	skipnc
  4819  0CFF  3001               	movlw	1
  4820  0D00  07C1               	addwf	___fldiv@b+3,f
  4821  0D01                     l2397:
  4822  0D01  1C41               	btfss	___fldiv@b+3,0
  4823  0D02  2D04               	goto	u3191
  4824  0D03  2D05               	goto	u3190
  4825  0D04                     u3191:
  4826  0D04  2D24               	goto	l2403
  4827  0D05                     u3190:
  4828  0D05                     l2399:
  4829  0D05  083E               	movf	___fldiv@b,w
  4830  0D06  00C2               	movwf	??___fldiv
  4831  0D07  083F               	movf	___fldiv@b+1,w
  4832  0D08  00C3               	movwf	??___fldiv+1
  4833  0D09  0840               	movf	___fldiv@b+2,w
  4834  0D0A  00C4               	movwf	??___fldiv+2
  4835  0D0B  0841               	movf	___fldiv@b+3,w
  4836  0D0C  00C5               	movwf	??___fldiv+3
  4837  0D0D  3001               	movlw	1
  4838  0D0E  00C6               	movwf	??___fldiv+4
  4839  0D0F                     u3205:
  4840  0D0F  0D45               	rlf	??___fldiv+3,w
  4841  0D10  0CC5               	rrf	??___fldiv+3,f
  4842  0D11  0CC4               	rrf	??___fldiv+2,f
  4843  0D12  0CC3               	rrf	??___fldiv+1,f
  4844  0D13  0CC2               	rrf	??___fldiv,f
  4845  0D14                     u3200:
  4846  0D14  0BC6               	decfsz	??___fldiv+4,f
  4847  0D15  2D0F               	goto	u3205
  4848  0D16  0845               	movf	??___fldiv+3,w
  4849  0D17  00C1               	movwf	___fldiv@b+3
  4850  0D18  0844               	movf	??___fldiv+2,w
  4851  0D19  00C0               	movwf	___fldiv@b+2
  4852  0D1A  0843               	movf	??___fldiv+1,w
  4853  0D1B  00BF               	movwf	___fldiv@b+1
  4854  0D1C  0842               	movf	??___fldiv,w
  4855  0D1D  00BE               	movwf	___fldiv@b
  4856  0D1E                     l2401:
  4857  0D1E  3001               	movlw	1
  4858  0D1F  07CC               	addwf	___fldiv@new_exp,f
  4859  0D20  1803               	skipnc
  4860  0D21  0ACD               	incf	___fldiv@new_exp+1,f
  4861  0D22  3000               	movlw	0
  4862  0D23  07CD               	addwf	___fldiv@new_exp+1,f
  4863  0D24                     l2403:
  4864  0D24  084D               	movf	___fldiv@new_exp+1,w
  4865  0D25  3A80               	xorlw	128
  4866  0D26  00FF               	movwf	btemp+1
  4867  0D27  3080               	movlw	128
  4868  0D28  027F               	subwf	btemp+1,w
  4869  0D29  1D03               	skipz
  4870  0D2A  2D2D               	goto	u3215
  4871  0D2B  30FF               	movlw	255
  4872  0D2C  024C               	subwf	___fldiv@new_exp,w
  4873  0D2D                     u3215:
  4874  0D2D  1C03               	skipc
  4875  0D2E  2D30               	goto	u3211
  4876  0D2F  2D31               	goto	u3210
  4877  0D30                     u3211:
  4878  0D30  2D3F               	goto	l2407
  4879  0D31                     u3210:
  4880  0D31                     l2405:
  4881  0D31  30FF               	movlw	255
  4882  0D32  1283               	bcf	3,5	;RP0=0, select bank0
  4883  0D33  1303               	bcf	3,6	;RP1=0, select bank0
  4884  0D34  00CC               	movwf	___fldiv@new_exp
  4885  0D35  3000               	movlw	0
  4886  0D36  00CD               	movwf	___fldiv@new_exp+1
  4887  0D37  3000               	movlw	0
  4888  0D38  00C1               	movwf	___fldiv@b+3
  4889  0D39  3000               	movlw	0
  4890  0D3A  00C0               	movwf	___fldiv@b+2
  4891  0D3B  3000               	movlw	0
  4892  0D3C  00BF               	movwf	___fldiv@b+1
  4893  0D3D  3000               	movlw	0
  4894  0D3E  00BE               	movwf	___fldiv@b
  4895  0D3F                     l2407:
  4896  0D3F  1283               	bcf	3,5	;RP0=0, select bank0
  4897  0D40  1303               	bcf	3,6	;RP1=0, select bank0
  4898  0D41  084D               	movf	___fldiv@new_exp+1,w
  4899  0D42  3A80               	xorlw	128
  4900  0D43  00FF               	movwf	btemp+1
  4901  0D44  3080               	movlw	128
  4902  0D45  027F               	subwf	btemp+1,w
  4903  0D46  1D03               	skipz
  4904  0D47  2D4A               	goto	u3225
  4905  0D48  3001               	movlw	1
  4906  0D49  024C               	subwf	___fldiv@new_exp,w
  4907  0D4A                     u3225:
  4908  0D4A  1803               	skipnc
  4909  0D4B  2D4D               	goto	u3221
  4910  0D4C  2D4E               	goto	u3220
  4911  0D4D                     u3221:
  4912  0D4D  2D5B               	goto	l648
  4913  0D4E                     u3220:
  4914  0D4E                     l2409:
  4915  0D4E  1283               	bcf	3,5	;RP0=0, select bank0
  4916  0D4F  1303               	bcf	3,6	;RP1=0, select bank0
  4917  0D50  01CC               	clrf	___fldiv@new_exp
  4918  0D51  01CD               	clrf	___fldiv@new_exp+1
  4919  0D52                     l2411:
  4920  0D52  3000               	movlw	0
  4921  0D53  00C1               	movwf	___fldiv@b+3
  4922  0D54  3000               	movlw	0
  4923  0D55  00C0               	movwf	___fldiv@b+2
  4924  0D56  3000               	movlw	0
  4925  0D57  00BF               	movwf	___fldiv@b+1
  4926  0D58  3000               	movlw	0
  4927  0D59  00BE               	movwf	___fldiv@b
  4928  0D5A                     l2413:
  4929  0D5A  01CB               	clrf	___fldiv@sign
  4930  0D5B                     l648:
  4931  0D5B  1283               	bcf	3,5	;RP0=0, select bank0
  4932  0D5C  1303               	bcf	3,6	;RP1=0, select bank0
  4933  0D5D  084C               	movf	___fldiv@new_exp,w
  4934  0D5E  00C2               	movwf	??___fldiv
  4935  0D5F  0842               	movf	??___fldiv,w
  4936  0D60  00D2               	movwf	___fldiv@bexp
  4937  0D61                     l2415:
  4938  0D61  1C52               	btfss	___fldiv@bexp,0
  4939  0D62  2D64               	goto	u3231
  4940  0D63  2D65               	goto	u3230
  4941  0D64                     u3231:
  4942  0D64  2D67               	goto	l2419
  4943  0D65                     u3230:
  4944  0D65                     l2417:
  4945  0D65  17C0               	bsf	___fldiv@b+2,7
  4946  0D66  2D6B               	goto	l650
  4947  0D67                     l2419:
  4948  0D67  307F               	movlw	127
  4949  0D68  00C2               	movwf	??___fldiv
  4950  0D69  0842               	movf	??___fldiv,w
  4951  0D6A  05C0               	andwf	___fldiv@b+2,f
  4952  0D6B                     l650:
  4953  0D6B  0852               	movf	___fldiv@bexp,w
  4954  0D6C  00C2               	movwf	??___fldiv
  4955  0D6D  1003               	clrc
  4956  0D6E  0C42               	rrf	??___fldiv,w
  4957  0D6F  00C3               	movwf	??___fldiv+1
  4958  0D70  0843               	movf	??___fldiv+1,w
  4959  0D71  00C1               	movwf	___fldiv@b+3
  4960  0D72  084B               	movf	___fldiv@sign,w
  4961  0D73  00C2               	movwf	??___fldiv
  4962  0D74  0842               	movf	??___fldiv,w
  4963  0D75  04C1               	iorwf	___fldiv@b+3,f
  4964  0D76  2C0F               	goto	l2327
  4965  0D77                     l628:
  4966  0D77  0008               	return
  4967  0D78                     __end_of___fldiv:
  4968                           
  4969                           	psect	text13
  4970  0D78                     __ptext13:	
  4971 ;; *************** function ___fladd *****************
  4972 ;; Defined at:
  4973 ;;		line 10 in file "C:\Program Files\Microchip\xc8\v2.31\pic\sources\c90\common\sprcadd.c"
  4974 ;; Parameters:    Size  Location     Type
  4975 ;;  b               4   52[BANK0 ] unsigned char 
  4976 ;;  a               4   56[BANK0 ] unsigned char 
  4977 ;; Auto vars:     Size  Location     Type
  4978 ;;  grs             1   71[BANK0 ] unsigned char 
  4979 ;;  bexp            1   70[BANK0 ] unsigned char 
  4980 ;;  aexp            1   69[BANK0 ] unsigned char 
  4981 ;;  signs           1   68[BANK0 ] unsigned char 
  4982 ;; Return value:  Size  Location     Type
  4983 ;;                  4   52[BANK0 ] unsigned char 
  4984 ;; Registers used:
  4985 ;;		wreg, status,2, status,0, btemp+1
  4986 ;; Tracked objects:
  4987 ;;		On entry : 0/0
  4988 ;;		On exit  : 0/0
  4989 ;;		Unchanged: 0/0
  4990 ;; Data sizes:     COMMON   BANK0   BANK1   BANK3   BANK2
  4991 ;;      Params:         0       8       0       0       0
  4992 ;;      Locals:         0       4       0       0       0
  4993 ;;      Temps:          0       8       0       0       0
  4994 ;;      Totals:         0      20       0       0       0
  4995 ;;Total ram usage:       20 bytes
  4996 ;; Hardware stack levels used:    1
  4997 ;; This function calls:
  4998 ;;		Nothing
  4999 ;; This function is called by:
  5000 ;;		_main
  5001 ;; This function uses a non-reentrant model
  5002 ;;
  5003                           
  5004                           
  5005                           ;psect for function ___fladd
  5006  0D78                     ___fladd:
  5007  0D78                     l2089:	
  5008                           ;incstack = 0
  5009                           ; Regs used in ___fladd: [wreg+status,2+status,0+btemp+1]
  5010                           
  5011  0D78  1283               	bcf	3,5	;RP0=0, select bank0
  5012  0D79  1303               	bcf	3,6	;RP1=0, select bank0
  5013  0D7A  0857               	movf	___fladd@b+3,w
  5014  0D7B  3980               	andlw	128
  5015  0D7C  00DC               	movwf	??___fladd
  5016  0D7D  085C               	movf	??___fladd,w
  5017  0D7E  00E4               	movwf	___fladd@signs
  5018  0D7F                     l2091:
  5019  0D7F  0857               	movf	___fladd@b+3,w
  5020  0D80  00DC               	movwf	??___fladd
  5021  0D81  075C               	addwf	??___fladd,w
  5022  0D82  00DD               	movwf	??___fladd+1
  5023  0D83  085D               	movf	??___fladd+1,w
  5024  0D84  00E6               	movwf	___fladd@bexp
  5025  0D85                     l2093:
  5026  0D85  1FD6               	btfss	___fladd@b+2,7
  5027  0D86  2D88               	goto	u2491
  5028  0D87  2D89               	goto	u2490
  5029  0D88                     u2491:
  5030  0D88  2D8A               	goto	l2097
  5031  0D89                     u2490:
  5032  0D89                     l2095:
  5033  0D89  1466               	bsf	___fladd@bexp,0
  5034  0D8A                     l2097:
  5035  0D8A  0866               	movf	___fladd@bexp,w
  5036  0D8B  1903               	btfsc	3,2
  5037  0D8C  2D8E               	goto	u2501
  5038  0D8D  2D8F               	goto	u2500
  5039  0D8E                     u2501:
  5040  0D8E  2D9F               	goto	l2107
  5041  0D8F                     u2500:
  5042  0D8F                     l2099:
  5043  0D8F  0A66               	incf	___fladd@bexp,w
  5044  0D90  1D03               	btfss	3,2
  5045  0D91  2D93               	goto	u2511
  5046  0D92  2D94               	goto	u2510
  5047  0D93                     u2511:
  5048  0D93  2D9C               	goto	l2103
  5049  0D94                     u2510:
  5050  0D94                     l2101:
  5051  0D94  3000               	movlw	0
  5052  0D95  00D7               	movwf	___fladd@b+3
  5053  0D96  3000               	movlw	0
  5054  0D97  00D6               	movwf	___fladd@b+2
  5055  0D98  3000               	movlw	0
  5056  0D99  00D5               	movwf	___fladd@b+1
  5057  0D9A  3000               	movlw	0
  5058  0D9B  00D4               	movwf	___fladd@b
  5059  0D9C                     l2103:
  5060  0D9C  17D6               	bsf	___fladd@b+2,7
  5061  0D9D                     l2105:
  5062  0D9D  01D7               	clrf	___fladd@b+3
  5063  0D9E  2DA7               	goto	l2109
  5064  0D9F                     l2107:
  5065  0D9F  3000               	movlw	0
  5066  0DA0  00D7               	movwf	___fladd@b+3
  5067  0DA1  3000               	movlw	0
  5068  0DA2  00D6               	movwf	___fladd@b+2
  5069  0DA3  3000               	movlw	0
  5070  0DA4  00D5               	movwf	___fladd@b+1
  5071  0DA5  3000               	movlw	0
  5072  0DA6  00D4               	movwf	___fladd@b
  5073  0DA7                     l2109:
  5074  0DA7  085B               	movf	___fladd@a+3,w
  5075  0DA8  3980               	andlw	128
  5076  0DA9  00DC               	movwf	??___fladd
  5077  0DAA  085C               	movf	??___fladd,w
  5078  0DAB  00E5               	movwf	___fladd@aexp
  5079  0DAC                     l2111:
  5080  0DAC  0865               	movf	___fladd@aexp,w
  5081  0DAD  0664               	xorwf	___fladd@signs,w
  5082  0DAE  1903               	skipnz
  5083  0DAF  2DB1               	goto	u2521
  5084  0DB0  2DB2               	goto	u2520
  5085  0DB1                     u2521:
  5086  0DB1  2DB3               	goto	l2115
  5087  0DB2                     u2520:
  5088  0DB2                     l2113:
  5089  0DB2  1764               	bsf	___fladd@signs,6
  5090  0DB3                     l2115:
  5091  0DB3  085B               	movf	___fladd@a+3,w
  5092  0DB4  00DC               	movwf	??___fladd
  5093  0DB5  075C               	addwf	??___fladd,w
  5094  0DB6  00DD               	movwf	??___fladd+1
  5095  0DB7  085D               	movf	??___fladd+1,w
  5096  0DB8  00E5               	movwf	___fladd@aexp
  5097  0DB9                     l2117:
  5098  0DB9  1FDA               	btfss	___fladd@a+2,7
  5099  0DBA  2DBC               	goto	u2531
  5100  0DBB  2DBD               	goto	u2530
  5101  0DBC                     u2531:
  5102  0DBC  2DBE               	goto	l2121
  5103  0DBD                     u2530:
  5104  0DBD                     l2119:
  5105  0DBD  1465               	bsf	___fladd@aexp,0
  5106  0DBE                     l2121:
  5107  0DBE  0865               	movf	___fladd@aexp,w
  5108  0DBF  1903               	btfsc	3,2
  5109  0DC0  2DC2               	goto	u2541
  5110  0DC1  2DC3               	goto	u2540
  5111  0DC2                     u2541:
  5112  0DC2  2DD3               	goto	l2131
  5113  0DC3                     u2540:
  5114  0DC3                     l2123:
  5115  0DC3  0A65               	incf	___fladd@aexp,w
  5116  0DC4  1D03               	btfss	3,2
  5117  0DC5  2DC7               	goto	u2551
  5118  0DC6  2DC8               	goto	u2550
  5119  0DC7                     u2551:
  5120  0DC7  2DD0               	goto	l2127
  5121  0DC8                     u2550:
  5122  0DC8                     l2125:
  5123  0DC8  3000               	movlw	0
  5124  0DC9  00DB               	movwf	___fladd@a+3
  5125  0DCA  3000               	movlw	0
  5126  0DCB  00DA               	movwf	___fladd@a+2
  5127  0DCC  3000               	movlw	0
  5128  0DCD  00D9               	movwf	___fladd@a+1
  5129  0DCE  3000               	movlw	0
  5130  0DCF  00D8               	movwf	___fladd@a
  5131  0DD0                     l2127:
  5132  0DD0  17DA               	bsf	___fladd@a+2,7
  5133  0DD1                     l2129:
  5134  0DD1  01DB               	clrf	___fladd@a+3
  5135  0DD2  2DDB               	goto	l570
  5136  0DD3                     l2131:
  5137  0DD3  3000               	movlw	0
  5138  0DD4  00DB               	movwf	___fladd@a+3
  5139  0DD5  3000               	movlw	0
  5140  0DD6  00DA               	movwf	___fladd@a+2
  5141  0DD7  3000               	movlw	0
  5142  0DD8  00D9               	movwf	___fladd@a+1
  5143  0DD9  3000               	movlw	0
  5144  0DDA  00D8               	movwf	___fladd@a
  5145  0DDB                     l570:
  5146  0DDB  0866               	movf	___fladd@bexp,w
  5147  0DDC  0265               	subwf	___fladd@aexp,w
  5148  0DDD  1803               	skipnc
  5149  0DDE  2DE0               	goto	u2561
  5150  0DDF  2DE1               	goto	u2560
  5151  0DE0                     u2561:
  5152  0DE0  2E25               	goto	l2167
  5153  0DE1                     u2560:
  5154  0DE1                     l2133:
  5155  0DE1  1F64               	btfss	___fladd@signs,6
  5156  0DE2  2DE4               	goto	u2571
  5157  0DE3  2DE5               	goto	u2570
  5158  0DE4                     u2571:
  5159  0DE4  2DE9               	goto	l2137
  5160  0DE5                     u2570:
  5161  0DE5                     l2135:
  5162  0DE5  3080               	movlw	128
  5163  0DE6  00DC               	movwf	??___fladd
  5164  0DE7  085C               	movf	??___fladd,w
  5165  0DE8  06E4               	xorwf	___fladd@signs,f
  5166  0DE9                     l2137:
  5167  0DE9  0866               	movf	___fladd@bexp,w
  5168  0DEA  00DC               	movwf	??___fladd
  5169  0DEB  085C               	movf	??___fladd,w
  5170  0DEC  00E7               	movwf	___fladd@grs
  5171  0DED                     l2139:
  5172  0DED  0865               	movf	___fladd@aexp,w
  5173  0DEE  00DC               	movwf	??___fladd
  5174  0DEF  085C               	movf	??___fladd,w
  5175  0DF0  00E6               	movwf	___fladd@bexp
  5176  0DF1                     l2141:
  5177  0DF1  0867               	movf	___fladd@grs,w
  5178  0DF2  00DC               	movwf	??___fladd
  5179  0DF3  085C               	movf	??___fladd,w
  5180  0DF4  00E5               	movwf	___fladd@aexp
  5181  0DF5                     l2143:
  5182  0DF5  0854               	movf	___fladd@b,w
  5183  0DF6  00DC               	movwf	??___fladd
  5184  0DF7  085C               	movf	??___fladd,w
  5185  0DF8  00E7               	movwf	___fladd@grs
  5186  0DF9                     l2145:
  5187  0DF9  0858               	movf	___fladd@a,w
  5188  0DFA  00DC               	movwf	??___fladd
  5189  0DFB  085C               	movf	??___fladd,w
  5190  0DFC  00D4               	movwf	___fladd@b
  5191  0DFD                     l2147:
  5192  0DFD  0867               	movf	___fladd@grs,w
  5193  0DFE  00DC               	movwf	??___fladd
  5194  0DFF  085C               	movf	??___fladd,w
  5195  0E00  00D8               	movwf	___fladd@a
  5196  0E01                     l2149:
  5197  0E01  0855               	movf	___fladd@b+1,w
  5198  0E02  00DC               	movwf	??___fladd
  5199  0E03  085C               	movf	??___fladd,w
  5200  0E04  00E7               	movwf	___fladd@grs
  5201  0E05                     l2151:
  5202  0E05  0859               	movf	___fladd@a+1,w
  5203  0E06  00DC               	movwf	??___fladd
  5204  0E07  085C               	movf	??___fladd,w
  5205  0E08  00D5               	movwf	___fladd@b+1
  5206  0E09                     l2153:
  5207  0E09  0867               	movf	___fladd@grs,w
  5208  0E0A  00DC               	movwf	??___fladd
  5209  0E0B  085C               	movf	??___fladd,w
  5210  0E0C  00D9               	movwf	___fladd@a+1
  5211  0E0D                     l2155:
  5212  0E0D  0856               	movf	___fladd@b+2,w
  5213  0E0E  00DC               	movwf	??___fladd
  5214  0E0F  085C               	movf	??___fladd,w
  5215  0E10  00E7               	movwf	___fladd@grs
  5216  0E11                     l2157:
  5217  0E11  085A               	movf	___fladd@a+2,w
  5218  0E12  00DC               	movwf	??___fladd
  5219  0E13  085C               	movf	??___fladd,w
  5220  0E14  00D6               	movwf	___fladd@b+2
  5221  0E15                     l2159:
  5222  0E15  0867               	movf	___fladd@grs,w
  5223  0E16  00DC               	movwf	??___fladd
  5224  0E17  085C               	movf	??___fladd,w
  5225  0E18  00DA               	movwf	___fladd@a+2
  5226  0E19                     l2161:
  5227  0E19  0857               	movf	___fladd@b+3,w
  5228  0E1A  00DC               	movwf	??___fladd
  5229  0E1B  085C               	movf	??___fladd,w
  5230  0E1C  00E7               	movwf	___fladd@grs
  5231  0E1D                     l2163:
  5232  0E1D  085B               	movf	___fladd@a+3,w
  5233  0E1E  00DC               	movwf	??___fladd
  5234  0E1F  085C               	movf	??___fladd,w
  5235  0E20  00D7               	movwf	___fladd@b+3
  5236  0E21                     l2165:
  5237  0E21  0867               	movf	___fladd@grs,w
  5238  0E22  00DC               	movwf	??___fladd
  5239  0E23  085C               	movf	??___fladd,w
  5240  0E24  00DB               	movwf	___fladd@a+3
  5241  0E25                     l2167:
  5242  0E25  01E7               	clrf	___fladd@grs
  5243  0E26                     l2169:
  5244  0E26  0865               	movf	___fladd@aexp,w
  5245  0E27  00DC               	movwf	??___fladd
  5246  0E28  01DD               	clrf	??___fladd+1
  5247  0E29  085D               	movf	??___fladd+1,w
  5248  0E2A  00DF               	movwf	??___fladd+3
  5249  0E2B  0866               	movf	___fladd@bexp,w
  5250  0E2C  025C               	subwf	??___fladd,w
  5251  0E2D  00DE               	movwf	??___fladd+2
  5252  0E2E  1C03               	skipc
  5253  0E2F  03DF               	decf	??___fladd+3,f
  5254  0E30  085F               	movf	??___fladd+3,w
  5255  0E31  3A80               	xorlw	128
  5256  0E32  00FF               	movwf	btemp+1
  5257  0E33  3080               	movlw	128
  5258  0E34  027F               	subwf	btemp+1,w
  5259  0E35  1D03               	skipz
  5260  0E36  2E39               	goto	u2585
  5261  0E37  301A               	movlw	26
  5262  0E38  025E               	subwf	??___fladd+2,w
  5263  0E39                     u2585:
  5264  0E39  1C03               	skipc
  5265  0E3A  2E3C               	goto	u2581
  5266  0E3B  2E3D               	goto	u2580
  5267  0E3C                     u2581:
  5268  0E3C  2E7A               	goto	l2185
  5269  0E3D                     u2580:
  5270  0E3D                     l2171:
  5271  0E3D  1283               	bcf	3,5	;RP0=0, select bank0
  5272  0E3E  1303               	bcf	3,6	;RP1=0, select bank0
  5273  0E3F  0857               	movf	___fladd@b+3,w
  5274  0E40  0456               	iorwf	___fladd@b+2,w
  5275  0E41  0455               	iorwf	___fladd@b+1,w
  5276  0E42  0454               	iorwf	___fladd@b,w
  5277  0E43  1D03               	skipz
  5278  0E44  2E46               	goto	u2591
  5279  0E45  2E48               	goto	u2590
  5280  0E46                     u2591:
  5281  0E46  3001               	movlw	1
  5282  0E47  2E49               	goto	u2600
  5283  0E48                     u2590:
  5284  0E48  3000               	movlw	0
  5285  0E49                     u2600:
  5286  0E49  00DC               	movwf	??___fladd
  5287  0E4A  085C               	movf	??___fladd,w
  5288  0E4B  00E7               	movwf	___fladd@grs
  5289  0E4C  3000               	movlw	0
  5290  0E4D  00D7               	movwf	___fladd@b+3
  5291  0E4E  3000               	movlw	0
  5292  0E4F  00D6               	movwf	___fladd@b+2
  5293  0E50  3000               	movlw	0
  5294  0E51  00D5               	movwf	___fladd@b+1
  5295  0E52  3000               	movlw	0
  5296  0E53  00D4               	movwf	___fladd@b
  5297  0E54  0865               	movf	___fladd@aexp,w
  5298  0E55  00DC               	movwf	??___fladd
  5299  0E56  085C               	movf	??___fladd,w
  5300  0E57  00E6               	movwf	___fladd@bexp
  5301  0E58  2E82               	goto	l574
  5302  0E59                     l576:
  5303  0E59  1C67               	btfss	___fladd@grs,0
  5304  0E5A  2E5C               	goto	u2611
  5305  0E5B  2E5D               	goto	u2610
  5306  0E5C                     u2611:
  5307  0E5C  2E66               	goto	l2175
  5308  0E5D                     u2610:
  5309  0E5D                     l2173:
  5310  0E5D  0867               	movf	___fladd@grs,w
  5311  0E5E  00DC               	movwf	??___fladd
  5312  0E5F  1003               	clrc
  5313  0E60  0C5C               	rrf	??___fladd,w
  5314  0E61  3801               	iorlw	1
  5315  0E62  00DD               	movwf	??___fladd+1
  5316  0E63  085D               	movf	??___fladd+1,w
  5317  0E64  00E7               	movwf	___fladd@grs
  5318  0E65  2E68               	goto	l2177
  5319  0E66                     l2175:
  5320  0E66  1003               	clrc
  5321  0E67  0CE7               	rrf	___fladd@grs,f
  5322  0E68                     l2177:
  5323  0E68  1C54               	btfss	___fladd@b,0
  5324  0E69  2E6B               	goto	u2621
  5325  0E6A  2E6C               	goto	u2620
  5326  0E6B                     u2621:
  5327  0E6B  2E6D               	goto	l2181
  5328  0E6C                     u2620:
  5329  0E6C                     l2179:
  5330  0E6C  17E7               	bsf	___fladd@grs,7
  5331  0E6D                     l2181:
  5332  0E6D  3001               	movlw	1
  5333  0E6E  00DC               	movwf	??___fladd
  5334  0E6F                     u2635:
  5335  0E6F  0D57               	rlf	___fladd@b+3,w
  5336  0E70  0CD7               	rrf	___fladd@b+3,f
  5337  0E71  0CD6               	rrf	___fladd@b+2,f
  5338  0E72  0CD5               	rrf	___fladd@b+1,f
  5339  0E73  0CD4               	rrf	___fladd@b,f
  5340  0E74  0BDC               	decfsz	??___fladd& (0+127),f
  5341  0E75  2E6F               	goto	u2635
  5342  0E76                     l2183:
  5343  0E76  3001               	movlw	1
  5344  0E77  00DC               	movwf	??___fladd
  5345  0E78  085C               	movf	??___fladd,w
  5346  0E79  07E6               	addwf	___fladd@bexp,f
  5347  0E7A                     l2185:
  5348  0E7A  1283               	bcf	3,5	;RP0=0, select bank0
  5349  0E7B  1303               	bcf	3,6	;RP1=0, select bank0
  5350  0E7C  0865               	movf	___fladd@aexp,w
  5351  0E7D  0266               	subwf	___fladd@bexp,w
  5352  0E7E  1C03               	skipc
  5353  0E7F  2E81               	goto	u2641
  5354  0E80  2E82               	goto	u2640
  5355  0E81                     u2641:
  5356  0E81  2E59               	goto	l576
  5357  0E82                     u2640:
  5358  0E82                     l574:
  5359  0E82  1B64               	btfsc	___fladd@signs,6
  5360  0E83  2E85               	goto	u2651
  5361  0E84  2E86               	goto	u2650
  5362  0E85                     u2651:
  5363  0E85  2ED1               	goto	l2211
  5364  0E86                     u2650:
  5365  0E86                     l2187:
  5366  0E86  0866               	movf	___fladd@bexp,w
  5367  0E87  1D03               	btfss	3,2
  5368  0E88  2E8A               	goto	u2661
  5369  0E89  2E8B               	goto	u2660
  5370  0E8A                     u2661:
  5371  0E8A  2E94               	goto	l2193
  5372  0E8B                     u2660:
  5373  0E8B                     l2189:
  5374  0E8B  3000               	movlw	0
  5375  0E8C  00D7               	movwf	?___fladd+3
  5376  0E8D  3000               	movlw	0
  5377  0E8E  00D6               	movwf	?___fladd+2
  5378  0E8F  3000               	movlw	0
  5379  0E90  00D5               	movwf	?___fladd+1
  5380  0E91  3000               	movlw	0
  5381  0E92  00D4               	movwf	?___fladd
  5382  0E93  2FFF               	goto	l583
  5383  0E94                     l2193:
  5384  0E94  0858               	movf	___fladd@a,w
  5385  0E95  07D4               	addwf	___fladd@b,f
  5386  0E96  0859               	movf	___fladd@a+1,w
  5387  0E97  1103               	clrz
  5388  0E98  1803               	skipnc
  5389  0E99  3E01               	addlw	1
  5390  0E9A  1903               	skipnz
  5391  0E9B  2E9D               	goto	u2671
  5392  0E9C  07D5               	addwf	___fladd@b+1,f
  5393  0E9D                     u2671:
  5394  0E9D  085A               	movf	___fladd@a+2,w
  5395  0E9E  1103               	clrz
  5396  0E9F  1803               	skipnc
  5397  0EA0  3E01               	addlw	1
  5398  0EA1  1903               	skipnz
  5399  0EA2  2EA4               	goto	u2672
  5400  0EA3  07D6               	addwf	___fladd@b+2,f
  5401  0EA4                     u2672:
  5402  0EA4  085B               	movf	___fladd@a+3,w
  5403  0EA5  1103               	clrz
  5404  0EA6  1803               	skipnc
  5405  0EA7  3E01               	addlw	1
  5406  0EA8  1903               	skipnz
  5407  0EA9  2EAB               	goto	u2673
  5408  0EAA  07D7               	addwf	___fladd@b+3,f
  5409  0EAB                     u2673:
  5410  0EAB                     l2195:
  5411  0EAB  1C57               	btfss	___fladd@b+3,0
  5412  0EAC  2EAE               	goto	u2681
  5413  0EAD  2EAF               	goto	u2680
  5414  0EAE                     u2681:
  5415  0EAE  2F85               	goto	l2245
  5416  0EAF                     u2680:
  5417  0EAF                     l2197:
  5418  0EAF  1C67               	btfss	___fladd@grs,0
  5419  0EB0  2EB2               	goto	u2691
  5420  0EB1  2EB3               	goto	u2690
  5421  0EB2                     u2691:
  5422  0EB2  2EBC               	goto	l2201
  5423  0EB3                     u2690:
  5424  0EB3                     l2199:
  5425  0EB3  0867               	movf	___fladd@grs,w
  5426  0EB4  00DC               	movwf	??___fladd
  5427  0EB5  1003               	clrc
  5428  0EB6  0C5C               	rrf	??___fladd,w
  5429  0EB7  3801               	iorlw	1
  5430  0EB8  00DD               	movwf	??___fladd+1
  5431  0EB9  085D               	movf	??___fladd+1,w
  5432  0EBA  00E7               	movwf	___fladd@grs
  5433  0EBB  2EBE               	goto	l2203
  5434  0EBC                     l2201:
  5435  0EBC  1003               	clrc
  5436  0EBD  0CE7               	rrf	___fladd@grs,f
  5437  0EBE                     l2203:
  5438  0EBE  1C54               	btfss	___fladd@b,0
  5439  0EBF  2EC1               	goto	u2701
  5440  0EC0  2EC2               	goto	u2700
  5441  0EC1                     u2701:
  5442  0EC1  2EC3               	goto	l2207
  5443  0EC2                     u2700:
  5444  0EC2                     l2205:
  5445  0EC2  17E7               	bsf	___fladd@grs,7
  5446  0EC3                     l2207:
  5447  0EC3  3001               	movlw	1
  5448  0EC4  00DC               	movwf	??___fladd
  5449  0EC5                     u2715:
  5450  0EC5  0D57               	rlf	___fladd@b+3,w
  5451  0EC6  0CD7               	rrf	___fladd@b+3,f
  5452  0EC7  0CD6               	rrf	___fladd@b+2,f
  5453  0EC8  0CD5               	rrf	___fladd@b+1,f
  5454  0EC9  0CD4               	rrf	___fladd@b,f
  5455  0ECA  0BDC               	decfsz	??___fladd& (0+127),f
  5456  0ECB  2EC5               	goto	u2715
  5457  0ECC                     l2209:
  5458  0ECC  3001               	movlw	1
  5459  0ECD  00DC               	movwf	??___fladd
  5460  0ECE  085C               	movf	??___fladd,w
  5461  0ECF  07E6               	addwf	___fladd@bexp,f
  5462  0ED0  2F85               	goto	l2245
  5463  0ED1                     l2211:
  5464  0ED1  0857               	movf	___fladd@b+3,w
  5465  0ED2  3A80               	xorlw	128
  5466  0ED3  00FF               	movwf	btemp+1
  5467  0ED4  085B               	movf	___fladd@a+3,w
  5468  0ED5  3A80               	xorlw	128
  5469  0ED6  027F               	subwf	btemp+1,w
  5470  0ED7  1D03               	skipz
  5471  0ED8  2EE3               	goto	u2723
  5472  0ED9  085A               	movf	___fladd@a+2,w
  5473  0EDA  0256               	subwf	___fladd@b+2,w
  5474  0EDB  1D03               	skipz
  5475  0EDC  2EE3               	goto	u2723
  5476  0EDD  0859               	movf	___fladd@a+1,w
  5477  0EDE  0255               	subwf	___fladd@b+1,w
  5478  0EDF  1D03               	skipz
  5479  0EE0  2EE3               	goto	u2723
  5480  0EE1  0858               	movf	___fladd@a,w
  5481  0EE2  0254               	subwf	___fladd@b,w
  5482  0EE3                     u2723:
  5483  0EE3  1803               	skipnc
  5484  0EE4  2EE6               	goto	u2721
  5485  0EE5  2EE7               	goto	u2720
  5486  0EE6                     u2721:
  5487  0EE6  2F3F               	goto	l2221
  5488  0EE7                     u2720:
  5489  0EE7                     l2213:
  5490  0EE7  30FF               	movlw	255
  5491  0EE8  00DC               	movwf	??___fladd
  5492  0EE9  30FF               	movlw	255
  5493  0EEA  00DD               	movwf	??___fladd+1
  5494  0EEB  30FF               	movlw	255
  5495  0EEC  00DE               	movwf	??___fladd+2
  5496  0EED  30FF               	movlw	255
  5497  0EEE  00DF               	movwf	??___fladd+3
  5498  0EEF  0858               	movf	___fladd@a,w
  5499  0EF0  00E0               	movwf	??___fladd+4
  5500  0EF1  0859               	movf	___fladd@a+1,w
  5501  0EF2  00E1               	movwf	??___fladd+5
  5502  0EF3  085A               	movf	___fladd@a+2,w
  5503  0EF4  00E2               	movwf	??___fladd+6
  5504  0EF5  085B               	movf	___fladd@a+3,w
  5505  0EF6  00E3               	movwf	??___fladd+7
  5506  0EF7  0854               	movf	___fladd@b,w
  5507  0EF8  02E0               	subwf	??___fladd+4,f
  5508  0EF9  0855               	movf	___fladd@b+1,w
  5509  0EFA  1C03               	skipc
  5510  0EFB  0F55               	incfsz	___fladd@b+1,w
  5511  0EFC  2EFE               	goto	u2731
  5512  0EFD  2EFF               	goto	u2732
  5513  0EFE                     u2731:
  5514  0EFE  02E1               	subwf	??___fladd+5,f
  5515  0EFF                     u2732:
  5516  0EFF  0856               	movf	___fladd@b+2,w
  5517  0F00  1C03               	skipc
  5518  0F01  0F56               	incfsz	___fladd@b+2,w
  5519  0F02  2F04               	goto	u2733
  5520  0F03  2F05               	goto	u2734
  5521  0F04                     u2733:
  5522  0F04  02E2               	subwf	??___fladd+6,f
  5523  0F05                     u2734:
  5524  0F05  0857               	movf	___fladd@b+3,w
  5525  0F06  1C03               	skipc
  5526  0F07  0F57               	incfsz	___fladd@b+3,w
  5527  0F08  2F0A               	goto	u2735
  5528  0F09  2F0B               	goto	u2736
  5529  0F0A                     u2735:
  5530  0F0A  02E3               	subwf	??___fladd+7,f
  5531  0F0B                     u2736:
  5532  0F0B  0860               	movf	??___fladd+4,w
  5533  0F0C  07DC               	addwf	??___fladd,f
  5534  0F0D  0861               	movf	??___fladd+5,w
  5535  0F0E  1803               	skipnc
  5536  0F0F  0F61               	incfsz	??___fladd+5,w
  5537  0F10  2F12               	goto	u2740
  5538  0F11  2F13               	goto	u2741
  5539  0F12                     u2740:
  5540  0F12  07DD               	addwf	??___fladd+1,f
  5541  0F13                     u2741:
  5542  0F13  0862               	movf	??___fladd+6,w
  5543  0F14  1803               	skipnc
  5544  0F15  0F62               	incfsz	??___fladd+6,w
  5545  0F16  2F18               	goto	u2742
  5546  0F17  2F19               	goto	u2743
  5547  0F18                     u2742:
  5548  0F18  07DE               	addwf	??___fladd+2,f
  5549  0F19                     u2743:
  5550  0F19  0863               	movf	??___fladd+7,w
  5551  0F1A  1803               	skipnc
  5552  0F1B  0A63               	incf	??___fladd+7,w
  5553  0F1C  07DF               	addwf	??___fladd+3,f
  5554  0F1D  085F               	movf	??___fladd+3,w
  5555  0F1E  00D7               	movwf	___fladd@b+3
  5556  0F1F  085E               	movf	??___fladd+2,w
  5557  0F20  00D6               	movwf	___fladd@b+2
  5558  0F21  085D               	movf	??___fladd+1,w
  5559  0F22  00D5               	movwf	___fladd@b+1
  5560  0F23  085C               	movf	??___fladd,w
  5561  0F24  00D4               	movwf	___fladd@b
  5562  0F25                     l2215:
  5563  0F25  3080               	movlw	128
  5564  0F26  00DC               	movwf	??___fladd
  5565  0F27  085C               	movf	??___fladd,w
  5566  0F28  06E4               	xorwf	___fladd@signs,f
  5567  0F29  09E7               	comf	___fladd@grs,f
  5568  0F2A  0AE7               	incf	___fladd@grs,f
  5569  0F2B                     l2217:
  5570  0F2B  0867               	movf	___fladd@grs,w
  5571  0F2C  1D03               	btfss	3,2
  5572  0F2D  2F2F               	goto	u2751
  5573  0F2E  2F30               	goto	u2750
  5574  0F2F                     u2751:
  5575  0F2F  2F4D               	goto	l591
  5576  0F30                     u2750:
  5577  0F30                     l2219:
  5578  0F30  3001               	movlw	1
  5579  0F31  07D4               	addwf	___fladd@b,f
  5580  0F32  3000               	movlw	0
  5581  0F33  1803               	skipnc
  5582  0F34  3001               	movlw	1
  5583  0F35  07D5               	addwf	___fladd@b+1,f
  5584  0F36  3000               	movlw	0
  5585  0F37  1803               	skipnc
  5586  0F38  3001               	movlw	1
  5587  0F39  07D6               	addwf	___fladd@b+2,f
  5588  0F3A  3000               	movlw	0
  5589  0F3B  1803               	skipnc
  5590  0F3C  3001               	movlw	1
  5591  0F3D  07D7               	addwf	___fladd@b+3,f
  5592  0F3E  2F4D               	goto	l591
  5593  0F3F                     l2221:
  5594  0F3F  0858               	movf	___fladd@a,w
  5595  0F40  02D4               	subwf	___fladd@b,f
  5596  0F41  0859               	movf	___fladd@a+1,w
  5597  0F42  1C03               	skipc
  5598  0F43  0F59               	incfsz	___fladd@a+1,w
  5599  0F44  02D5               	subwf	___fladd@b+1,f
  5600  0F45  085A               	movf	___fladd@a+2,w
  5601  0F46  1C03               	skipc
  5602  0F47  0F5A               	incfsz	___fladd@a+2,w
  5603  0F48  02D6               	subwf	___fladd@b+2,f
  5604  0F49  085B               	movf	___fladd@a+3,w
  5605  0F4A  1C03               	skipc
  5606  0F4B  0F5B               	incfsz	___fladd@a+3,w
  5607  0F4C  02D7               	subwf	___fladd@b+3,f
  5608  0F4D                     l591:
  5609  0F4D  0857               	movf	___fladd@b+3,w
  5610  0F4E  0456               	iorwf	___fladd@b+2,w
  5611  0F4F  0455               	iorwf	___fladd@b+1,w
  5612  0F50  0454               	iorwf	___fladd@b,w
  5613  0F51  1D03               	skipz
  5614  0F52  2F54               	goto	u2761
  5615  0F53  2F55               	goto	u2760
  5616  0F54                     u2761:
  5617  0F54  2F81               	goto	l2243
  5618  0F55                     u2760:
  5619  0F55                     l2223:
  5620  0F55  0867               	movf	___fladd@grs,w
  5621  0F56  1D03               	btfss	3,2
  5622  0F57  2F59               	goto	u2771
  5623  0F58  2F5A               	goto	u2770
  5624  0F59                     u2771:
  5625  0F59  2F81               	goto	l2243
  5626  0F5A                     u2770:
  5627  0F5A                     l2225:
  5628  0F5A  3000               	movlw	0
  5629  0F5B  00D7               	movwf	?___fladd+3
  5630  0F5C  3000               	movlw	0
  5631  0F5D  00D6               	movwf	?___fladd+2
  5632  0F5E  3000               	movlw	0
  5633  0F5F  00D5               	movwf	?___fladd+1
  5634  0F60  3000               	movlw	0
  5635  0F61  00D4               	movwf	?___fladd
  5636  0F62  2FFF               	goto	l583
  5637  0F63                     l2229:
  5638  0F63  3001               	movlw	1
  5639  0F64  00DC               	movwf	??___fladd
  5640  0F65                     u2785:
  5641  0F65  1003               	clrc
  5642  0F66  0DD4               	rlf	___fladd@b,f
  5643  0F67  0DD5               	rlf	___fladd@b+1,f
  5644  0F68  0DD6               	rlf	___fladd@b+2,f
  5645  0F69  0DD7               	rlf	___fladd@b+3,f
  5646  0F6A  0BDC               	decfsz	??___fladd,f
  5647  0F6B  2F65               	goto	u2785
  5648  0F6C                     l2231:
  5649  0F6C  1FE7               	btfss	___fladd@grs,7
  5650  0F6D  2F6F               	goto	u2791
  5651  0F6E  2F70               	goto	u2790
  5652  0F6F                     u2791:
  5653  0F6F  2F71               	goto	l595
  5654  0F70                     u2790:
  5655  0F70                     l2233:
  5656  0F70  1454               	bsf	___fladd@b,0
  5657  0F71                     l595:
  5658  0F71  1C67               	btfss	___fladd@grs,0
  5659  0F72  2F74               	goto	u2801
  5660  0F73  2F75               	goto	u2800
  5661  0F74                     u2801:
  5662  0F74  2F78               	goto	l2237
  5663  0F75                     u2800:
  5664  0F75                     l2235:
  5665  0F75  1403               	setc
  5666  0F76  0DE7               	rlf	___fladd@grs,f
  5667  0F77  2F7A               	goto	l2239
  5668  0F78                     l2237:
  5669  0F78  1003               	clrc
  5670  0F79  0DE7               	rlf	___fladd@grs,f
  5671  0F7A                     l2239:
  5672  0F7A  0866               	movf	___fladd@bexp,w
  5673  0F7B  1903               	btfsc	3,2
  5674  0F7C  2F7E               	goto	u2811
  5675  0F7D  2F7F               	goto	u2810
  5676  0F7E                     u2811:
  5677  0F7E  2F81               	goto	l2243
  5678  0F7F                     u2810:
  5679  0F7F                     l2241:
  5680  0F7F  3001               	movlw	1
  5681  0F80  02E6               	subwf	___fladd@bexp,f
  5682  0F81                     l2243:
  5683  0F81  1FD6               	btfss	___fladd@b+2,7
  5684  0F82  2F84               	goto	u2821
  5685  0F83  2F85               	goto	u2820
  5686  0F84                     u2821:
  5687  0F84  2F63               	goto	l2229
  5688  0F85                     u2820:
  5689  0F85                     l2245:
  5690  0F85  01E5               	clrf	___fladd@aexp
  5691  0F86                     l2247:
  5692  0F86  1FE7               	btfss	___fladd@grs,7
  5693  0F87  2F89               	goto	u2831
  5694  0F88  2F8A               	goto	u2830
  5695  0F89                     u2831:
  5696  0F89  2F98               	goto	l2255
  5697  0F8A                     u2830:
  5698  0F8A                     l2249:
  5699  0F8A  0867               	movf	___fladd@grs,w
  5700  0F8B  397F               	andlw	127
  5701  0F8C  1903               	btfsc	3,2
  5702  0F8D  2F8F               	goto	u2841
  5703  0F8E  2F90               	goto	u2840
  5704  0F8F                     u2841:
  5705  0F8F  2F93               	goto	l601
  5706  0F90                     u2840:
  5707  0F90                     l2251:
  5708  0F90  01E5               	clrf	___fladd@aexp
  5709  0F91  0AE5               	incf	___fladd@aexp,f
  5710  0F92  2F98               	goto	l2255
  5711  0F93                     l601:
  5712  0F93  1C54               	btfss	___fladd@b,0
  5713  0F94  2F96               	goto	u2851
  5714  0F95  2F97               	goto	u2850
  5715  0F96                     u2851:
  5716  0F96  2F98               	goto	l2255
  5717  0F97                     u2850:
  5718  0F97  2F90               	goto	l2251
  5719  0F98                     l2255:
  5720  0F98  0865               	movf	___fladd@aexp,w
  5721  0F99  1903               	btfsc	3,2
  5722  0F9A  2F9C               	goto	u2861
  5723  0F9B  2F9D               	goto	u2860
  5724  0F9C                     u2861:
  5725  0F9C  2FD1               	goto	l604
  5726  0F9D                     u2860:
  5727  0F9D                     l2257:
  5728  0F9D  3001               	movlw	1
  5729  0F9E  07D4               	addwf	___fladd@b,f
  5730  0F9F  3000               	movlw	0
  5731  0FA0  1803               	skipnc
  5732  0FA1  3001               	movlw	1
  5733  0FA2  07D5               	addwf	___fladd@b+1,f
  5734  0FA3  3000               	movlw	0
  5735  0FA4  1803               	skipnc
  5736  0FA5  3001               	movlw	1
  5737  0FA6  07D6               	addwf	___fladd@b+2,f
  5738  0FA7  3000               	movlw	0
  5739  0FA8  1803               	skipnc
  5740  0FA9  3001               	movlw	1
  5741  0FAA  07D7               	addwf	___fladd@b+3,f
  5742  0FAB                     l2259:
  5743  0FAB  1C57               	btfss	___fladd@b+3,0
  5744  0FAC  2FAE               	goto	u2871
  5745  0FAD  2FAF               	goto	u2870
  5746  0FAE                     u2871:
  5747  0FAE  2FD1               	goto	l604
  5748  0FAF                     u2870:
  5749  0FAF                     l2261:
  5750  0FAF  0854               	movf	___fladd@b,w
  5751  0FB0  00DC               	movwf	??___fladd
  5752  0FB1  0855               	movf	___fladd@b+1,w
  5753  0FB2  00DD               	movwf	??___fladd+1
  5754  0FB3  0856               	movf	___fladd@b+2,w
  5755  0FB4  00DE               	movwf	??___fladd+2
  5756  0FB5  0857               	movf	___fladd@b+3,w
  5757  0FB6  00DF               	movwf	??___fladd+3
  5758  0FB7  3001               	movlw	1
  5759  0FB8  00E0               	movwf	??___fladd+4
  5760  0FB9                     u2885:
  5761  0FB9  0D5F               	rlf	??___fladd+3,w
  5762  0FBA  0CDF               	rrf	??___fladd+3,f
  5763  0FBB  0CDE               	rrf	??___fladd+2,f
  5764  0FBC  0CDD               	rrf	??___fladd+1,f
  5765  0FBD  0CDC               	rrf	??___fladd,f
  5766  0FBE                     u2880:
  5767  0FBE  0BE0               	decfsz	??___fladd+4,f
  5768  0FBF  2FB9               	goto	u2885
  5769  0FC0  085F               	movf	??___fladd+3,w
  5770  0FC1  00D7               	movwf	___fladd@b+3
  5771  0FC2  085E               	movf	??___fladd+2,w
  5772  0FC3  00D6               	movwf	___fladd@b+2
  5773  0FC4  085D               	movf	??___fladd+1,w
  5774  0FC5  00D5               	movwf	___fladd@b+1
  5775  0FC6  085C               	movf	??___fladd,w
  5776  0FC7  00D4               	movwf	___fladd@b
  5777  0FC8  0A66               	incf	___fladd@bexp,w
  5778  0FC9  1903               	btfsc	3,2
  5779  0FCA  2FCC               	goto	u2891
  5780  0FCB  2FCD               	goto	u2890
  5781  0FCC                     u2891:
  5782  0FCC  2FD1               	goto	l604
  5783  0FCD                     u2890:
  5784  0FCD                     l2263:
  5785  0FCD  3001               	movlw	1
  5786  0FCE  00DC               	movwf	??___fladd
  5787  0FCF  085C               	movf	??___fladd,w
  5788  0FD0  07E6               	addwf	___fladd@bexp,f
  5789  0FD1                     l604:
  5790  0FD1  0A66               	incf	___fladd@bexp,w
  5791  0FD2  1903               	btfsc	3,2
  5792  0FD3  2FD5               	goto	u2901
  5793  0FD4  2FD6               	goto	u2900
  5794  0FD5                     u2901:
  5795  0FD5  2FDB               	goto	l2267
  5796  0FD6                     u2900:
  5797  0FD6                     l2265:
  5798  0FD6  0866               	movf	___fladd@bexp,w
  5799  0FD7  1D03               	btfss	3,2
  5800  0FD8  2FDA               	goto	u2911
  5801  0FD9  2FDB               	goto	u2910
  5802  0FDA                     u2911:
  5803  0FDA  2FE9               	goto	l2273
  5804  0FDB                     u2910:
  5805  0FDB                     l2267:
  5806  0FDB  3000               	movlw	0
  5807  0FDC  00D7               	movwf	___fladd@b+3
  5808  0FDD  3000               	movlw	0
  5809  0FDE  00D6               	movwf	___fladd@b+2
  5810  0FDF  3000               	movlw	0
  5811  0FE0  00D5               	movwf	___fladd@b+1
  5812  0FE1  3000               	movlw	0
  5813  0FE2  00D4               	movwf	___fladd@b
  5814  0FE3                     l2269:
  5815  0FE3  0866               	movf	___fladd@bexp,w
  5816  0FE4  1D03               	btfss	3,2
  5817  0FE5  2FE7               	goto	u2921
  5818  0FE6  2FE8               	goto	u2920
  5819  0FE7                     u2921:
  5820  0FE7  2FE9               	goto	l2273
  5821  0FE8                     u2920:
  5822  0FE8                     l2271:
  5823  0FE8  01E4               	clrf	___fladd@signs
  5824  0FE9                     l2273:
  5825  0FE9  1C66               	btfss	___fladd@bexp,0
  5826  0FEA  2FEC               	goto	u2931
  5827  0FEB  2FED               	goto	u2930
  5828  0FEC                     u2931:
  5829  0FEC  2FEF               	goto	l2277
  5830  0FED                     u2930:
  5831  0FED                     l2275:
  5832  0FED  17D6               	bsf	___fladd@b+2,7
  5833  0FEE  2FF3               	goto	l612
  5834  0FEF                     l2277:
  5835  0FEF  307F               	movlw	127
  5836  0FF0  00DC               	movwf	??___fladd
  5837  0FF1  085C               	movf	??___fladd,w
  5838  0FF2  05D6               	andwf	___fladd@b+2,f
  5839  0FF3                     l612:
  5840  0FF3  0866               	movf	___fladd@bexp,w
  5841  0FF4  00DC               	movwf	??___fladd
  5842  0FF5  1003               	clrc
  5843  0FF6  0C5C               	rrf	??___fladd,w
  5844  0FF7  00DD               	movwf	??___fladd+1
  5845  0FF8  085D               	movf	??___fladd+1,w
  5846  0FF9  00D7               	movwf	___fladd@b+3
  5847  0FFA                     l2279:
  5848  0FFA  1FE4               	btfss	___fladd@signs,7
  5849  0FFB  2FFD               	goto	u2941
  5850  0FFC  2FFE               	goto	u2940
  5851  0FFD                     u2941:
  5852  0FFD  2FFF               	goto	l613
  5853  0FFE                     u2940:
  5854  0FFE                     l2281:
  5855  0FFE  17D7               	bsf	___fladd@b+3,7
  5856  0FFF                     l613:
  5857  0FFF                     l583:
  5858  0FFF  0008               	return
  5859  1000                     __end_of___fladd:
  5860                           
  5861                           	psect	text14
  5862  082B                     __ptext14:	
  5863 ;; *************** function _Lcd_Write_String *****************
  5864 ;; Defined at:
  5865 ;;		line 98 in file "LCD_4b.c"
  5866 ;; Parameters:    Size  Location     Type
  5867 ;;  a               1    wreg     PTR unsigned char 
  5868 ;;		 -> STR_3(4), STR_2(4), STR_1(4), 
  5869 ;; Auto vars:     Size  Location     Type
  5870 ;;  a               1    7[COMMON] PTR unsigned char 
  5871 ;;		 -> STR_3(4), STR_2(4), STR_1(4), 
  5872 ;;  i               2    5[COMMON] int 
  5873 ;; Return value:  Size  Location     Type
  5874 ;;                  1    wreg      void 
  5875 ;; Registers used:
  5876 ;;		wreg, fsr0l, fsr0h, status,2, status,0, pclath, cstack
  5877 ;; Tracked objects:
  5878 ;;		On entry : 0/0
  5879 ;;		On exit  : 0/0
  5880 ;;		Unchanged: 0/0
  5881 ;; Data sizes:     COMMON   BANK0   BANK1   BANK3   BANK2
  5882 ;;      Params:         0       0       0       0       0
  5883 ;;      Locals:         3       0       0       0       0
  5884 ;;      Temps:          0       0       0       0       0
  5885 ;;      Totals:         3       0       0       0       0
  5886 ;;Total ram usage:        3 bytes
  5887 ;; Hardware stack levels used:    1
  5888 ;; Hardware stack levels required when called:    2
  5889 ;; This function calls:
  5890 ;;		_Lcd_Write_Char
  5891 ;; This function is called by:
  5892 ;;		_main
  5893 ;; This function uses a non-reentrant model
  5894 ;;
  5895                           
  5896                           
  5897                           ;psect for function _Lcd_Write_String
  5898  082B                     _Lcd_Write_String:
  5899                           
  5900                           ;incstack = 0
  5901                           ; Regs used in _Lcd_Write_String: [wreg-fsr0h+status,2+status,0+pclath+cstack]
  5902                           ;Lcd_Write_String@a stored from wreg
  5903  082B  00F7               	movwf	Lcd_Write_String@a
  5904  082C                     l1987:
  5905                           
  5906                           ;LCD_4b.c: 99:     int i;;LCD_4b.c: 100:     for (i = 0; a[i] != '\0'; i++)
  5907  082C  01F5               	clrf	Lcd_Write_String@i
  5908  082D  01F6               	clrf	Lcd_Write_String@i+1
  5909  082E  2842               	goto	l1993
  5910  082F                     l1989:
  5911                           
  5912                           ;LCD_4b.c: 101:         Lcd_Write_Char(a[i]);
  5913  082F  0875               	movf	Lcd_Write_String@i,w
  5914  0830  0777               	addwf	Lcd_Write_String@a,w
  5915  0831  0084               	movwf	4
  5916  0832  160A  118A  2000  120A  158A  	fcall	stringdir
  5917  0837  120A  158A  2077  120A  158A  	fcall	_Lcd_Write_Char
  5918  083C                     l1991:
  5919  083C  3001               	movlw	1
  5920  083D  07F5               	addwf	Lcd_Write_String@i,f
  5921  083E  1803               	skipnc
  5922  083F  0AF6               	incf	Lcd_Write_String@i+1,f
  5923  0840  3000               	movlw	0
  5924  0841  07F6               	addwf	Lcd_Write_String@i+1,f
  5925  0842                     l1993:
  5926  0842  0875               	movf	Lcd_Write_String@i,w
  5927  0843  0777               	addwf	Lcd_Write_String@a,w
  5928  0844  0084               	movwf	4
  5929  0845  160A  118A  2000  120A  158A  	fcall	stringdir
  5930  084A  3A00               	xorlw	0
  5931  084B  1D03               	skipz
  5932  084C  284E               	goto	u2301
  5933  084D  284F               	goto	u2300
  5934  084E                     u2301:
  5935  084E  282F               	goto	l1989
  5936  084F                     u2300:
  5937  084F                     l185:
  5938  084F  0008               	return
  5939  0850                     __end_of_Lcd_Write_String:
  5940                           
  5941                           	psect	text15
  5942  0877                     __ptext15:	
  5943 ;; *************** function _Lcd_Write_Char *****************
  5944 ;; Defined at:
  5945 ;;		line 83 in file "LCD_4b.c"
  5946 ;; Parameters:    Size  Location     Type
  5947 ;;  a               1    wreg     unsigned char 
  5948 ;; Auto vars:     Size  Location     Type
  5949 ;;  a               1    4[COMMON] unsigned char 
  5950 ;;  y               1    3[COMMON] unsigned char 
  5951 ;;  temp            1    2[COMMON] unsigned char 
  5952 ;; Return value:  Size  Location     Type
  5953 ;;                  1    wreg      void 
  5954 ;; Registers used:
  5955 ;;		wreg, status,2, status,0, pclath, cstack
  5956 ;; Tracked objects:
  5957 ;;		On entry : 0/0
  5958 ;;		On exit  : 0/0
  5959 ;;		Unchanged: 0/0
  5960 ;; Data sizes:     COMMON   BANK0   BANK1   BANK3   BANK2
  5961 ;;      Params:         0       0       0       0       0
  5962 ;;      Locals:         3       0       0       0       0
  5963 ;;      Temps:          1       0       0       0       0
  5964 ;;      Totals:         4       0       0       0       0
  5965 ;;Total ram usage:        4 bytes
  5966 ;; Hardware stack levels used:    1
  5967 ;; Hardware stack levels required when called:    1
  5968 ;; This function calls:
  5969 ;;		_Lcd_Port
  5970 ;; This function is called by:
  5971 ;;		_main
  5972 ;;		_Lcd_Write_String
  5973 ;; This function uses a non-reentrant model
  5974 ;;
  5975                           
  5976                           
  5977                           ;psect for function _Lcd_Write_Char
  5978  0877                     _Lcd_Write_Char:
  5979                           
  5980                           ;incstack = 0
  5981                           ; Regs used in _Lcd_Write_Char: [wreg+status,2+status,0+pclath+cstack]
  5982                           ;Lcd_Write_Char@a stored from wreg
  5983  0877  00F4               	movwf	Lcd_Write_Char@a
  5984  0878                     l1799:
  5985                           
  5986                           ;LCD_4b.c: 84:     char temp, y;;LCD_4b.c: 85:     temp = a & 0x0F;
  5987  0878  0874               	movf	Lcd_Write_Char@a,w
  5988  0879  390F               	andlw	15
  5989  087A  00F1               	movwf	??_Lcd_Write_Char
  5990  087B  0871               	movf	??_Lcd_Write_Char,w
  5991  087C  00F2               	movwf	Lcd_Write_Char@temp
  5992                           
  5993                           ;LCD_4b.c: 86:     y = a & 0xF0;
  5994  087D  0874               	movf	Lcd_Write_Char@a,w
  5995  087E  39F0               	andlw	240
  5996  087F  00F1               	movwf	??_Lcd_Write_Char
  5997  0880  0871               	movf	??_Lcd_Write_Char,w
  5998  0881  00F3               	movwf	Lcd_Write_Char@y
  5999  0882                     l1801:
  6000                           
  6001                           ;LCD_4b.c: 87:     PORTDbits.RD2 = 1;
  6002  0882  1283               	bcf	3,5	;RP0=0, select bank0
  6003  0883  1303               	bcf	3,6	;RP1=0, select bank0
  6004  0884  1508               	bsf	8,2	;volatile
  6005  0885                     l1803:
  6006                           
  6007                           ;LCD_4b.c: 88:     Lcd_Port(y >> 4);
  6008  0885  0873               	movf	Lcd_Write_Char@y,w
  6009  0886  00F1               	movwf	??_Lcd_Write_Char
  6010  0887  3004               	movlw	4
  6011  0888                     u2005:
  6012  0888  1003               	clrc
  6013  0889  0CF1               	rrf	??_Lcd_Write_Char,f
  6014  088A  3EFF               	addlw	-1
  6015  088B  1D03               	skipz
  6016  088C  2888               	goto	u2005
  6017  088D  0871               	movf	??_Lcd_Write_Char,w
  6018  088E  120A  158A  2009  120A  158A  	fcall	_Lcd_Port
  6019  0893                     l1805:
  6020                           
  6021                           ;LCD_4b.c: 89:     RD3 = 1;
  6022  0893  1283               	bcf	3,5	;RP0=0, select bank0
  6023  0894  1303               	bcf	3,6	;RP1=0, select bank0
  6024  0895  1588               	bsf	8,3	;volatile
  6025  0896                     l1807:
  6026                           
  6027                           ;LCD_4b.c: 90:     _delay((unsigned long)((40)*(4000000/4000000.0)));
  6028  0896  300D               	movlw	13
  6029  0897  00F1               	movwf	??_Lcd_Write_Char
  6030  0898                     u3817:
  6031  0898  0BF1               	decfsz	??_Lcd_Write_Char,f
  6032  0899  2898               	goto	u3817
  6033  089A                     l1809:
  6034                           
  6035                           ;LCD_4b.c: 91:     RD3 = 0;
  6036  089A  1283               	bcf	3,5	;RP0=0, select bank0
  6037  089B  1303               	bcf	3,6	;RP1=0, select bank0
  6038  089C  1188               	bcf	8,3	;volatile
  6039  089D                     l1811:
  6040                           
  6041                           ;LCD_4b.c: 92:     Lcd_Port(temp);
  6042  089D  0872               	movf	Lcd_Write_Char@temp,w
  6043  089E  120A  158A  2009  120A  158A  	fcall	_Lcd_Port
  6044  08A3                     l1813:
  6045                           
  6046                           ;LCD_4b.c: 93:     RD3 = 1;
  6047  08A3  1283               	bcf	3,5	;RP0=0, select bank0
  6048  08A4  1303               	bcf	3,6	;RP1=0, select bank0
  6049  08A5  1588               	bsf	8,3	;volatile
  6050  08A6                     l1815:
  6051                           
  6052                           ;LCD_4b.c: 94:     _delay((unsigned long)((40)*(4000000/4000000.0)));
  6053  08A6  300D               	movlw	13
  6054  08A7  00F1               	movwf	??_Lcd_Write_Char
  6055  08A8                     u3827:
  6056  08A8  0BF1               	decfsz	??_Lcd_Write_Char,f
  6057  08A9  28A8               	goto	u3827
  6058  08AA                     l1817:
  6059                           
  6060                           ;LCD_4b.c: 95:     RD3 = 0;
  6061  08AA  1283               	bcf	3,5	;RP0=0, select bank0
  6062  08AB  1303               	bcf	3,6	;RP1=0, select bank0
  6063  08AC  1188               	bcf	8,3	;volatile
  6064  08AD                     l179:
  6065  08AD  0008               	return
  6066  08AE                     __end_of_Lcd_Write_Char:
  6067                           
  6068                           	psect	text16
  6069  08E6                     __ptext16:	
  6070 ;; *************** function _Lcd_Set_Cursor *****************
  6071 ;; Defined at:
  6072 ;;		line 48 in file "LCD_4b.c"
  6073 ;; Parameters:    Size  Location     Type
  6074 ;;  a               1    wreg     unsigned char 
  6075 ;;  b               1    4[COMMON] unsigned char 
  6076 ;; Auto vars:     Size  Location     Type
  6077 ;;  a               1    7[COMMON] unsigned char 
  6078 ;;  temp            1   10[COMMON] unsigned char 
  6079 ;;  y               1    9[COMMON] unsigned char 
  6080 ;;  z               1    8[COMMON] unsigned char 
  6081 ;; Return value:  Size  Location     Type
  6082 ;;                  1    wreg      void 
  6083 ;; Registers used:
  6084 ;;		wreg, status,2, status,0, pclath, cstack
  6085 ;; Tracked objects:
  6086 ;;		On entry : 0/0
  6087 ;;		On exit  : 0/0
  6088 ;;		Unchanged: 0/0
  6089 ;; Data sizes:     COMMON   BANK0   BANK1   BANK3   BANK2
  6090 ;;      Params:         1       0       0       0       0
  6091 ;;      Locals:         4       0       0       0       0
  6092 ;;      Temps:          2       0       0       0       0
  6093 ;;      Totals:         7       0       0       0       0
  6094 ;;Total ram usage:        7 bytes
  6095 ;; Hardware stack levels used:    1
  6096 ;; Hardware stack levels required when called:    2
  6097 ;; This function calls:
  6098 ;;		_Lcd_Cmd
  6099 ;; This function is called by:
  6100 ;;		_main
  6101 ;; This function uses a non-reentrant model
  6102 ;;
  6103                           
  6104                           
  6105                           ;psect for function _Lcd_Set_Cursor
  6106  08E6                     _Lcd_Set_Cursor:
  6107                           
  6108                           ;incstack = 0
  6109                           ; Regs used in _Lcd_Set_Cursor: [wreg+status,2+status,0+pclath+cstack]
  6110                           ;Lcd_Set_Cursor@a stored from wreg
  6111  08E6  00F7               	movwf	Lcd_Set_Cursor@a
  6112  08E7                     l1967:
  6113                           
  6114                           ;LCD_4b.c: 49:     char temp, z, y;;LCD_4b.c: 50:     if (a == 1) {
  6115  08E7  0377               	decf	Lcd_Set_Cursor@a,w
  6116  08E8  1D03               	btfss	3,2
  6117  08E9  28EB               	goto	u2261
  6118  08EA  28EC               	goto	u2260
  6119  08EB                     u2261:
  6120  08EB  290F               	goto	l1977
  6121  08EC                     u2260:
  6122  08EC                     l1969:
  6123                           
  6124                           ;LCD_4b.c: 51:         temp = 0x80 + b - 1;
  6125  08EC  0874               	movf	Lcd_Set_Cursor@b,w
  6126  08ED  3E7F               	addlw	127
  6127  08EE  00F5               	movwf	??_Lcd_Set_Cursor
  6128  08EF  0875               	movf	??_Lcd_Set_Cursor,w
  6129  08F0  00FA               	movwf	Lcd_Set_Cursor@temp
  6130                           
  6131                           ;LCD_4b.c: 52:         z = temp >> 4;
  6132  08F1  087A               	movf	Lcd_Set_Cursor@temp,w
  6133  08F2  00F5               	movwf	??_Lcd_Set_Cursor
  6134  08F3  3004               	movlw	4
  6135  08F4                     u2275:
  6136  08F4  1003               	clrc
  6137  08F5  0CF5               	rrf	??_Lcd_Set_Cursor,f
  6138  08F6  3EFF               	addlw	-1
  6139  08F7  1D03               	skipz
  6140  08F8  28F4               	goto	u2275
  6141  08F9  0875               	movf	??_Lcd_Set_Cursor,w
  6142  08FA  00F6               	movwf	??_Lcd_Set_Cursor+1
  6143  08FB  0876               	movf	??_Lcd_Set_Cursor+1,w
  6144  08FC  00F8               	movwf	Lcd_Set_Cursor@z
  6145  08FD                     l1971:
  6146                           
  6147                           ;LCD_4b.c: 53:         y = temp & 0x0F;
  6148  08FD  087A               	movf	Lcd_Set_Cursor@temp,w
  6149  08FE  390F               	andlw	15
  6150  08FF  00F5               	movwf	??_Lcd_Set_Cursor
  6151  0900  0875               	movf	??_Lcd_Set_Cursor,w
  6152  0901  00F9               	movwf	Lcd_Set_Cursor@y
  6153  0902                     l1973:
  6154                           
  6155                           ;LCD_4b.c: 54:         Lcd_Cmd(z);
  6156  0902  0878               	movf	Lcd_Set_Cursor@z,w
  6157  0903  160A  118A  27C6  120A  158A  	fcall	_Lcd_Cmd
  6158  0908                     l1975:
  6159                           
  6160                           ;LCD_4b.c: 55:         Lcd_Cmd(y);
  6161  0908  0879               	movf	Lcd_Set_Cursor@y,w
  6162  0909  160A  118A  27C6  120A  158A  	fcall	_Lcd_Cmd
  6163                           
  6164                           ;LCD_4b.c: 56:     } else if (a == 2) {
  6165  090E  2937               	goto	l173
  6166  090F                     l1977:
  6167  090F  3002               	movlw	2
  6168  0910  0677               	xorwf	Lcd_Set_Cursor@a,w
  6169  0911  1D03               	btfss	3,2
  6170  0912  2914               	goto	u2281
  6171  0913  2915               	goto	u2280
  6172  0914                     u2281:
  6173  0914  2937               	goto	l173
  6174  0915                     u2280:
  6175  0915                     l1979:
  6176                           
  6177                           ;LCD_4b.c: 57:         temp = 0xC0 + b - 1;
  6178  0915  0874               	movf	Lcd_Set_Cursor@b,w
  6179  0916  3EBF               	addlw	191
  6180  0917  00F5               	movwf	??_Lcd_Set_Cursor
  6181  0918  0875               	movf	??_Lcd_Set_Cursor,w
  6182  0919  00FA               	movwf	Lcd_Set_Cursor@temp
  6183                           
  6184                           ;LCD_4b.c: 58:         z = temp >> 4;
  6185  091A  087A               	movf	Lcd_Set_Cursor@temp,w
  6186  091B  00F5               	movwf	??_Lcd_Set_Cursor
  6187  091C  3004               	movlw	4
  6188  091D                     u2295:
  6189  091D  1003               	clrc
  6190  091E  0CF5               	rrf	??_Lcd_Set_Cursor,f
  6191  091F  3EFF               	addlw	-1
  6192  0920  1D03               	skipz
  6193  0921  291D               	goto	u2295
  6194  0922  0875               	movf	??_Lcd_Set_Cursor,w
  6195  0923  00F6               	movwf	??_Lcd_Set_Cursor+1
  6196  0924  0876               	movf	??_Lcd_Set_Cursor+1,w
  6197  0925  00F8               	movwf	Lcd_Set_Cursor@z
  6198  0926                     l1981:
  6199                           
  6200                           ;LCD_4b.c: 59:         y = temp & 0x0F;
  6201  0926  087A               	movf	Lcd_Set_Cursor@temp,w
  6202  0927  390F               	andlw	15
  6203  0928  00F5               	movwf	??_Lcd_Set_Cursor
  6204  0929  0875               	movf	??_Lcd_Set_Cursor,w
  6205  092A  00F9               	movwf	Lcd_Set_Cursor@y
  6206  092B                     l1983:
  6207                           
  6208                           ;LCD_4b.c: 60:         Lcd_Cmd(z);
  6209  092B  0878               	movf	Lcd_Set_Cursor@z,w
  6210  092C  160A  118A  27C6  120A  158A  	fcall	_Lcd_Cmd
  6211  0931                     l1985:
  6212                           
  6213                           ;LCD_4b.c: 61:         Lcd_Cmd(y);
  6214  0931  0879               	movf	Lcd_Set_Cursor@y,w
  6215  0932  160A  118A  27C6  120A  158A  	fcall	_Lcd_Cmd
  6216  0937                     l173:
  6217  0937  0008               	return
  6218  0938                     __end_of_Lcd_Set_Cursor:
  6219                           
  6220                           	psect	text17
  6221  0991                     __ptext17:	
  6222 ;; *************** function _Lcd_Init *****************
  6223 ;; Defined at:
  6224 ;;		line 65 in file "LCD_4b.c"
  6225 ;; Parameters:    Size  Location     Type
  6226 ;;		None
  6227 ;; Auto vars:     Size  Location     Type
  6228 ;;		None
  6229 ;; Return value:  Size  Location     Type
  6230 ;;                  1    wreg      void 
  6231 ;; Registers used:
  6232 ;;		wreg, status,2, status,0, pclath, cstack
  6233 ;; Tracked objects:
  6234 ;;		On entry : 0/0
  6235 ;;		On exit  : 0/0
  6236 ;;		Unchanged: 0/0
  6237 ;; Data sizes:     COMMON   BANK0   BANK1   BANK3   BANK2
  6238 ;;      Params:         0       0       0       0       0
  6239 ;;      Locals:         0       0       0       0       0
  6240 ;;      Temps:          2       0       0       0       0
  6241 ;;      Totals:         2       0       0       0       0
  6242 ;;Total ram usage:        2 bytes
  6243 ;; Hardware stack levels used:    1
  6244 ;; Hardware stack levels required when called:    2
  6245 ;; This function calls:
  6246 ;;		_Lcd_Cmd
  6247 ;;		_Lcd_Port
  6248 ;; This function is called by:
  6249 ;;		_main
  6250 ;; This function uses a non-reentrant model
  6251 ;;
  6252                           
  6253                           
  6254                           ;psect for function _Lcd_Init
  6255  0991                     _Lcd_Init:
  6256  0991                     l1955:	
  6257                           ;incstack = 0
  6258                           ; Regs used in _Lcd_Init: [wreg+status,2+status,0+pclath+cstack]
  6259                           
  6260                           
  6261                           ;LCD_4b.c: 66:     Lcd_Port(0x00);
  6262  0991  3000               	movlw	0
  6263  0992  120A  158A  2009  120A  158A  	fcall	_Lcd_Port
  6264  0997                     l1957:
  6265                           
  6266                           ;LCD_4b.c: 67:     _delay((unsigned long)((20)*(4000000/4000.0)));
  6267  0997  301A               	movlw	26
  6268  0998  00F5               	movwf	??_Lcd_Init+1
  6269  0999  30F8               	movlw	248
  6270  099A  00F4               	movwf	??_Lcd_Init
  6271  099B                     u3837:
  6272  099B  0BF4               	decfsz	??_Lcd_Init,f
  6273  099C  299B               	goto	u3837
  6274  099D  0BF5               	decfsz	??_Lcd_Init+1,f
  6275  099E  299B               	goto	u3837
  6276  099F  0000               	nop
  6277  09A0                     l1959:
  6278                           
  6279                           ;LCD_4b.c: 68:     Lcd_Cmd(0x03);
  6280  09A0  3003               	movlw	3
  6281  09A1  160A  118A  27C6  120A  158A  	fcall	_Lcd_Cmd
  6282                           
  6283                           ;LCD_4b.c: 69:     _delay((unsigned long)((5)*(4000000/4000.0)));
  6284  09A6  3007               	movlw	7
  6285  09A7  00F5               	movwf	??_Lcd_Init+1
  6286  09A8  307D               	movlw	125
  6287  09A9  00F4               	movwf	??_Lcd_Init
  6288  09AA                     u3847:
  6289  09AA  0BF4               	decfsz	??_Lcd_Init,f
  6290  09AB  29AA               	goto	u3847
  6291  09AC  0BF5               	decfsz	??_Lcd_Init+1,f
  6292  09AD  29AA               	goto	u3847
  6293  09AE                     l1961:
  6294                           
  6295                           ;LCD_4b.c: 70:     Lcd_Cmd(0x03);
  6296  09AE  3003               	movlw	3
  6297  09AF  160A  118A  27C6  120A  158A  	fcall	_Lcd_Cmd
  6298  09B4                     l1963:
  6299                           
  6300                           ;LCD_4b.c: 71:     _delay((unsigned long)((11)*(4000000/4000.0)));
  6301  09B4  300F               	movlw	15
  6302  09B5  00F5               	movwf	??_Lcd_Init+1
  6303  09B6  3047               	movlw	71
  6304  09B7  00F4               	movwf	??_Lcd_Init
  6305  09B8                     u3857:
  6306  09B8  0BF4               	decfsz	??_Lcd_Init,f
  6307  09B9  29B8               	goto	u3857
  6308  09BA  0BF5               	decfsz	??_Lcd_Init+1,f
  6309  09BB  29B8               	goto	u3857
  6310  09BC  29BD               	nop2
  6311                           
  6312                           ;LCD_4b.c: 72:     Lcd_Cmd(0x03);
  6313  09BD  3003               	movlw	3
  6314  09BE  160A  118A  27C6  120A  158A  	fcall	_Lcd_Cmd
  6315                           
  6316                           ;LCD_4b.c: 74:     Lcd_Cmd(0x02);
  6317  09C3  3002               	movlw	2
  6318  09C4  160A  118A  27C6  120A  158A  	fcall	_Lcd_Cmd
  6319                           
  6320                           ;LCD_4b.c: 75:     Lcd_Cmd(0x02);
  6321  09C9  3002               	movlw	2
  6322  09CA  160A  118A  27C6  120A  158A  	fcall	_Lcd_Cmd
  6323                           
  6324                           ;LCD_4b.c: 76:     Lcd_Cmd(0x08);
  6325  09CF  3008               	movlw	8
  6326  09D0  160A  118A  27C6  120A  158A  	fcall	_Lcd_Cmd
  6327                           
  6328                           ;LCD_4b.c: 77:     Lcd_Cmd(0x00);
  6329  09D5  3000               	movlw	0
  6330  09D6  160A  118A  27C6  120A  158A  	fcall	_Lcd_Cmd
  6331                           
  6332                           ;LCD_4b.c: 78:     Lcd_Cmd(0x0C);
  6333  09DB  300C               	movlw	12
  6334  09DC  160A  118A  27C6  120A  158A  	fcall	_Lcd_Cmd
  6335                           
  6336                           ;LCD_4b.c: 79:     Lcd_Cmd(0x00);
  6337  09E1  3000               	movlw	0
  6338  09E2  160A  118A  27C6  120A  158A  	fcall	_Lcd_Cmd
  6339                           
  6340                           ;LCD_4b.c: 80:     Lcd_Cmd(0x06);
  6341  09E7  3006               	movlw	6
  6342  09E8  160A  118A  27C6  120A  158A  	fcall	_Lcd_Cmd
  6343  09ED                     l176:
  6344  09ED  0008               	return
  6345  09EE                     __end_of_Lcd_Init:
  6346                           
  6347                           	psect	text18
  6348  17B9                     __ptext18:	
  6349 ;; *************** function _Lcd_Clear *****************
  6350 ;; Defined at:
  6351 ;;		line 43 in file "LCD_4b.c"
  6352 ;; Parameters:    Size  Location     Type
  6353 ;;		None
  6354 ;; Auto vars:     Size  Location     Type
  6355 ;;		None
  6356 ;; Return value:  Size  Location     Type
  6357 ;;                  1    wreg      void 
  6358 ;; Registers used:
  6359 ;;		wreg, status,2, status,0, pclath, cstack
  6360 ;; Tracked objects:
  6361 ;;		On entry : 0/0
  6362 ;;		On exit  : 0/0
  6363 ;;		Unchanged: 0/0
  6364 ;; Data sizes:     COMMON   BANK0   BANK1   BANK3   BANK2
  6365 ;;      Params:         0       0       0       0       0
  6366 ;;      Locals:         0       0       0       0       0
  6367 ;;      Temps:          0       0       0       0       0
  6368 ;;      Totals:         0       0       0       0       0
  6369 ;;Total ram usage:        0 bytes
  6370 ;; Hardware stack levels used:    1
  6371 ;; Hardware stack levels required when called:    2
  6372 ;; This function calls:
  6373 ;;		_Lcd_Cmd
  6374 ;; This function is called by:
  6375 ;;		_main
  6376 ;; This function uses a non-reentrant model
  6377 ;;
  6378                           
  6379                           
  6380                           ;psect for function _Lcd_Clear
  6381  17B9                     _Lcd_Clear:
  6382  17B9                     l1965:	
  6383                           ;incstack = 0
  6384                           ; Regs used in _Lcd_Clear: [wreg+status,2+status,0+pclath+cstack]
  6385                           
  6386                           
  6387                           ;LCD_4b.c: 44:     Lcd_Cmd(0);
  6388  17B9  3000               	movlw	0
  6389  17BA  160A  118A  27C6  160A  118A  	fcall	_Lcd_Cmd
  6390                           
  6391                           ;LCD_4b.c: 45:     Lcd_Cmd(1);
  6392  17BF  3001               	movlw	1
  6393  17C0  160A  118A  27C6  160A  118A  	fcall	_Lcd_Cmd
  6394  17C5                     l167:
  6395  17C5  0008               	return
  6396  17C6                     __end_of_Lcd_Clear:
  6397                           
  6398                           	psect	text19
  6399  17C6                     __ptext19:	
  6400 ;; *************** function _Lcd_Cmd *****************
  6401 ;; Defined at:
  6402 ;;		line 35 in file "LCD_4b.c"
  6403 ;; Parameters:    Size  Location     Type
  6404 ;;  a               1    wreg     unsigned char 
  6405 ;; Auto vars:     Size  Location     Type
  6406 ;;  a               1    3[COMMON] unsigned char 
  6407 ;; Return value:  Size  Location     Type
  6408 ;;                  1    wreg      void 
  6409 ;; Registers used:
  6410 ;;		wreg, status,2, status,0, pclath, cstack
  6411 ;; Tracked objects:
  6412 ;;		On entry : 0/0
  6413 ;;		On exit  : 0/0
  6414 ;;		Unchanged: 0/0
  6415 ;; Data sizes:     COMMON   BANK0   BANK1   BANK3   BANK2
  6416 ;;      Params:         0       0       0       0       0
  6417 ;;      Locals:         1       0       0       0       0
  6418 ;;      Temps:          2       0       0       0       0
  6419 ;;      Totals:         3       0       0       0       0
  6420 ;;Total ram usage:        3 bytes
  6421 ;; Hardware stack levels used:    1
  6422 ;; Hardware stack levels required when called:    1
  6423 ;; This function calls:
  6424 ;;		_Lcd_Port
  6425 ;; This function is called by:
  6426 ;;		_Lcd_Clear
  6427 ;;		_Lcd_Set_Cursor
  6428 ;;		_Lcd_Init
  6429 ;;		_Lcd_Shift_Right
  6430 ;;		_Lcd_Shift_Left
  6431 ;; This function uses a non-reentrant model
  6432 ;;
  6433                           
  6434                           
  6435                           ;psect for function _Lcd_Cmd
  6436  17C6                     _Lcd_Cmd:
  6437                           
  6438                           ;incstack = 0
  6439                           ; Regs used in _Lcd_Cmd: [wreg+status,2+status,0+pclath+cstack]
  6440                           ;Lcd_Cmd@a stored from wreg
  6441  17C6  00F3               	movwf	Lcd_Cmd@a
  6442  17C7                     l1835:
  6443                           
  6444                           ;LCD_4b.c: 36:     PORTDbits.RD2 = 0;
  6445  17C7  1283               	bcf	3,5	;RP0=0, select bank0
  6446  17C8  1303               	bcf	3,6	;RP1=0, select bank0
  6447  17C9  1108               	bcf	8,2	;volatile
  6448  17CA                     l1837:
  6449                           
  6450                           ;LCD_4b.c: 37:     Lcd_Port(a);
  6451  17CA  0873               	movf	Lcd_Cmd@a,w
  6452  17CB  120A  158A  2009  160A  118A  	fcall	_Lcd_Port
  6453  17D0                     l1839:
  6454                           
  6455                           ;LCD_4b.c: 38:     RD3 = 1;
  6456  17D0  1283               	bcf	3,5	;RP0=0, select bank0
  6457  17D1  1303               	bcf	3,6	;RP1=0, select bank0
  6458  17D2  1588               	bsf	8,3	;volatile
  6459  17D3                     l1841:
  6460                           
  6461                           ;LCD_4b.c: 39:     _delay((unsigned long)((4)*(4000000/4000.0)));
  6462  17D3  3006               	movlw	6
  6463  17D4  00F2               	movwf	??_Lcd_Cmd+1
  6464  17D5  3030               	movlw	48
  6465  17D6  00F1               	movwf	??_Lcd_Cmd
  6466  17D7                     u3867:
  6467  17D7  0BF1               	decfsz	??_Lcd_Cmd,f
  6468  17D8  2FD7               	goto	u3867
  6469  17D9  0BF2               	decfsz	??_Lcd_Cmd+1,f
  6470  17DA  2FD7               	goto	u3867
  6471  17DB  0000               	nop
  6472  17DC                     l1843:
  6473                           
  6474                           ;LCD_4b.c: 40:     RD3 = 0;
  6475  17DC  1283               	bcf	3,5	;RP0=0, select bank0
  6476  17DD  1303               	bcf	3,6	;RP1=0, select bank0
  6477  17DE  1188               	bcf	8,3	;volatile
  6478  17DF                     l164:
  6479  17DF  0008               	return
  6480  17E0                     __end_of_Lcd_Cmd:
  6481                           
  6482                           	psect	text20
  6483  0809                     __ptext20:	
  6484 ;; *************** function _Lcd_Port *****************
  6485 ;; Defined at:
  6486 ;;		line 13 in file "LCD_4b.c"
  6487 ;; Parameters:    Size  Location     Type
  6488 ;;  a               1    wreg     unsigned char 
  6489 ;; Auto vars:     Size  Location     Type
  6490 ;;  a               1    0[COMMON] unsigned char 
  6491 ;; Return value:  Size  Location     Type
  6492 ;;                  1    wreg      void 
  6493 ;; Registers used:
  6494 ;;		wreg
  6495 ;; Tracked objects:
  6496 ;;		On entry : 0/0
  6497 ;;		On exit  : 0/0
  6498 ;;		Unchanged: 0/0
  6499 ;; Data sizes:     COMMON   BANK0   BANK1   BANK3   BANK2
  6500 ;;      Params:         0       0       0       0       0
  6501 ;;      Locals:         1       0       0       0       0
  6502 ;;      Temps:          0       0       0       0       0
  6503 ;;      Totals:         1       0       0       0       0
  6504 ;;Total ram usage:        1 bytes
  6505 ;; Hardware stack levels used:    1
  6506 ;; This function calls:
  6507 ;;		Nothing
  6508 ;; This function is called by:
  6509 ;;		_Lcd_Cmd
  6510 ;;		_Lcd_Init
  6511 ;;		_Lcd_Write_Char
  6512 ;; This function uses a non-reentrant model
  6513 ;;
  6514                           
  6515                           
  6516                           ;psect for function _Lcd_Port
  6517  0809                     _Lcd_Port:
  6518                           
  6519                           ;incstack = 0
  6520                           ; Regs used in _Lcd_Port: [wreg]
  6521                           ;Lcd_Port@a stored from wreg
  6522  0809  00F0               	movwf	Lcd_Port@a
  6523  080A                     l1765:
  6524                           
  6525                           ;LCD_4b.c: 14:     if (a & 1)
  6526  080A  1C70               	btfss	Lcd_Port@a,0
  6527  080B  280D               	goto	u1891
  6528  080C  280E               	goto	u1890
  6529  080D                     u1891:
  6530  080D  2812               	goto	l153
  6531  080E                     u1890:
  6532  080E                     l1767:
  6533                           
  6534                           ;LCD_4b.c: 15:         RD4 = 1;
  6535  080E  1283               	bcf	3,5	;RP0=0, select bank0
  6536  080F  1303               	bcf	3,6	;RP1=0, select bank0
  6537  0810  1608               	bsf	8,4	;volatile
  6538  0811  2815               	goto	l154
  6539  0812                     l153:	
  6540                           ;LCD_4b.c: 16:     else
  6541                           
  6542                           
  6543                           ;LCD_4b.c: 17:         RD4 = 0;
  6544  0812  1283               	bcf	3,5	;RP0=0, select bank0
  6545  0813  1303               	bcf	3,6	;RP1=0, select bank0
  6546  0814  1208               	bcf	8,4	;volatile
  6547  0815                     l154:
  6548                           
  6549                           ;LCD_4b.c: 19:     if (a & 2)
  6550  0815  1CF0               	btfss	Lcd_Port@a,1
  6551  0816  2818               	goto	u1901
  6552  0817  2819               	goto	u1900
  6553  0818                     u1901:
  6554  0818  281B               	goto	l155
  6555  0819                     u1900:
  6556  0819                     l1769:
  6557                           
  6558                           ;LCD_4b.c: 20:         RD5 = 1;
  6559  0819  1688               	bsf	8,5	;volatile
  6560  081A  281C               	goto	l156
  6561  081B                     l155:	
  6562                           ;LCD_4b.c: 21:     else
  6563                           
  6564                           
  6565                           ;LCD_4b.c: 22:         RD5 = 0;
  6566  081B  1288               	bcf	8,5	;volatile
  6567  081C                     l156:
  6568                           
  6569                           ;LCD_4b.c: 24:     if (a & 4)
  6570  081C  1D70               	btfss	Lcd_Port@a,2
  6571  081D  281F               	goto	u1911
  6572  081E  2820               	goto	u1910
  6573  081F                     u1911:
  6574  081F  2822               	goto	l157
  6575  0820                     u1910:
  6576  0820                     l1771:
  6577                           
  6578                           ;LCD_4b.c: 25:         RD6 = 1;
  6579  0820  1708               	bsf	8,6	;volatile
  6580  0821  2823               	goto	l158
  6581  0822                     l157:	
  6582                           ;LCD_4b.c: 26:     else
  6583                           
  6584                           
  6585                           ;LCD_4b.c: 27:         RD6 = 0;
  6586  0822  1308               	bcf	8,6	;volatile
  6587  0823                     l158:
  6588                           
  6589                           ;LCD_4b.c: 29:     if (a & 8)
  6590  0823  1DF0               	btfss	Lcd_Port@a,3
  6591  0824  2826               	goto	u1921
  6592  0825  2827               	goto	u1920
  6593  0826                     u1921:
  6594  0826  2829               	goto	l159
  6595  0827                     u1920:
  6596  0827                     l1773:
  6597                           
  6598                           ;LCD_4b.c: 30:         RD7 = 1;
  6599  0827  1788               	bsf	8,7	;volatile
  6600  0828  282A               	goto	l161
  6601  0829                     l159:	
  6602                           ;LCD_4b.c: 31:     else
  6603                           
  6604                           
  6605                           ;LCD_4b.c: 32:         RD7 = 0;
  6606  0829  1388               	bcf	8,7	;volatile
  6607  082A                     l161:
  6608  082A  0008               	return
  6609  082B                     __end_of_Lcd_Port:
  6610                           
  6611                           	psect	text21
  6612  17A2                     __ptext21:	
  6613 ;; *************** function _I2C_Master_Write *****************
  6614 ;; Defined at:
  6615 ;;		line 65 in file "I2C.c"
  6616 ;; Parameters:    Size  Location     Type
  6617 ;;  d               2    0[COMMON] unsigned int 
  6618 ;; Auto vars:     Size  Location     Type
  6619 ;;		None
  6620 ;; Return value:  Size  Location     Type
  6621 ;;                  1    wreg      void 
  6622 ;; Registers used:
  6623 ;;		wreg, status,2, status,0, pclath, cstack
  6624 ;; Tracked objects:
  6625 ;;		On entry : 0/0
  6626 ;;		On exit  : 0/0
  6627 ;;		Unchanged: 0/0
  6628 ;; Data sizes:     COMMON   BANK0   BANK1   BANK3   BANK2
  6629 ;;      Params:         2       0       0       0       0
  6630 ;;      Locals:         0       0       0       0       0
  6631 ;;      Temps:          0       0       0       0       0
  6632 ;;      Totals:         2       0       0       0       0
  6633 ;;Total ram usage:        2 bytes
  6634 ;; Hardware stack levels used:    1
  6635 ;; Hardware stack levels required when called:    1
  6636 ;; This function calls:
  6637 ;;		_I2C_Master_Wait
  6638 ;; This function is called by:
  6639 ;;		_main
  6640 ;; This function uses a non-reentrant model
  6641 ;;
  6642                           
  6643                           
  6644                           ;psect for function _I2C_Master_Write
  6645  17A2                     _I2C_Master_Write:
  6646  17A2                     l1999:	
  6647                           ;incstack = 0
  6648                           ; Regs used in _I2C_Master_Write: [wreg+status,2+status,0+pclath+cstack]
  6649                           
  6650                           
  6651                           ;I2C.c: 65: void I2C_Master_Write(unsigned d);I2C.c: 66: {;I2C.c: 67:     I2C_Master_Wai
      +                          t();
  6652  17A2  160A  118A  27AC  160A  118A  	fcall	_I2C_Master_Wait
  6653  17A7                     l2001:
  6654                           
  6655                           ;I2C.c: 68:     SSPBUF = d;
  6656  17A7  0870               	movf	I2C_Master_Write@d,w
  6657  17A8  1283               	bcf	3,5	;RP0=0, select bank0
  6658  17A9  1303               	bcf	3,6	;RP1=0, select bank0
  6659  17AA  0093               	movwf	19	;volatile
  6660  17AB                     l128:
  6661  17AB  0008               	return
  6662  17AC                     __end_of_I2C_Master_Write:
  6663                           
  6664                           	psect	text22
  6665  0800                     __ptext22:	
  6666 ;; *************** function _I2C_Master_Stop *****************
  6667 ;; Defined at:
  6668 ;;		line 55 in file "I2C.c"
  6669 ;; Parameters:    Size  Location     Type
  6670 ;;		None
  6671 ;; Auto vars:     Size  Location     Type
  6672 ;;		None
  6673 ;; Return value:  Size  Location     Type
  6674 ;;                  1    wreg      void 
  6675 ;; Registers used:
  6676 ;;		wreg, status,2, status,0, pclath, cstack
  6677 ;; Tracked objects:
  6678 ;;		On entry : 0/0
  6679 ;;		On exit  : 0/0
  6680 ;;		Unchanged: 0/0
  6681 ;; Data sizes:     COMMON   BANK0   BANK1   BANK3   BANK2
  6682 ;;      Params:         0       0       0       0       0
  6683 ;;      Locals:         0       0       0       0       0
  6684 ;;      Temps:          0       0       0       0       0
  6685 ;;      Totals:         0       0       0       0       0
  6686 ;;Total ram usage:        0 bytes
  6687 ;; Hardware stack levels used:    1
  6688 ;; Hardware stack levels required when called:    1
  6689 ;; This function calls:
  6690 ;;		_I2C_Master_Wait
  6691 ;; This function is called by:
  6692 ;;		_main
  6693 ;; This function uses a non-reentrant model
  6694 ;;
  6695                           
  6696                           
  6697                           ;psect for function _I2C_Master_Stop
  6698  0800                     _I2C_Master_Stop:
  6699  0800                     l2019:	
  6700                           ;incstack = 0
  6701                           ; Regs used in _I2C_Master_Stop: [wreg+status,2+status,0+pclath+cstack]
  6702                           
  6703                           
  6704                           ;I2C.c: 57:     I2C_Master_Wait();
  6705  0800  160A  118A  27AC  120A  158A  	fcall	_I2C_Master_Wait
  6706  0805                     l2021:
  6707                           
  6708                           ;I2C.c: 58:     SSPCON2bits.PEN = 1;
  6709  0805  1683               	bsf	3,5	;RP0=1, select bank1
  6710  0806  1303               	bcf	3,6	;RP1=0, select bank1
  6711  0807  1511               	bsf	17,2	;volatile
  6712  0808                     l125:
  6713  0808  0008               	return
  6714  0809                     __end_of_I2C_Master_Stop:
  6715                           
  6716                           	psect	text23
  6717  1799                     __ptext23:	
  6718 ;; *************** function _I2C_Master_Start *****************
  6719 ;; Defined at:
  6720 ;;		line 39 in file "I2C.c"
  6721 ;; Parameters:    Size  Location     Type
  6722 ;;		None
  6723 ;; Auto vars:     Size  Location     Type
  6724 ;;		None
  6725 ;; Return value:  Size  Location     Type
  6726 ;;                  1    wreg      void 
  6727 ;; Registers used:
  6728 ;;		wreg, status,2, status,0, pclath, cstack
  6729 ;; Tracked objects:
  6730 ;;		On entry : 0/0
  6731 ;;		On exit  : 0/0
  6732 ;;		Unchanged: 0/0
  6733 ;; Data sizes:     COMMON   BANK0   BANK1   BANK3   BANK2
  6734 ;;      Params:         0       0       0       0       0
  6735 ;;      Locals:         0       0       0       0       0
  6736 ;;      Temps:          0       0       0       0       0
  6737 ;;      Totals:         0       0       0       0       0
  6738 ;;Total ram usage:        0 bytes
  6739 ;; Hardware stack levels used:    1
  6740 ;; Hardware stack levels required when called:    1
  6741 ;; This function calls:
  6742 ;;		_I2C_Master_Wait
  6743 ;; This function is called by:
  6744 ;;		_main
  6745 ;; This function uses a non-reentrant model
  6746 ;;
  6747                           
  6748                           
  6749                           ;psect for function _I2C_Master_Start
  6750  1799                     _I2C_Master_Start:
  6751  1799                     l1995:	
  6752                           ;incstack = 0
  6753                           ; Regs used in _I2C_Master_Start: [wreg+status,2+status,0+pclath+cstack]
  6754                           
  6755                           
  6756                           ;I2C.c: 41:     I2C_Master_Wait();
  6757  1799  160A  118A  27AC  160A  118A  	fcall	_I2C_Master_Wait
  6758  179E                     l1997:
  6759                           
  6760                           ;I2C.c: 42:     SSPCON2bits.SEN = 1;
  6761  179E  1683               	bsf	3,5	;RP0=1, select bank1
  6762  179F  1303               	bcf	3,6	;RP1=0, select bank1
  6763  17A0  1411               	bsf	17,0	;volatile
  6764  17A1                     l119:
  6765  17A1  0008               	return
  6766  17A2                     __end_of_I2C_Master_Start:
  6767                           
  6768                           	psect	text24
  6769  0007                     __ptext24:	
  6770 ;; *************** function _I2C_Master_Read *****************
  6771 ;; Defined at:
  6772 ;;		line 74 in file "I2C.c"
  6773 ;; Parameters:    Size  Location     Type
  6774 ;;  a               2    0[COMMON] unsigned short 
  6775 ;; Auto vars:     Size  Location     Type
  6776 ;;  temp            2    4[COMMON] unsigned short 
  6777 ;; Return value:  Size  Location     Type
  6778 ;;                  2    0[COMMON] unsigned short 
  6779 ;; Registers used:
  6780 ;;		wreg, status,2, status,0, pclath, cstack
  6781 ;; Tracked objects:
  6782 ;;		On entry : 0/0
  6783 ;;		On exit  : 0/0
  6784 ;;		Unchanged: 0/0
  6785 ;; Data sizes:     COMMON   BANK0   BANK1   BANK3   BANK2
  6786 ;;      Params:         2       0       0       0       0
  6787 ;;      Locals:         2       0       0       0       0
  6788 ;;      Temps:          2       0       0       0       0
  6789 ;;      Totals:         6       0       0       0       0
  6790 ;;Total ram usage:        6 bytes
  6791 ;; Hardware stack levels used:    1
  6792 ;; Hardware stack levels required when called:    1
  6793 ;; This function calls:
  6794 ;;		_I2C_Master_Wait
  6795 ;; This function is called by:
  6796 ;;		_main
  6797 ;; This function uses a non-reentrant model
  6798 ;;
  6799                           
  6800                           
  6801                           ;psect for function _I2C_Master_Read
  6802  0007                     _I2C_Master_Read:
  6803  0007                     l2003:	
  6804                           ;incstack = 0
  6805                           ; Regs used in _I2C_Master_Read: [wreg+status,2+status,0+pclath+cstack]
  6806                           
  6807                           
  6808                           ;I2C.c: 74: unsigned short I2C_Master_Read(unsigned short a);I2C.c: 75: {;I2C.c: 76:    
      +                           unsigned short temp;;I2C.c: 77:     I2C_Master_Wait();
  6809  0007  160A  118A  27AC  120A  118A  	fcall	_I2C_Master_Wait
  6810  000C                     l2005:
  6811                           
  6812                           ;I2C.c: 78:     SSPCON2bits.RCEN = 1;
  6813  000C  1683               	bsf	3,5	;RP0=1, select bank1
  6814  000D  1303               	bcf	3,6	;RP1=0, select bank1
  6815  000E  1591               	bsf	17,3	;volatile
  6816                           
  6817                           ;I2C.c: 79:     I2C_Master_Wait();
  6818  000F  160A  118A  27AC  120A  118A  	fcall	_I2C_Master_Wait
  6819  0014                     l2007:
  6820                           
  6821                           ;I2C.c: 80:     temp = SSPBUF;
  6822  0014  1283               	bcf	3,5	;RP0=0, select bank0
  6823  0015  1303               	bcf	3,6	;RP1=0, select bank0
  6824  0016  0813               	movf	19,w	;volatile
  6825  0017  00F2               	movwf	??_I2C_Master_Read
  6826  0018  01F3               	clrf	??_I2C_Master_Read+1
  6827  0019  0872               	movf	??_I2C_Master_Read,w
  6828  001A  00F4               	movwf	I2C_Master_Read@temp
  6829  001B  0873               	movf	??_I2C_Master_Read+1,w
  6830  001C  00F5               	movwf	I2C_Master_Read@temp+1
  6831  001D                     l2009:
  6832                           
  6833                           ;I2C.c: 81:     I2C_Master_Wait();
  6834  001D  160A  118A  27AC  120A  118A  	fcall	_I2C_Master_Wait
  6835  0022                     l2011:
  6836                           
  6837                           ;I2C.c: 82:     if(a == 1){
  6838  0022  0370               	decf	I2C_Master_Read@a,w
  6839  0023  0471               	iorwf	I2C_Master_Read@a+1,w
  6840  0024  1D03               	btfss	3,2
  6841  0025  2827               	goto	u2311
  6842  0026  2828               	goto	u2310
  6843  0027                     u2311:
  6844  0027  282C               	goto	l131
  6845  0028                     u2310:
  6846  0028                     l2013:
  6847                           
  6848                           ;I2C.c: 83:         SSPCON2bits.ACKDT = 0;
  6849  0028  1683               	bsf	3,5	;RP0=1, select bank1
  6850  0029  1303               	bcf	3,6	;RP1=0, select bank1
  6851  002A  1291               	bcf	17,5	;volatile
  6852                           
  6853                           ;I2C.c: 84:     }else{
  6854  002B  282F               	goto	l132
  6855  002C                     l131:
  6856                           
  6857                           ;I2C.c: 85:         SSPCON2bits.ACKDT = 1;
  6858  002C  1683               	bsf	3,5	;RP0=1, select bank1
  6859  002D  1303               	bcf	3,6	;RP1=0, select bank1
  6860  002E  1691               	bsf	17,5	;volatile
  6861  002F                     l132:	
  6862                           ;I2C.c: 86:     }
  6863                           
  6864                           
  6865                           ;I2C.c: 87:     SSPCON2bits.ACKEN = 1;
  6866  002F  1611               	bsf	17,4	;volatile
  6867  0030                     l2015:
  6868                           
  6869                           ;I2C.c: 88:     return temp;
  6870  0030  0875               	movf	I2C_Master_Read@temp+1,w
  6871  0031  00F1               	movwf	?_I2C_Master_Read+1
  6872  0032  0874               	movf	I2C_Master_Read@temp,w
  6873  0033  00F0               	movwf	?_I2C_Master_Read
  6874  0034                     l133:
  6875  0034  0008               	return
  6876  0035                     __end_of_I2C_Master_Read:
  6877                           
  6878                           	psect	text25
  6879  17AC                     __ptext25:	
  6880 ;; *************** function _I2C_Master_Wait *****************
  6881 ;; Defined at:
  6882 ;;		line 32 in file "I2C.c"
  6883 ;; Parameters:    Size  Location     Type
  6884 ;;		None
  6885 ;; Auto vars:     Size  Location     Type
  6886 ;;		None
  6887 ;; Return value:  Size  Location     Type
  6888 ;;                  1    wreg      void 
  6889 ;; Registers used:
  6890 ;;		wreg, status,2
  6891 ;; Tracked objects:
  6892 ;;		On entry : 0/0
  6893 ;;		On exit  : 0/0
  6894 ;;		Unchanged: 0/0
  6895 ;; Data sizes:     COMMON   BANK0   BANK1   BANK3   BANK2
  6896 ;;      Params:         0       0       0       0       0
  6897 ;;      Locals:         0       0       0       0       0
  6898 ;;      Temps:          0       0       0       0       0
  6899 ;;      Totals:         0       0       0       0       0
  6900 ;;Total ram usage:        0 bytes
  6901 ;; Hardware stack levels used:    1
  6902 ;; This function calls:
  6903 ;;		Nothing
  6904 ;; This function is called by:
  6905 ;;		_I2C_Master_Start
  6906 ;;		_I2C_Master_Stop
  6907 ;;		_I2C_Master_Write
  6908 ;;		_I2C_Master_Read
  6909 ;;		_I2C_Master_RepeatedStart
  6910 ;; This function uses a non-reentrant model
  6911 ;;
  6912                           
  6913                           
  6914                           ;psect for function _I2C_Master_Wait
  6915  17AC                     _I2C_Master_Wait:
  6916  17AC                     l1831:	
  6917                           ;incstack = 0
  6918                           ; Regs used in _I2C_Master_Wait: [wreg+status,2]
  6919                           
  6920  17AC                     l113:	
  6921                           ;I2C.c: 34:     while ((SSPSTAT & 0x04) || (SSPCON2 & 0x1F));
  6922                           
  6923  17AC  1683               	bsf	3,5	;RP0=1, select bank1
  6924  17AD  1303               	bcf	3,6	;RP1=0, select bank1
  6925  17AE  1914               	btfsc	20,2	;volatile
  6926  17AF  2FB1               	goto	u2021
  6927  17B0  2FB2               	goto	u2020
  6928  17B1                     u2021:
  6929  17B1  2FAC               	goto	l113
  6930  17B2                     u2020:
  6931  17B2                     l1833:
  6932  17B2  0811               	movf	17,w	;volatile
  6933  17B3  391F               	andlw	31
  6934  17B4  1D03               	btfss	3,2
  6935  17B5  2FB7               	goto	u2031
  6936  17B6  2FB8               	goto	u2030
  6937  17B7                     u2031:
  6938  17B7  2FAC               	goto	l113
  6939  17B8                     u2030:
  6940  17B8                     l116:
  6941  17B8  0008               	return
  6942  17B9                     __end_of_I2C_Master_Wait:
  6943  007E                     btemp	set	126	;btemp
  6944  007E                     wtemp0	set	126
  6945                           
  6946                           	psect	config
  6947                           
  6948                           ;Config register CONFIG1 @ 0x2007
  6949                           ;	Oscillator Selection bits
  6950                           ;	FOSC = INTRC_NOCLKOUT, INTOSCIO oscillator: I/O function on RA6/OSC2/CLKOUT pin, I/O f
      +                          unction on RA7/OSC1/CLKIN
  6951                           ;	Watchdog Timer Enable bit
  6952                           ;	WDTE = OFF, WDT disabled and can be enabled by SWDTEN bit of the WDTCON register
  6953                           ;	Power-up Timer Enable bit
  6954                           ;	PWRTE = OFF, PWRT disabled
  6955                           ;	RE3/MCLR pin function select bit
  6956                           ;	MCLRE = OFF, RE3/MCLR pin function is digital input, MCLR internally tied to VDD
  6957                           ;	Code Protection bit
  6958                           ;	CP = OFF, Program memory code protection is disabled
  6959                           ;	Data Code Protection bit
  6960                           ;	CPD = OFF, Data memory code protection is disabled
  6961                           ;	Brown Out Reset Selection bits
  6962                           ;	BOREN = OFF, BOR disabled
  6963                           ;	Internal External Switchover bit
  6964                           ;	IESO = OFF, Internal/External Switchover mode is disabled
  6965                           ;	Fail-Safe Clock Monitor Enabled bit
  6966                           ;	FCMEN = OFF, Fail-Safe Clock Monitor is disabled
  6967                           ;	Low Voltage Programming Enable bit
  6968                           ;	LVP = OFF, RB3 pin has digital I/O, HV on MCLR must be used for programming
  6969                           ;	In-Circuit Debugger Mode bit
  6970                           ;	DEBUG = 0x1, unprogrammed default
  6971  2007                     	org	8199
  6972  2007  20D4               	dw	8404
  6973                           
  6974                           ;Config register CONFIG2 @ 0x2008
  6975                           ;	Brown-out Reset Selection bit
  6976                           ;	BOR4V = BOR40V, Brown-out Reset set to 4.0V
  6977                           ;	Flash Program Memory Self Write Enable bits
  6978                           ;	WRT = OFF, Write protection off
  6979  2008                     	org	8200
  6980  2008  3FFF               	dw	16383

Data Sizes:
    Strings     12
    Constant    0
    Data        0
    BSS         14
    Persistent  0
    Stack       0

Auto Spaces:
    Space          Size  Autos    Used
    COMMON           14     14      14
    BANK0            80     75      80
    BANK1            80      0       9
    BANK3            96      0       0
    BANK2            96      0       0

Pointer List with Targets:

    Lcd_Write_String@a	PTR unsigned char  size(1) Largest target is 4
		 -> STR_3(CODE[4]), STR_2(CODE[4]), STR_1(CODE[4]), 


Critical Paths under _main in COMMON

    _main->___xxtofl
    _I2C_Master_Init->___lldiv
    _division->___awdiv
    ___flmul->___xxtofl
    ___fldiv->___xxtofl
    ___fladd->___xxtofl
    _Lcd_Write_String->_Lcd_Write_Char
    _Lcd_Write_Char->_Lcd_Port
    _Lcd_Set_Cursor->_Lcd_Cmd
    _Lcd_Init->_Lcd_Cmd
    _Lcd_Clear->_Lcd_Cmd
    _Lcd_Cmd->_Lcd_Port

Critical Paths under _main in BANK0

    _main->___fladd
    _setup->_I2C_Master_Init
    ___fldiv->___flmul
    ___fladd->___fldiv

Critical Paths under _main in BANK1

    None.

Critical Paths under _main in BANK3

    None.

Critical Paths under _main in BANK2

    None.

Call Graph Tables:

 ---------------------------------------------------------------------------------
 (Depth) Function   	        Calls       Base Space   Used Autos Params    Refs
 ---------------------------------------------------------------------------------
 (0) _main                                                 3     3      0   12001
                                             72 BANK0      3     3      0
                    _I2C_Master_Read
                   _I2C_Master_Start
                    _I2C_Master_Stop
                   _I2C_Master_Write
                          _Lcd_Clear
                           _Lcd_Init
                     _Lcd_Set_Cursor
                     _Lcd_Write_Char
                   _Lcd_Write_String
                            ___fladd
                            ___fldiv
                             ___flge
                            ___flmul
                            ___fltol
                           ___xxtofl
                           _division
                              _setup
 ---------------------------------------------------------------------------------
 (1) _setup                                                0     0      0     412
                    _I2C_Master_Init
 ---------------------------------------------------------------------------------
 (2) _I2C_Master_Init                                      8     4      4     412
                                              0 BANK0      8     4      4
                            ___lldiv
 ---------------------------------------------------------------------------------
 (3) ___lldiv                                             14     6      8     314
                                              0 COMMON    14     6      8
 ---------------------------------------------------------------------------------
 (1) _division                                             4     4      0    1248
                                              9 COMMON     4     4      0
                            ___awdiv
                            ___awmod
 ---------------------------------------------------------------------------------
 (2) ___awmod                                              7     3      4     600
                                              0 COMMON     7     3      4
 ---------------------------------------------------------------------------------
 (2) ___awdiv                                              9     5      4     604
                                              0 COMMON     9     5      4
 ---------------------------------------------------------------------------------
 (1) ___xxtofl                                            14    10      4     398
                                              0 COMMON    14    10      4
 ---------------------------------------------------------------------------------
 (1) ___fltol                                             11     7      4     305
                                              0 COMMON    11     7      4
 ---------------------------------------------------------------------------------
 (1) ___flmul                                             26    18      8    2569
                                              0 BANK0     26    18      8
                          __Umul8_16
                           ___xxtofl (ARG)
 ---------------------------------------------------------------------------------
 (2) __Umul8_16                                            9     7      2     799
                                              0 COMMON     9     7      2
 ---------------------------------------------------------------------------------
 (1) ___flge                                              12     4      8     486
                                              0 COMMON    12     4      8
 ---------------------------------------------------------------------------------
 (1) ___fldiv                                             26    18      8    1273
                                             26 BANK0     26    18      8
                            ___flmul (ARG)
                           ___xxtofl (ARG)
 ---------------------------------------------------------------------------------
 (1) ___fladd                                             20    12      8    2262
                                             52 BANK0     20    12      8
                            ___fldiv (ARG)
                            ___flmul (ARG)
                           ___xxtofl (ARG)
 ---------------------------------------------------------------------------------
 (1) _Lcd_Write_String                                     3     3      0     367
                                              5 COMMON     3     3      0
                     _Lcd_Write_Char
 ---------------------------------------------------------------------------------
 (2) _Lcd_Write_Char                                       4     4      0     178
                                              1 COMMON     4     4      0
                           _Lcd_Port
 ---------------------------------------------------------------------------------
 (1) _Lcd_Set_Cursor                                       7     6      1    1444
                                              4 COMMON     7     6      1
                            _Lcd_Cmd
 ---------------------------------------------------------------------------------
 (1) _Lcd_Init                                             2     2      0     198
                                              4 COMMON     2     2      0
                            _Lcd_Cmd
                           _Lcd_Port
 ---------------------------------------------------------------------------------
 (1) _Lcd_Clear                                            0     0      0     110
                            _Lcd_Cmd
 ---------------------------------------------------------------------------------
 (2) _Lcd_Cmd                                              3     3      0     110
                                              1 COMMON     3     3      0
                           _Lcd_Port
 ---------------------------------------------------------------------------------
 (3) _Lcd_Port                                             1     1      0      88
                                              0 COMMON     1     1      0
 ---------------------------------------------------------------------------------
 (1) _I2C_Master_Write                                     2     0      2     402
                                              0 COMMON     2     0      2
                    _I2C_Master_Wait
 ---------------------------------------------------------------------------------
 (1) _I2C_Master_Stop                                      0     0      0       0
                    _I2C_Master_Wait
 ---------------------------------------------------------------------------------
 (1) _I2C_Master_Start                                     0     0      0       0
                    _I2C_Master_Wait
 ---------------------------------------------------------------------------------
 (1) _I2C_Master_Read                                      6     4      2     349
                                              0 COMMON     6     4      2
                    _I2C_Master_Wait
 ---------------------------------------------------------------------------------
 (2) _I2C_Master_Wait                                      0     0      0       0
 ---------------------------------------------------------------------------------
 Estimated maximum stack depth 3
 ---------------------------------------------------------------------------------

 Call Graph Graphs:

 _main (ROOT)
   _I2C_Master_Read
     _I2C_Master_Wait
   _I2C_Master_Start
     _I2C_Master_Wait
   _I2C_Master_Stop
     _I2C_Master_Wait
   _I2C_Master_Write
     _I2C_Master_Wait
   _Lcd_Clear
     _Lcd_Cmd
       _Lcd_Port
   _Lcd_Init
     _Lcd_Cmd
       _Lcd_Port
     _Lcd_Port
   _Lcd_Set_Cursor
     _Lcd_Cmd
       _Lcd_Port
   _Lcd_Write_Char
     _Lcd_Port
   _Lcd_Write_String
     _Lcd_Write_Char
       _Lcd_Port
   ___fladd
     ___fldiv (ARG)
       ___flmul (ARG)
         __Umul8_16
         ___xxtofl (ARG)
       ___xxtofl (ARG)
     ___flmul (ARG)
       __Umul8_16
       ___xxtofl (ARG)
     ___xxtofl (ARG)
   ___fldiv
     ___flmul (ARG)
       __Umul8_16
       ___xxtofl (ARG)
     ___xxtofl (ARG)
   ___flge
   ___flmul
     __Umul8_16
     ___xxtofl (ARG)
   ___fltol
   ___xxtofl
   _division
     ___awdiv
     ___awmod
   _setup
     _I2C_Master_Init
       ___lldiv

 Address spaces:
Name               Size   Autos  Total    Cost      Usage
BITCOMMON            E      0       0       0        0.0%
EEDATA             100      0       0       0        0.0%
NULL                 0      0       0       0        0.0%
CODE                 0      0       0       0        0.0%
COMMON               E      E       E       1      100.0%
BITSFR0              0      0       0       1        0.0%
SFR0                 0      0       0       1        0.0%
BITSFR1              0      0       0       2        0.0%
SFR1                 0      0       0       2        0.0%
STACK                0      0       0       2        0.0%
ABS                  0      0      67       3        0.0%
BITBANK0            50      0       0       4        0.0%
BITSFR3              0      0       0       4        0.0%
SFR3                 0      0       0       4        0.0%
BANK0               50     4B      50       5      100.0%
BITSFR2              0      0       0       5        0.0%
SFR2                 0      0       0       5        0.0%
BITBANK1            50      0       0       6        0.0%
BANK1               50      0       9       7       11.2%
BITBANK3            60      0       0       8        0.0%
BANK3               60      0       0       9        0.0%
BITBANK2            60      0       0      10        0.0%
BANK2               60      0       0      11        0.0%
DATA                 0      0      67      12        0.0%


Microchip Technology PIC Macro Assembler V2.31 build 20201012212115 
Symbol Table                                                                                   Tue Aug 10 00:52:37 2021

             ___fldiv@aexp 0053               ___fldiv@bexp 0052                          pc 0002  
             ___fldiv@sign 004B                         l71 0422                         l81 17FF  
                       l78 0A53               ___awdiv@sign 0076                         fsr 0004  
      __Umul8_16@word_mpld 0076                        l110 08E5                        l113 17AC  
                      l131 002C                        l116 17B8                        l132 002F  
                      l133 0034                        l125 0808                        l119 17A1  
                      l128 17AB                        l161 082A                        l153 0812  
                      l313 0AB9                        l154 0815                        l155 081B  
                      l156 081C                        l164 17DF                        l157 0822  
                      l173 0937                        l158 0823                        l430 0B20  
                      l159 0829                        l167 17C5                        l176 09ED  
                      l185 084F                        l601 0F93                        l179 08AD  
                      l451 0051                        l443 0990                        l612 0FF3  
                      l604 0FD1                        l613 0FFF                        l454 00BD  
                      l470 0B85                        l710 00F9                        l455 00D6  
                      l463 0B9A                        l712 0190                        l473 0B9A  
                      l570 0DDB                        l650 0D6B                        l642 0CE9  
                      l626 0BF7                        l723 015A                        l628 0D77  
                      l724 0166                        l716 013E                        l574 0E82  
                      l591 0F4D                        l583 0FFF                        l576 0E59  
                      l648 0D5B                        l672 0755                        l666 07E9  
                      l595 0F71                        l685 0864                        l678 07DD  
                      l687 0876                        _GIE 005F                        _RD3 0043  
                      _RD4 0044                        _RD5 0045                        _RD6 0046  
                      _RD7 0047                        fsr0 0004               ___awmod@sign 0076  
             ___flmul@aexp 0032               ___flmul@bexp 0033               ___flmul@sign 002D  
             ___flmul@temp 0038               ___flmul@prod 0034               ___fltol@exp1 007A  
                     l2001 17A7                       l2011 0022                       l2003 0007  
                     l2013 0028                       l2005 000C                       l2021 0805  
                     l2101 0D94                       l2015 0030                       l2007 0014  
                     l2111 0DAC                       l2103 0D9C                       l2023 09EF  
                     l2009 001D                       l2201 0EBC                       l2121 0DBE  
                     l2113 0DB2                       l2105 0D9D                       l2041 0071  
                     l2033 0035                       l2025 0A47                       l2019 0800  
                     l2203 0EBE                       l2211 0ED1                       l2123 0DC3  
                     l2131 0DD3                       l2115 0DB3                       l2107 0D9F  
                     l2043 0095                       l2035 0049                       l2027 0A4B  
                     l2213 0EE7                       l2221 0F3F                       l2205 0EC2  
                     l2141 0DF1                       l2133 0DE1                       l2125 0DC8  
                     l2117 0DB9                       l2109 0DA7                       l2301 0BC2  
                     l2045 0099                       l2037 0065                       l2061 0B4A  
                     l2053 0B21                       l2029 0A4F                       l2231 0F6C  
                     l2223 0F55                       l2215 0F25                       l2207 0EC3  
                     l2151 0E05                       l2143 0DF5                       l2135 0DE5  
                     l2127 0DD0                       l2119 0DBD                       l2311 0BDA  
                     l2303 0BCA                       l2047 00D3                       l2039 006D  
                     l2063 0B4B                       l2055 0B2C                       l2241 0F7F  
                     l2233 0F70                       l2225 0F5A                       l2217 0F2B  
                     l2209 0ECC                       l2161 0E19                       l2153 0E09  
                     l2145 0DF9                       l2137 0DE9                       l2129 0DD1  
                     l2401 0D1E                       l2313 0BDF                       l2321 0BEF  
                     l2305 0BCF                       l2049 00D5                       l2065 0B53  
                     l2251 0F90                       l2235 0F75                       l2243 0F81  
                     l2219 0F30                       l2171 0E3D                       l2163 0E1D  
                     l2155 0E0D                       l2147 0DFD                       l2139 0DED  
                     l2091 0D7F                       l2411 0D52                       l2403 0D24  
                     l2323 0BFF                       l2331 0C18                       l2315 0BE4  
                     l2307 0BD5                       l2083 0B7A                       l2075 0B61  
                     l2067 0B55                       l2059 0B35                       l2261 0FAF  
                     l2237 0F78                       l2229 0F63                       l2245 0F85  
                     l2181 0E6D                       l2173 0E5D                       l2165 0E21  
                     l2157 0E11                       l2149 0E01                       l2093 0D85  
                     l2413 0D5A                       l2405 0D31                       l2341 0C40  
                     l2333 0C1D                       l2325 0C0B                       l2317 0BEC  
                     l2309 0BD9                       l2501 0686                       l2085 0B8A  
                     l2069 0B59                       l2077 0B73                       l2271 0FE8  
                     l2263 0FCD                       l2255 0F98                       l2247 0F86  
                     l2239 0F7A                       l2183 0E76                       l2175 0E66  
                     l2159 0E15                       l2167 0E25                       l2095 0D89  
                     l2415 0D61                       l2407 0D3F                       l2351 0C69  
                     l2343 0C48                       l2327 0C0F                       l2319 0BED  
                     l2511 0718                       l2503 06B3                       l2431 049A  
                     l2087 0B8F                       l1801 0882                       l2281 0FFE  
                     l2273 0FE9                       l2265 0FD6                       l2257 0F9D  
                     l2249 0F8A                       l2193 0E94                       l2177 0E68  
                     l2185 0E7A                       l2169 0E26                       l2097 0D8A  
                     l2089 0D78                       l2417 0D65                       l2409 0D4E  
                     l2361 0C8A                       l2353 0C6D                       l2345 0C50  
                     l2337 0C26                       l2513 0721                       l2521 0735  
                     l2505 06D9                       l2441 04AF                       l2433 049B  
                     l2425 0489                       l2601 0183                       l1811 089D  
                     l1803 0885                       l2275 0FED                       l2267 0FDB  
                     l2259 0FAB                       l2195 0EAB                       l2187 0E86  
                     l2179 0E6C                       l2099 0D8F                       l2419 0D67  
                     l2371 0CAC                       l2363 0C98                       l2355 0C6E  
                     l2347 0C52                       l2339 0C38                       l2291 0BAD  
                     l2283 0B9B                       l2523 0739                       l2515 0725  
                     l2507 0701                       l2451 04C7                       l2443 04B7  
                     l2435 04A0                       l2427 0490                       l2603 0187  
                     l2611 0196                       l1813 08A3                       l1805 0893  
                     l2277 0FEF                       l2269 0FE3                       l2197 0EAF  
                     l2189 0E8B                       l2373 0CB5                       l2381 0CC9  
                     l2349 0C57                       l2357 0C77                       l2365 0C9C  
                     l2293 0BB2                       l2285 0BA2                       l2541 078A  
                     l2533 075A                       l2525 073A                       l2517 0726  
                     l2509 070A                       l2461 04E3                       l2453 04CC  
                     l2445 04BC                       l2437 04A5                       l2429 0496  
                     l2605 0188                       l1901 094D                       l1821 08B2  
                     l2701 03E2                       l2621 01B1                       l2613 0199  
                     l1831 17AC                       l1815 08A6                       l1807 0896  
                     l2279 0FFA                       l2199 0EB3                       l2383 0CCD  
                     l2375 0CB9                       l2367 0CA2                       l2359 0C89  
                     l2295 0BB7                       l2287 0BA8                       l2551 07C1  
                     l2535 075F                       l2543 0790                       l2527 073E  
                     l2519 072F                       l2471 0506                       l2463 04E8  
                     l2455 04D1                       l2447 04C2                       l2439 04AD  
                     l1911 0965                       l1903 0953                       l1823 08B5  
                     l2703 03EE                       l2631 01DA                       l2623 01BD  
                     l2615 019E                       l1833 17B2                       l1841 17D3  
                     l1817 08AA                       l1809 089A                       l2393 0CEE  
                     l2385 0CCE                       l2377 0CBA                       l2369 0CAA  
                     l2297 0BBF                       l2289 0BAC                       l2561 07E1  
                     l2553 07C3                       l2545 079D                       l2537 076D  
                     l2529 0752                       l2481 0594                       l2473 0513  
                     l2465 04ED                       l2457 04D9                       l2449 04C6  
                     l1921 0987                       l1913 096F                       l1905 0956  
                     l1825 08E2                       l2705 03F5                       l2641 020A  
                     l2633 01E3                       l2625 01C3                       l2617 01A3  
                     l2609 0191                       l1771 0820                       l1843 17DC  
                     l1835 17C7                       l2395 0CF3                       l2387 0CD2  
                     l2379 0CC3                       l2299 0BC0                       l1931 085A  
                     l2555 07D1                       l2547 07A8                       l2539 0771  
                     l2491 05F6                       l2483 05B0                       l2475 0530  
                     l2459 04DB                       l2571 00F1                       l1851 0AC4  
                     l1923 098C                       l1915 0975                       l1907 095D  
                     l1827 08E3                       l1819 08AE                       l2707 0410  
                     l2651 0235                       l2643 0213                       l2635 01F1  
                     l2627 01CF                       l2619 01AB                       l1773 0827  
                     l1765 080A                       l1837 17CA                       l2397 0D01  
                     l2389 0CE6                       l1933 085E                       l2557 07D5  
                     l2549 07B7                       l2493 0613                       l2485 05B9  
                     l2477 054C                       l2469 04F6                       l2581 011C  
                     l2573 0101                       l2565 00D8                       l1861 0AD5  
                     l1853 0AC6                       l1845 0ABA                       l1917 097C  
                     l1909 0961                       l1781 0A74                       l1829 08E4  
                     l1941 17E0                       l2661 0279                       l2653 023E  
                     l2645 021C                       l2637 01F6                       l2629 01D5  
                     l1767 080E                       l1839 17D0                       l2399 0D05  
                     l1935 086D                       l1927 0851                       l2559 07D6  
                     l2495 062C                       l2487 05C9                       l2479 0578  
                     l2591 0150                       l2583 0123                       l2567 00DD  
                     l1871 0AED                       l1863 0ADB                       l1855 0ACA  
                     l1847 0ABB                       l1919 0982                       l1791 0AA2  
                     l1783 0A78                       l1775 0A54                       l1951 17F2  
                     l1943 17E7                       l2671 02AB                       l2663 027E  
                     l2655 0255                       l2647 0221                       l2639 0205  
                     l1769 0819                       l1961 09AE                       l1937 0872  
                     l1929 0853                       l2497 0649                       l2489 05E6  
                     l2593 0154                       l2585 0127                       l2577 010A  
                     l2569 00E1                       l1873 0AFE                       l1865 0ADE  
                     l1881 0B12                       l1857 0ACF                       l1849 0ABF  
                     l1793 0AAB                       l1785 0A81                       l1777 0A64  
                     l1945 17E8                       l2681 033C                       l2673 0318  
                     l2665 0287                       l2657 0265                       l2649 0230  
                     l1963 09B4                       l1955 0991                       l1971 08FD  
                     l2499 0676                       l2595 015E                       l2587 0135  
                     l2579 010F                       l1883 0B17                       l1875 0B04  
                     l1867 0AE5                       l1859 0AD3                       l1891 0939  
                     l1787 0A93                       l1779 0A67                       l1795 0AB1  
                     l1947 17E9                       l2691 036C                       l2683 0344  
                     l2675 0320                       l2667 0297                       l2659 026A  
                     l1965 17B9                       l1957 0997                       l1981 0926  
                     l1973 0902                       l2597 0168                       l2589 0145  
                     l1885 0B1C                       l1877 0B05                       l1869 0AE9  
                     l1893 093D                       l1789 0AA1                       l1949 17EA  
                     l2693 0374                       l2685 0350                       l2677 0328  
                     l2669 029C                       l1959 09A0                       l1983 092B  
                     l1975 0908                       l1967 08E7                       l1799 0878  
                     l1991 083C                       l2599 017E                       l1879 0B0C  
                     l1895 0942                       l2695 0380                       l2687 0358  
                     l2679 0330                       l1985 0931                       l1969 08EC  
                     l1977 090F                       l1993 0842                       l1897 0944  
                     l1889 0938                       l2697 0388                       l2689 0364  
                     l1995 1799                       l1979 0915                       l1987 082C  
                     l1899 0948                       l2699 03A3                       l1997 179E  
                     l1989 082F                       l1999 17A2                       STR_1 1006  
                     STR_2 100A                       STR_3 100E                       u2010 08C5  
                     u2020 17B2                       u2100 0AFE                       u2021 17B1  
                     u2005 0888                       u2101 0AFD                       u2030 17B8  
                     u2031 17B7                       u2015 08C0                       u3000 0BE4  
                     u2120 0B12                       u2040 0ABF                       u3001 0BE3  
                     u2121 0B11                       u2105 0AFA                       u2041 0ABE  
                     u3010 0BFF                       u2130 0B17                       u2050 0ACA  
                     u2210 0982                       u3011 0BFE                       u2131 0B16  
                     u2115 0B06                       u2051 0AC9                       u2211 0981  
                     u2300 084F                       u3100 0CAA                       u3020 0C1D  
                     u2060 0ADB                       u2220 0987                       u2140 093D  
                     u2301 084E                       u3101 0CA9                       u3021 0C1C  
                     u2061 0ADA                       u2221 0986                       u2205 0976  
                     u2141 093C                       u2310 0028                       u3030 0C57  
                     u2230 085E                       u2150 0948                       u2311 0027  
                     u3031 0C56                       u2231 085D                       u2151 0947  
                     u3200 0D14                       u3120 0CB9                       u2320 0049  
                     u2400 0B43                       u2080 0AED                       u2160 0953  
                     u3121 0CB8                       u2321 0048                       u2081 0AEC  
                     u2161 0952                       u3210 0D31                       u2330 0065  
                     u2250 0872                       u2410 0B59                       u3211 0D30  
                     u3115 0CAE                       u2331 0064                       u2251 0871  
                     u2411 0B58                       u2075 0ADF                       u2260 08EC  
                     u2500 0D8F                       u3220 0D4E                       u3140 0CCD  
                     u3060 0C6D                       u2340 0071                       u3300 04E8  
                     u2420 0B60                       u2180 0965                       u2261 08EB  
                     u2501 0D8E                       u3221 0D4D                       u3205 0D0F  
                     u3141 0CCC                       u3061 0C6C                       u3045 0C59  
                     u2341 0070                       u2245 0865                       u3301 04E7  
                     u2421 0B5F                       u2405 0B3E                       u2181 0964  
                     u2510 0D94                       u3230 0D65                       u3150 0CD2  
                     u3310 04ED                       u2190 096F                       u2511 0D93  
                     u3231 0D64                       u3215 0D2D                       u3151 0CD1  
                     u3135 0CBC                       u3055 0C62                       u2351 0080  
                     u3311 04EC                       u2095 0AEE                       u2191 096E  
                     u2175 0957                       u2280 0915                       u2600 0E49  
                     u2520 0DB2                       u3160 0CE6                       u3080 0C89  
                     u2360 0099                       u2352 0081                       u3240 049A  
                     u2440 0B72                       u2281 0914                       u2521 0DB1  
                     u3225 0D4A                       u3161 0CE5                       u3081 0C88  
                     u2361 0098                       u2353 0086                       u3401 063B  
                     u3321 053E                       u3241 0499                       u2441 0B71  
                     u2610 0E5D                       u2530 0DBD                       u3170 0CED  
                     u3090 0CA2                       u2354 0087                       u3402 0642  
                     u3322 0545                       u3250 04A0                       u2450 0B79  
                     u2275 08F4                       u2611 0E5C                       u2531 0DBC  
                     u3171 0CEC                       u3091 0CA1                       u3075 0C70  
                     u2371 00A8                       u2355 008C                       u3411 0668  
                     u3403 0649                       u3331 055A                       u3323 054C  
                     u3251 049F                       u2451 0B78                       u2435 0B62  
                     u2195 096B                       u1900 0819                       u2700 0EC2  
                     u2620 0E6C                       u2540 0DC3                       u3180 0CF3  
                     u2380 00D3                       u2372 00A9                       u2356 008D  
                     u3412 066F                       u3332 0561                       u3260 04A5  
                     u1901 0818                       u2701 0EC1                       u2621 0E6B  
                     u2541 0DC2                       u3181 0CF2                       u3085 0C85  
                     u2381 00D2                       u2373 00AE                       u3421 0695  
                     u3413 0676                       u3341 0586                       u3333 0568  
                     u3261 04A4                       u1910 0820                       u2550 0DC8  
                     u3190 0D05                       u2374 00AF                       u3510 0739  
                     u3430 06BF                       u3422 069C                       u3342 058D  
                     u3270 04C6                       u2470 0B8A                       u2390 0B2C  
                     u1911 081F                       u2295 091D                       u2551 0DC7  
                     u3191 0D04                       u2375 00B4                       u3511 0738  
                     u3423 06A3                       u3351 05A2                       u3343 0594  
                     u3271 04C5                       u2471 0B89                       u2391 0B2B  
                     u1920 0827                       u2800 0F75                       u2720 0EE7  
                     u2640 0E82                       u2560 0DE1                       u2376 00B5  
                     u3600 07D5                       u3520 073E                       u3352 05A9  
                     u3280 04CC                       u2480 0B8F                       u1921 0826  
                     u2801 0F74                       u2721 0EE6                       u2641 0E81  
                     u2561 0DE0                       u2385 00CF                       u3601 07D4  
                     u3521 073D                       u3505 0728                       u3441 06CB  
                     u3353 05B0                       u3281 04CB                       u2481 0B8E  
                     u2465 0B7C                       u2810 0F7F                       u2650 0E86  
                     u2570 0DE5                       u2490 0D89                       u3530 0752  
                     u3450 06E7                       u3442 06D2                       u3290 04D1  
                     u3610 00DD                       u1930 0A64                       u2811 0F7E  
                     u2731 0EFE                       u2723 0EE3                       u2715 0EC5  
                     u2651 0E85                       u2635 0E6F                       u2571 0DE4  
                     u2491 0D88                       u3531 0751                       u3443 06D9  
                     u3435 06BA                       u3371 05D8                       u3291 04D0  
                     u3611 00DC                       u1931 0A63                       u2900 0FD6  
                     u2820 0F85                       u2740 0F12                       u2732 0EFF  
                     u2660 0E8B                       u2580 0E3D                       u3540 0759  
                     u3372 05DF                       u3700 015A                       u3620 00E1  
                     u2901 0FD5                       u2821 0F84                       u2741 0F13  
                     u2733 0F04                       u2661 0E8A                       u2581 0E3C  
                     u3541 0758                       u3461 06F3                       u3381 0605  
                     u3373 05E6                       u3365 05B2                       u3701 0159  
                     u3621 00E0                       u2910 0FDB                       u2830 0F8A  
                     u2750 0F30                       u2742 0F18                       u2734 0F05  
                     u2590 0E48                       u3550 075F                       u3462 06FA  
                     u3382 060C                       u3710 015E                       u3630 0101  
                     u1950 0A78                       u2911 0FDA                       u2831 0F89  
                     u2751 0F2F                       u2743 0F19                       u2735 0F0A  
                     u2671 0E9D                       u2591 0E46                       u3551 075E  
                     u3463 0701                       u3455 06E2                       u3383 0613  
                     u3711 015D                       u3631 0100                       u1951 0A77  
                     u2920 0FE8                       u2840 0F90                       u2760 0F55  
                     u2736 0F0B                       u2680 0EAF                       u2672 0EA4  
                     u3560 0771                       u3720 0173                       u2921 0FE7  
                     u2841 0F8F                       u2761 0F54                       u2681 0EAE  
                     u2673 0EAB                       u2585 0E39                       u3561 0770  
                     u1945 0A69                       u1890 080E                       u2930 0FED  
                     u2850 0F97                       u2770 0F5A                       u2690 0EB3  
                     u3570 0780                       u3490 0725                       u3730 0183  
                     u3650 0122                       u1970 0A93                       u1891 080D  
                     u2931 0FEC                       u2851 0F96                       u2771 0F59  
                     u2691 0EB2                       u3491 0724                       u3475 0703  
                     u3395 0615                       u3731 0182                       u3651 0121  
                     u1971 0A92                       _PEIE 005E                       u2940 0FFE  
                     u2860 0F9D                       u3580 079D                       u3740 0187  
                     u2941 0FFD                       u2861 0F9C                       u3581 079C  
                     u3485 071A                       u3741 0186                       u3725 016E  
                     u3645 0114                       u1965 0A7A                       u2870 0FAF  
                     u2790 0F70                       u2950 0BAC                       u3590 07B7  
                     u3670 0144                       u1990 0AB1                       u3750 03A3  
                     u2871 0FAE                       u2791 0F6F                       u2951 0BAB  
                     u3591 07B6                       u3575 077B                       u3671 0143  
                     u1991 0AB0                       u1975 0A8F                       u3751 03A2  
                     u3807 02A4                       u2880 0FBE                       u2960 0BB2  
                     u3760 0410                       u3817 0898                       u2785 0F65  
                     u2961 0BB1                       u3585 0799                       u3665 0136  
                     u1985 0AA3                       u3761 040F                       u2890 0FCD  
                     u2970 0BB7                       u3690 0154                       u3827 08A8  
                     u2891 0FCC                       u2971 0BB6                       u3595 07B3  
                     u3691 0153                       u2980 0BD9                       u3837 099B  
                     u2885 0FB9                       u2981 0BD8                       u3685 0149  
                     u2990 0BDF                       u3847 09AA                       u2991 0BDE  
                     u3857 09B8                       u3777 01FE                       u3867 17D7  
                     u3787 0229                       u3797 0272          ?_Lcd_Write_String 0070  
                     _main 0191                       _temp 00A7                       btemp 007E  
                     start 0000         ??_Lcd_Write_String 0075            ___fldiv@new_exp 004C  
          __end_of_Lcd_Cmd 17E0           ?_I2C_Master_Init 0020           ?_I2C_Master_Read 0070  
         ?_I2C_Master_Wait 0070           ?_I2C_Master_Stop 0070              ___fltol@sign1 0079  
          __end_of___fladd 1000                      ?_main 0070            __end_of___fldiv 0D78  
          __end_of___awdiv 0B21            __end_of___awmod 0991            __end_of___flmul 07EA  
          __end_of___fltol 0B9B            __end_of___lldiv 0ABA            ___awdiv@divisor 0070  
          ___awdiv@counter 0075                      _PORTA 0005                      _PORTB 0006  
                    _PORTC 0007                      _PORTD 0008                      _PORTE 0009  
  __size_of_Lcd_Set_Cursor 0052                      _TRISD 0088                      _SSPIE 0463  
                    _TRISE 0089                      _SSPIF 0063                      _temp1 00A0  
                    _setup 17E0                      pclath 000A                      status 0003  
                    wtemp0 007E           __end_of_Lcd_Init 09EE           __end_of_Lcd_Port 082B  
          __initialization 07EA               __end_of_main 0489                     ??_main 0068  
       __size_of_Lcd_Clear 000D          ?_I2C_Master_Start 0070          ?_I2C_Master_Write 0070  
       ??_I2C_Master_Start 0070         ??_I2C_Master_Write 0072           ___awdiv@dividend 0072  
                   ?_setup 0070                     _ANSELH 0189                  ??_Lcd_Cmd 0071  
  __size_of_Lcd_Write_Char 0037                     _SSPADD 0093                     _TRISC3 043B  
                   _TRISC4 043C                     _SSPCON 0014                     _SSPBUF 0013  
         __end_of___xxtofl 0191                     ___flge 0035           __end_of_division 0A54  
                ??___fladd 005C                  ??___fldiv 0042                  ??___awdiv 0074  
                ??___awmod 0074                  ??___flmul 0028                  ??___fltol 0074  
                ??___lldiv 0078           ___awdiv@quotient 0077            ___awmod@divisor 0070  
          ___awmod@counter 0075         __size_of__Umul8_16 0027            Lcd_Set_Cursor@a 0077  
          Lcd_Set_Cursor@b 0074            Lcd_Set_Cursor@y 0079            Lcd_Set_Cursor@z 0078  
               ___flge@ff1 0070                 ___flge@ff2 0074               ___xxtofl@arg 007A  
             ___xxtofl@exp 0079               ___xxtofl@val 0070    __end_of__initialization 07FC  
        __end_of_Lcd_Clear 17C6                 ___fltol@f1 0070             __pcstackCOMMON 0070  
            __end_of_setup 1800             _Lcd_Set_Cursor 08E6                  ?_Lcd_Init 0070  
                ?_Lcd_Port 0070                    ??_setup 007E                 __pbssBANK0 006B  
               __pbssBANK1 00A0          __end_of__Umul8_16 0877                 __pmaintext 0191  
                  ?___flge 0070  __size_of_Lcd_Write_String 0025     __end_of_Lcd_Set_Cursor 0938  
                ?___xxtofl 0070                 ??_Lcd_Init 0074                 ??_Lcd_Port 0070  
                  _SSPCON2 0091                    _SSPSTAT 0094                 __stringtab 1000  
                ?_division 0070             _Lcd_Write_Char 0877                    _Lcd_Cmd 17C6  
          __size_of___flge 00A2                    ___fladd 0D78                    ___fldiv 0B9B  
                  ___awdiv 0ABA                    ___awmod 0938                    ___flmul 0489  
                  ___fltol 0B21                    ___lldiv 0A54                    _decenas 006C  
          ?_Lcd_Set_Cursor 0074                    __ptext1 17E0                    __ptext2 08AE  
                  __ptext3 0A54                    __ptext4 09EE                    __ptext5 0938  
                  __ptext6 0ABA                    __ptext7 00D7                    __ptext8 0B21  
                  __ptext9 0489                 ??___xxtofl 0074           ___awmod@dividend 0072  
 __size_of_I2C_Master_Init 0038   __size_of_I2C_Master_Read 002E                    _residuo 006D  
                  _sensor1 006F                    _sensor2 00A5   __size_of_I2C_Master_Wait 000D  
 __size_of_I2C_Master_Stop 0009                    _voltaje 00A6     __end_of_Lcd_Write_Char 08AE  
     end_of_initialization 07FC                 ??_division 0079  __size_of_I2C_Master_Start 0009  
__size_of_I2C_Master_Write 000A            ___lldiv@divisor 0070            ___lldiv@counter 007D  
         I2C_Master_Init@c 0020           I2C_Master_Read@a 0070                  Lcd_Port@a 0070  
                _PORTDbits 0008                ___fladd@grs 0067              ___xxtofl@sign 0078  
                _TRISCbits 0087                ___fldiv@grs 004E                ___fldiv@rem 0047  
        division@dividendo 007C            ?_Lcd_Write_Char 0070          Lcd_Write_String@a 0077  
        Lcd_Write_String@i 0075                ___flmul@grs 002E                  _Lcd_Clear 17B9  
           __end_of___flge 00D7           _Lcd_Write_String 082B        start_initialization 07EA  
        __size_of_Lcd_Init 005D          __size_of_Lcd_Port 0022          ??_I2C_Master_Init 0024  
        ??_I2C_Master_Read 0072          ??_I2C_Master_Wait 0070          ??_I2C_Master_Stop 0070  
               ?_Lcd_Clear 0070                   ??___flge 0078                  __Umul8_16 0850  
          Lcd_Write_Char@a 0074            Lcd_Write_Char@y 0073                  ___fladd@a 0058  
                ___fladd@b 0054                  ___fldiv@a 003A                  ___fldiv@b 003E  
                ___flmul@a 0024                  ___flmul@b 0020                  ___latbits 0002  
            __pcstackBANK0 0020          __size_of___xxtofl 00BA                   ?_Lcd_Cmd 0070  
        __size_of_division 0066           _I2C_Master_Start 1799           _I2C_Master_Write 17A2  
         ??_Lcd_Set_Cursor 0075                   ?___fladd 0054                   ?___fldiv 003A  
                 ?___awdiv 0070                   ?___awmod 0070                   ?___flmul 0020  
                 ?___fltol 0070                   ?___lldiv 0070                 ?__Umul8_16 0070  
                _dividendo 00A4                  __pstrings 1000             __size_of_setup 0020  
                 Lcd_Cmd@a 0073                ??_Lcd_Clear 0074                __stringbase 1005  
         ??_Lcd_Write_Char 0071                   _Lcd_Init 0991                   _Lcd_Port 0809  
      I2C_Master_Read@temp 0074   __end_of_Lcd_Write_String 0850           __size_of_Lcd_Cmd 001A  
              ??__Umul8_16 0072           __size_of___fladd 0288           __size_of___fldiv 01DD  
         __size_of___awdiv 0067           __size_of___awmod 0059           __size_of___flmul 0361  
         __size_of___fltol 007A           __size_of___lldiv 0066         __end_of__stringtab 1006  
          _I2C_Master_Init 08AE            _I2C_Master_Read 0007                   ___xxtofl 00D7  
          _I2C_Master_Wait 17AC            _I2C_Master_Stop 0800                   _centenas 006E  
                 __ptext10 0850                   __ptext11 0035                   __ptext20 0809  
                 __ptext12 0B9B                   __ptext21 17A2                   __ptext13 0D78  
                 __ptext22 0800                   __ptext14 082B                   __ptext23 1799  
                 __ptext15 0877                   __ptext24 0007                   __ptext16 08E6  
                 __ptext25 17AC                   __ptext17 0991                   __ptext18 17B9  
                 __ptext19 17C6                   _division 09EE              __size_of_main 02F8  
                 _unidades 006B   __end_of_I2C_Master_Start 17A2   __end_of_I2C_Master_Write 17AC  
       Lcd_Write_Char@temp 0072           ___lldiv@dividend 0074                  stringcode 1000  
               _OSCCONbits 008F    __end_of_I2C_Master_Init 08E6    __end_of_I2C_Master_Read 0035  
  __end_of_I2C_Master_Wait 17B9    __end_of_I2C_Master_Stop 0809         Lcd_Set_Cursor@temp 007A  
   __Umul8_16@multiplicand 0070           ___lldiv@quotient 0079          I2C_Master_Write@d 0070  
                 stringdir 1000                   stringtab 1000                _SSPCON2bits 0091  
            ___fladd@signs 0064               ___fladd@aexp 0065               ___fladd@bexp 0066  
     __Umul8_16@multiplier 0078          __Umul8_16@product 0074  
