

Microchip MPLAB XC8 Assembler V2.31 build 20201012212115 
                                                                                               Mon Aug 09 23:14:22 2021

Microchip MPLAB XC8 C Compiler v2.31 (Free license) build 20201012212115 Og1 
     1                           	processor	16F887
     2                           	pagewidth 120
     3                           	opt	flic
     4                           	psect	strings,global,class=STRING,delta=2,noexec
     5                           	psect	cinit,global,class=CODE,merge=1,delta=2
     6                           	psect	bssBANK0,global,class=BANK0,space=1,delta=1,noexec
     7                           	psect	bssBANK1,global,class=BANK1,space=1,delta=1,noexec
     8                           	psect	cstackBANK1,global,class=BANK1,space=1,delta=1,noexec
     9                           	psect	cstackCOMMON,global,class=COMMON,space=1,delta=1,noexec
    10                           	psect	cstackBANK0,global,class=BANK0,space=1,delta=1,noexec
    11                           	psect	maintext,global,class=CODE,split=1,delta=2
    12                           	psect	text1,local,class=CODE,merge=1,delta=2
    13                           	psect	text2,local,class=CODE,merge=1,delta=2
    14                           	psect	text3,local,class=CODE,merge=1,delta=2,group=1
    15                           	psect	text4,local,class=CODE,merge=1,delta=2
    16                           	psect	text5,local,class=CODE,merge=1,delta=2,group=1
    17                           	psect	text6,local,class=CODE,merge=1,delta=2,group=1
    18                           	psect	text7,local,class=CODE,merge=1,delta=2,group=1
    19                           	psect	text8,local,class=CODE,merge=1,delta=2,group=1
    20                           	psect	text9,local,class=CODE,merge=1,delta=2,group=1
    21                           	psect	text10,local,class=CODE,merge=1,delta=2,group=1
    22                           	psect	text11,local,class=CODE,merge=1,delta=2,group=1
    23                           	psect	text12,local,class=CODE,merge=1,delta=2,group=1
    24                           	psect	text13,local,class=CODE,merge=1,delta=2
    25                           	psect	text14,local,class=CODE,merge=1,delta=2
    26                           	psect	text15,local,class=CODE,merge=1,delta=2
    27                           	psect	text16,local,class=CODE,merge=1,delta=2
    28                           	psect	text17,local,class=CODE,merge=1,delta=2
    29                           	psect	text18,local,class=CODE,merge=1,delta=2
    30                           	psect	text19,local,class=CODE,merge=1,delta=2
    31                           	psect	text20,local,class=CODE,merge=1,delta=2
    32                           	psect	text21,local,class=CODE,merge=1,delta=2
    33                           	psect	text22,local,class=CODE,merge=1,delta=2
    34                           	psect	text23,local,class=CODE,merge=1,delta=2
    35                           	psect	text24,local,class=CODE,merge=1,delta=2
    36                           	psect	config,global,abs,ovrld,class=CONFIG,space=4,delta=2,noexec
    37                           	dabs	1,0x7E,2
    38  0000                     
    39                           ; Version 2.20
    40                           ; Generated 12/02/2020 GMT
    41                           ; 
    42                           ; Copyright © 2020, Microchip Technology Inc. and its subsidiaries ("Microchip")
    43                           ; All rights reserved.
    44                           ; 
    45                           ; This software is developed by Microchip Technology Inc. and its subsidiaries ("Microch
      +                          ip").
    46                           ; 
    47                           ; Redistribution and use in source and binary forms, with or without modification, are
    48                           ; permitted provided that the following conditions are met:
    49                           ; 
    50                           ;     1. Redistributions of source code must retain the above copyright notice, this lis
      +                          t of
    51                           ;        conditions and the following disclaimer.
    52                           ; 
    53                           ;     2. Redistributions in binary form must reproduce the above copyright notice, this 
      +                          list
    54                           ;        of conditions and the following disclaimer in the documentation and/or other
    55                           ;        materials provided with the distribution.
    56                           ; 
    57                           ;     3. Microchip's name may not be used to endorse or promote products derived from th
      +                          is
    58                           ;        software without specific prior written permission.
    59                           ; 
    60                           ; THIS SOFTWARE IS PROVIDED BY MICROCHIP "AS IS" AND ANY EXPRESS OR IMPLIED WARRANTIES,
    61                           ; INCLUDING, BUT NOT LIMITED TO, THE IMPLIED WARRANTIES OF MERCHANTABILITY AND FITNESS F
      +                          OR
    62                           ; PURPOSE ARE DISCLAIMED.  IN NO EVENT SHALL MICROCHIP BE LIABLE FOR ANY DIRECT, INDIREC
      +                          T,
    63                           ; INCIDENTAL, SPECIAL, EXEMPLARY, OR CONSEQUENTIAL DAMAGES (INCLUDING BUT NOT LIMITED TO
    64                           ; PROCUREMENT OF SUBSTITUTE GOODS OR SERVICES; LOSS OF USE, DATA OR PROFITS; OR BUSINESS
    65                           ; INTERRUPTION) HOWSOEVER CAUSED AND ON ANY THEORY OF LIABILITY, WHETHER IN CONTRACT, ST
      +                          RICT
    66                           ; LIABILITY, OR TORT (INCLUDING NEGLIGENCE OR OTHERWISE) ARISING IN ANY WAY OUT OF THE U
      +                          SE OF
    67                           ; THIS SOFTWARE, EVEN IF ADVISED OF THE POSSIBILITY OF SUCH DAMAGE.
    68                           ; 
    69                           ; 
    70                           ; Code-generator required, PIC16F887 Definitions
    71                           ; 
    72                           ; SFR Addresses
    73  0000                     	;# 
    74  0001                     	;# 
    75  0002                     	;# 
    76  0003                     	;# 
    77  0004                     	;# 
    78  0005                     	;# 
    79  0006                     	;# 
    80  0007                     	;# 
    81  0008                     	;# 
    82  0009                     	;# 
    83  000A                     	;# 
    84  000B                     	;# 
    85  000C                     	;# 
    86  000D                     	;# 
    87  000E                     	;# 
    88  000E                     	;# 
    89  000F                     	;# 
    90  0010                     	;# 
    91  0011                     	;# 
    92  0012                     	;# 
    93  0013                     	;# 
    94  0014                     	;# 
    95  0015                     	;# 
    96  0015                     	;# 
    97  0016                     	;# 
    98  0017                     	;# 
    99  0018                     	;# 
   100  0019                     	;# 
   101  001A                     	;# 
   102  001B                     	;# 
   103  001B                     	;# 
   104  001C                     	;# 
   105  001D                     	;# 
   106  001E                     	;# 
   107  001F                     	;# 
   108  0081                     	;# 
   109  0085                     	;# 
   110  0086                     	;# 
   111  0087                     	;# 
   112  0088                     	;# 
   113  0089                     	;# 
   114  008C                     	;# 
   115  008D                     	;# 
   116  008E                     	;# 
   117  008F                     	;# 
   118  0090                     	;# 
   119  0091                     	;# 
   120  0092                     	;# 
   121  0093                     	;# 
   122  0093                     	;# 
   123  0093                     	;# 
   124  0094                     	;# 
   125  0095                     	;# 
   126  0096                     	;# 
   127  0097                     	;# 
   128  0098                     	;# 
   129  0099                     	;# 
   130  009A                     	;# 
   131  009B                     	;# 
   132  009C                     	;# 
   133  009D                     	;# 
   134  009E                     	;# 
   135  009F                     	;# 
   136  0105                     	;# 
   137  0107                     	;# 
   138  0108                     	;# 
   139  0109                     	;# 
   140  010C                     	;# 
   141  010C                     	;# 
   142  010D                     	;# 
   143  010E                     	;# 
   144  010F                     	;# 
   145  0185                     	;# 
   146  0187                     	;# 
   147  0188                     	;# 
   148  0189                     	;# 
   149  018C                     	;# 
   150  018D                     	;# 
   151  0000                     	;# 
   152  0001                     	;# 
   153  0002                     	;# 
   154  0003                     	;# 
   155  0004                     	;# 
   156  0005                     	;# 
   157  0006                     	;# 
   158  0007                     	;# 
   159  0008                     	;# 
   160  0009                     	;# 
   161  000A                     	;# 
   162  000B                     	;# 
   163  000C                     	;# 
   164  000D                     	;# 
   165  000E                     	;# 
   166  000E                     	;# 
   167  000F                     	;# 
   168  0010                     	;# 
   169  0011                     	;# 
   170  0012                     	;# 
   171  0013                     	;# 
   172  0014                     	;# 
   173  0015                     	;# 
   174  0015                     	;# 
   175  0016                     	;# 
   176  0017                     	;# 
   177  0018                     	;# 
   178  0019                     	;# 
   179  001A                     	;# 
   180  001B                     	;# 
   181  001B                     	;# 
   182  001C                     	;# 
   183  001D                     	;# 
   184  001E                     	;# 
   185  001F                     	;# 
   186  0081                     	;# 
   187  0085                     	;# 
   188  0086                     	;# 
   189  0087                     	;# 
   190  0088                     	;# 
   191  0089                     	;# 
   192  008C                     	;# 
   193  008D                     	;# 
   194  008E                     	;# 
   195  008F                     	;# 
   196  0090                     	;# 
   197  0091                     	;# 
   198  0092                     	;# 
   199  0093                     	;# 
   200  0093                     	;# 
   201  0093                     	;# 
   202  0094                     	;# 
   203  0095                     	;# 
   204  0096                     	;# 
   205  0097                     	;# 
   206  0098                     	;# 
   207  0099                     	;# 
   208  009A                     	;# 
   209  009B                     	;# 
   210  009C                     	;# 
   211  009D                     	;# 
   212  009E                     	;# 
   213  009F                     	;# 
   214  0105                     	;# 
   215  0107                     	;# 
   216  0108                     	;# 
   217  0109                     	;# 
   218  010C                     	;# 
   219  010C                     	;# 
   220  010D                     	;# 
   221  010E                     	;# 
   222  010F                     	;# 
   223  0185                     	;# 
   224  0187                     	;# 
   225  0188                     	;# 
   226  0189                     	;# 
   227  018C                     	;# 
   228  018D                     	;# 
   229  0000                     	;# 
   230  0001                     	;# 
   231  0002                     	;# 
   232  0003                     	;# 
   233  0004                     	;# 
   234  0005                     	;# 
   235  0006                     	;# 
   236  0007                     	;# 
   237  0008                     	;# 
   238  0009                     	;# 
   239  000A                     	;# 
   240  000B                     	;# 
   241  000C                     	;# 
   242  000D                     	;# 
   243  000E                     	;# 
   244  000E                     	;# 
   245  000F                     	;# 
   246  0010                     	;# 
   247  0011                     	;# 
   248  0012                     	;# 
   249  0013                     	;# 
   250  0014                     	;# 
   251  0015                     	;# 
   252  0015                     	;# 
   253  0016                     	;# 
   254  0017                     	;# 
   255  0018                     	;# 
   256  0019                     	;# 
   257  001A                     	;# 
   258  001B                     	;# 
   259  001B                     	;# 
   260  001C                     	;# 
   261  001D                     	;# 
   262  001E                     	;# 
   263  001F                     	;# 
   264  0081                     	;# 
   265  0085                     	;# 
   266  0086                     	;# 
   267  0087                     	;# 
   268  0088                     	;# 
   269  0089                     	;# 
   270  008C                     	;# 
   271  008D                     	;# 
   272  008E                     	;# 
   273  008F                     	;# 
   274  0090                     	;# 
   275  0091                     	;# 
   276  0092                     	;# 
   277  0093                     	;# 
   278  0093                     	;# 
   279  0093                     	;# 
   280  0094                     	;# 
   281  0095                     	;# 
   282  0096                     	;# 
   283  0097                     	;# 
   284  0098                     	;# 
   285  0099                     	;# 
   286  009A                     	;# 
   287  009B                     	;# 
   288  009C                     	;# 
   289  009D                     	;# 
   290  009E                     	;# 
   291  009F                     	;# 
   292  0105                     	;# 
   293  0107                     	;# 
   294  0108                     	;# 
   295  0109                     	;# 
   296  010C                     	;# 
   297  010C                     	;# 
   298  010D                     	;# 
   299  010E                     	;# 
   300  010F                     	;# 
   301  0185                     	;# 
   302  0187                     	;# 
   303  0188                     	;# 
   304  0189                     	;# 
   305  018C                     	;# 
   306  018D                     	;# 
   307  0000                     	;# 
   308  0001                     	;# 
   309  0002                     	;# 
   310  0003                     	;# 
   311  0004                     	;# 
   312  0005                     	;# 
   313  0006                     	;# 
   314  0007                     	;# 
   315  0008                     	;# 
   316  0009                     	;# 
   317  000A                     	;# 
   318  000B                     	;# 
   319  000C                     	;# 
   320  000D                     	;# 
   321  000E                     	;# 
   322  000E                     	;# 
   323  000F                     	;# 
   324  0010                     	;# 
   325  0011                     	;# 
   326  0012                     	;# 
   327  0013                     	;# 
   328  0014                     	;# 
   329  0015                     	;# 
   330  0015                     	;# 
   331  0016                     	;# 
   332  0017                     	;# 
   333  0018                     	;# 
   334  0019                     	;# 
   335  001A                     	;# 
   336  001B                     	;# 
   337  001B                     	;# 
   338  001C                     	;# 
   339  001D                     	;# 
   340  001E                     	;# 
   341  001F                     	;# 
   342  0081                     	;# 
   343  0085                     	;# 
   344  0086                     	;# 
   345  0087                     	;# 
   346  0088                     	;# 
   347  0089                     	;# 
   348  008C                     	;# 
   349  008D                     	;# 
   350  008E                     	;# 
   351  008F                     	;# 
   352  0090                     	;# 
   353  0091                     	;# 
   354  0092                     	;# 
   355  0093                     	;# 
   356  0093                     	;# 
   357  0093                     	;# 
   358  0094                     	;# 
   359  0095                     	;# 
   360  0096                     	;# 
   361  0097                     	;# 
   362  0098                     	;# 
   363  0099                     	;# 
   364  009A                     	;# 
   365  009B                     	;# 
   366  009C                     	;# 
   367  009D                     	;# 
   368  009E                     	;# 
   369  009F                     	;# 
   370  0105                     	;# 
   371  0107                     	;# 
   372  0108                     	;# 
   373  0109                     	;# 
   374  010C                     	;# 
   375  010C                     	;# 
   376  010D                     	;# 
   377  010E                     	;# 
   378  010F                     	;# 
   379  0185                     	;# 
   380  0187                     	;# 
   381  0188                     	;# 
   382  0189                     	;# 
   383  018C                     	;# 
   384  018D                     	;# 
   385  0008                     _PORTDbits	set	8
   386  0013                     _SSPBUF	set	19
   387  0014                     _SSPCON	set	20
   388  0009                     _PORTE	set	9
   389  0008                     _PORTD	set	8
   390  0007                     _PORTC	set	7
   391  0006                     _PORTB	set	6
   392  0005                     _PORTA	set	5
   393  0043                     _RD3	set	67
   394  0047                     _RD7	set	71
   395  0046                     _RD6	set	70
   396  0045                     _RD5	set	69
   397  0044                     _RD4	set	68
   398  0063                     _SSPIF	set	99
   399  005E                     _PEIE	set	94
   400  005F                     _GIE	set	95
   401  0091                     _SSPCON2bits	set	145
   402  0087                     _TRISCbits	set	135
   403  0094                     _SSPSTAT	set	148
   404  0093                     _SSPADD	set	147
   405  0091                     _SSPCON2	set	145
   406  008F                     _OSCCONbits	set	143
   407  0089                     _TRISE	set	137
   408  0085                     _TRISA	set	133
   409  0086                     _TRISB	set	134
   410  0088                     _TRISD	set	136
   411  0463                     _SSPIE	set	1123
   412  043C                     _TRISC4	set	1084
   413  043B                     _TRISC3	set	1083
   414  0189                     _ANSELH	set	393
   415                           
   416                           	psect	strings
   417  0800                     __pstrings:
   418  0800                     stringtab:
   419  0800                     __stringtab:
   420  0800                     stringcode:	
   421                           ;	String table - string pointers are 1 byte each
   422                           
   423  0800                     stringdir:
   424  0800  3008               	movlw	high stringdir
   425  0801  008A               	movwf	10
   426  0802  0804               	movf	4,w
   427  0803  0A84               	incf	4,f
   428  0804  0782               	addwf	2,f
   429  0805                     __stringbase:
   430  0805  3400               	retlw	0
   431  0806                     __end_of__stringtab:
   432  0806                     STR_1:
   433  0806  3453               	retlw	83	;'S'
   434  0807  3431               	retlw	49	;'1'
   435  0808  343A               	retlw	58	;':'
   436  0809  3400               	retlw	0
   437  080A                     STR_2:
   438  080A  3453               	retlw	83	;'S'
   439  080B  3432               	retlw	50	;'2'
   440  080C  343A               	retlw	58	;':'
   441  080D  3400               	retlw	0
   442  080E                     STR_3:
   443  080E  3453               	retlw	83	;'S'
   444  080F  3433               	retlw	51	;'3'
   445  0810  343A               	retlw	58	;':'
   446  0811  3400               	retlw	0
   447                           
   448                           	psect	cinit
   449  07EE                     start_initialization:	
   450                           ; #config settings
   451                           
   452  07EE                     __initialization:
   453                           
   454                           ; Clear objects allocated to BANK0
   455  07EE  1283               	bcf	3,5	;RP0=0, select bank0
   456  07EF  1303               	bcf	3,6	;RP1=0, select bank0
   457  07F0  01EE               	clrf	__pbssBANK0& (0+127)
   458  07F1  01EF               	clrf	(__pbssBANK0+1)& (0+127)
   459                           
   460                           ; Clear objects allocated to BANK1
   461  07F2  1683               	bsf	3,5	;RP0=1, select bank1
   462  07F3  1303               	bcf	3,6	;RP1=0, select bank1
   463  07F4  01AA               	clrf	__pbssBANK1& (0+127)
   464  07F5  01AB               	clrf	(__pbssBANK1+1)& (0+127)
   465  07F6  01AC               	clrf	(__pbssBANK1+2)& (0+127)
   466  07F7  01AD               	clrf	(__pbssBANK1+3)& (0+127)
   467  07F8  01AE               	clrf	(__pbssBANK1+4)& (0+127)
   468  07F9  01AF               	clrf	(__pbssBANK1+5)& (0+127)
   469  07FA  01B0               	clrf	(__pbssBANK1+6)& (0+127)
   470  07FB  01B1               	clrf	(__pbssBANK1+7)& (0+127)
   471  07FC                     end_of_initialization:	
   472                           ;End of C runtime variable initialization code
   473                           
   474  07FC                     __end_of__initialization:
   475  07FC  0183               	clrf	3
   476  07FD  120A  158A  2DA9   	ljmp	_main	;jump to C main() function
   477                           
   478                           	psect	bssBANK0
   479  006E                     __pbssBANK0:
   480  006E                     _unidades:
   481  006E                     	ds	1
   482  006F                     _decenas:
   483  006F                     	ds	1
   484                           
   485                           	psect	bssBANK1
   486  00AA                     __pbssBANK1:
   487  00AA                     _residuo:
   488  00AA                     	ds	1
   489  00AB                     _centenas:
   490  00AB                     	ds	1
   491  00AC                     _dividendo:
   492  00AC                     	ds	1
   493  00AD                     _sensor2:
   494  00AD                     	ds	1
   495  00AE                     _sensor1:
   496  00AE                     	ds	1
   497  00AF                     _temp1:
   498  00AF                     	ds	1
   499  00B0                     _voltaje:
   500  00B0                     	ds	1
   501  00B1                     _temp:
   502  00B1                     	ds	1
   503                           
   504                           	psect	cstackBANK1
   505  00A0                     __pcstackBANK1:
   506  00A0                     ??___fltol:
   507                           
   508                           ; 1 bytes @ 0x0
   509  00A0                     	ds	5
   510  00A5                     ??_main:
   511                           
   512                           ; 1 bytes @ 0x5
   513  00A5                     	ds	5
   514                           
   515                           	psect	cstackCOMMON
   516  0070                     __pcstackCOMMON:
   517  0070                     ?_setup:
   518  0070                     ?_Lcd_Init:	
   519                           ; 1 bytes @ 0x0
   520                           
   521  0070                     ?_Lcd_Clear:	
   522                           ; 1 bytes @ 0x0
   523                           
   524  0070                     ?_Lcd_Write_String:	
   525                           ; 1 bytes @ 0x0
   526                           
   527  0070                     ?_I2C_Master_Start:	
   528                           ; 1 bytes @ 0x0
   529                           
   530  0070                     ??_I2C_Master_Start:	
   531                           ; 1 bytes @ 0x0
   532                           
   533  0070                     ?_I2C_Master_Write:	
   534                           ; 1 bytes @ 0x0
   535                           
   536  0070                     ?_I2C_Master_Stop:	
   537                           ; 1 bytes @ 0x0
   538                           
   539  0070                     ??_I2C_Master_Stop:	
   540                           ; 1 bytes @ 0x0
   541                           
   542  0070                     ?_division:	
   543                           ; 1 bytes @ 0x0
   544                           
   545  0070                     ?_Lcd_Write_Char:	
   546                           ; 1 bytes @ 0x0
   547                           
   548  0070                     ?_main:	
   549                           ; 1 bytes @ 0x0
   550                           
   551  0070                     ?_I2C_Master_Wait:	
   552                           ; 1 bytes @ 0x0
   553                           
   554  0070                     ??_I2C_Master_Wait:	
   555                           ; 1 bytes @ 0x0
   556                           
   557  0070                     ?_Lcd_Port:	
   558                           ; 1 bytes @ 0x0
   559                           
   560  0070                     ??_Lcd_Port:	
   561                           ; 1 bytes @ 0x0
   562                           
   563  0070                     ?_Lcd_Cmd:	
   564                           ; 1 bytes @ 0x0
   565                           
   566  0070                     ?_I2C_Master_Read:	
   567                           ; 1 bytes @ 0x0
   568                           
   569  0070                     ?__Umul8_16:	
   570                           ; 2 bytes @ 0x0
   571                           
   572  0070                     ?___awdiv:	
   573                           ; 2 bytes @ 0x0
   574                           
   575  0070                     ?___awmod:	
   576                           ; 2 bytes @ 0x0
   577                           
   578  0070                     ?___lldiv:	
   579                           ; 2 bytes @ 0x0
   580                           
   581  0070                     ?___xxtofl:	
   582                           ; 4 bytes @ 0x0
   583                           
   584  0070                     Lcd_Port@a:	
   585                           ; 4 bytes @ 0x0
   586                           
   587  0070                     __Umul8_16@multiplicand:	
   588                           ; 1 bytes @ 0x0
   589                           
   590  0070                     I2C_Master_Write@d:	
   591                           ; 1 bytes @ 0x0
   592                           
   593  0070                     I2C_Master_Read@a:	
   594                           ; 2 bytes @ 0x0
   595                           
   596  0070                     ___awdiv@divisor:	
   597                           ; 2 bytes @ 0x0
   598                           
   599  0070                     ___awmod@divisor:	
   600                           ; 2 bytes @ 0x0
   601                           
   602  0070                     ___lldiv@divisor:	
   603                           ; 2 bytes @ 0x0
   604                           
   605  0070                     ___xxtofl@val:	
   606                           ; 4 bytes @ 0x0
   607                           
   608                           
   609                           ; 4 bytes @ 0x0
   610  0070                     	ds	1
   611  0071                     ??_Lcd_Write_Char:
   612  0071                     ??_Lcd_Cmd:	
   613                           ; 1 bytes @ 0x1
   614                           
   615                           
   616                           ; 1 bytes @ 0x1
   617  0071                     	ds	1
   618  0072                     ??_I2C_Master_Write:
   619  0072                     ??_I2C_Master_Read:	
   620                           ; 1 bytes @ 0x2
   621                           
   622  0072                     ??__Umul8_16:	
   623                           ; 1 bytes @ 0x2
   624                           
   625  0072                     Lcd_Write_Char@temp:	
   626                           ; 1 bytes @ 0x2
   627                           
   628  0072                     ___awdiv@dividend:	
   629                           ; 1 bytes @ 0x2
   630                           
   631  0072                     ___awmod@dividend:	
   632                           ; 2 bytes @ 0x2
   633                           
   634                           
   635                           ; 2 bytes @ 0x2
   636  0072                     	ds	1
   637  0073                     Lcd_Cmd@a:
   638  0073                     Lcd_Write_Char@y:	
   639                           ; 1 bytes @ 0x3
   640                           
   641                           
   642                           ; 1 bytes @ 0x3
   643  0073                     	ds	1
   644  0074                     ??_Lcd_Init:
   645  0074                     ??_Lcd_Clear:	
   646                           ; 1 bytes @ 0x4
   647                           
   648  0074                     ?_Lcd_Set_Cursor:	
   649                           ; 1 bytes @ 0x4
   650                           
   651  0074                     ??___awdiv:	
   652                           ; 1 bytes @ 0x4
   653                           
   654  0074                     ??___awmod:	
   655                           ; 1 bytes @ 0x4
   656                           
   657  0074                     ??___xxtofl:	
   658                           ; 1 bytes @ 0x4
   659                           
   660  0074                     Lcd_Set_Cursor@b:	
   661                           ; 1 bytes @ 0x4
   662                           
   663  0074                     Lcd_Write_Char@a:	
   664                           ; 1 bytes @ 0x4
   665                           
   666  0074                     I2C_Master_Read@temp:	
   667                           ; 1 bytes @ 0x4
   668                           
   669  0074                     __Umul8_16@product:	
   670                           ; 2 bytes @ 0x4
   671                           
   672  0074                     ___lldiv@dividend:	
   673                           ; 2 bytes @ 0x4
   674                           
   675                           
   676                           ; 4 bytes @ 0x4
   677  0074                     	ds	1
   678  0075                     ??_Lcd_Set_Cursor:
   679  0075                     ??_Lcd_Write_String:	
   680                           ; 1 bytes @ 0x5
   681                           
   682  0075                     ___awdiv@counter:	
   683                           ; 1 bytes @ 0x5
   684                           
   685  0075                     ___awmod@counter:	
   686                           ; 1 bytes @ 0x5
   687                           
   688  0075                     Lcd_Write_String@i:	
   689                           ; 1 bytes @ 0x5
   690                           
   691                           
   692                           ; 2 bytes @ 0x5
   693  0075                     	ds	1
   694  0076                     ___awdiv@sign:
   695  0076                     ___awmod@sign:	
   696                           ; 1 bytes @ 0x6
   697                           
   698  0076                     __Umul8_16@word_mpld:	
   699                           ; 1 bytes @ 0x6
   700                           
   701                           
   702                           ; 2 bytes @ 0x6
   703  0076                     	ds	1
   704  0077                     Lcd_Set_Cursor@a:
   705  0077                     Lcd_Write_String@a:	
   706                           ; 1 bytes @ 0x7
   707                           
   708  0077                     ___awdiv@quotient:	
   709                           ; 1 bytes @ 0x7
   710                           
   711                           
   712                           ; 2 bytes @ 0x7
   713  0077                     	ds	1
   714  0078                     ??___lldiv:
   715  0078                     Lcd_Set_Cursor@z:	
   716                           ; 1 bytes @ 0x8
   717                           
   718  0078                     __Umul8_16@multiplier:	
   719                           ; 1 bytes @ 0x8
   720                           
   721  0078                     ___xxtofl@sign:	
   722                           ; 1 bytes @ 0x8
   723                           
   724                           
   725                           ; 1 bytes @ 0x8
   726  0078                     	ds	1
   727  0079                     ??_division:
   728  0079                     Lcd_Set_Cursor@y:	
   729                           ; 1 bytes @ 0x9
   730                           
   731  0079                     ___xxtofl@exp:	
   732                           ; 1 bytes @ 0x9
   733                           
   734  0079                     ___lldiv@quotient:	
   735                           ; 1 bytes @ 0x9
   736                           
   737                           
   738                           ; 4 bytes @ 0x9
   739  0079                     	ds	1
   740  007A                     Lcd_Set_Cursor@temp:
   741  007A                     ___xxtofl@arg:	
   742                           ; 1 bytes @ 0xA
   743                           
   744                           
   745                           ; 4 bytes @ 0xA
   746  007A                     	ds	2
   747  007C                     division@dividendo:
   748                           
   749                           ; 1 bytes @ 0xC
   750  007C                     	ds	1
   751  007D                     ___lldiv@counter:
   752                           
   753                           ; 1 bytes @ 0xD
   754  007D                     	ds	1
   755  007E                     ??_setup:
   756                           
   757                           	psect	cstackBANK0
   758  0020                     __pcstackBANK0:	
   759                           ; 1 bytes @ 0xE
   760                           
   761  0020                     ?_I2C_Master_Init:
   762  0020                     ?___flmul:	
   763                           ; 1 bytes @ 0x0
   764                           
   765  0020                     I2C_Master_Init@c:	
   766                           ; 4 bytes @ 0x0
   767                           
   768  0020                     ___flmul@b:	
   769                           ; 4 bytes @ 0x0
   770                           
   771                           
   772                           ; 4 bytes @ 0x0
   773  0020                     	ds	4
   774  0024                     ??_I2C_Master_Init:
   775  0024                     ___flmul@a:	
   776                           ; 1 bytes @ 0x4
   777                           
   778                           
   779                           ; 4 bytes @ 0x4
   780  0024                     	ds	4
   781  0028                     ??___flmul:
   782                           
   783                           ; 1 bytes @ 0x8
   784  0028                     	ds	5
   785  002D                     ___flmul@sign:
   786                           
   787                           ; 1 bytes @ 0xD
   788  002D                     	ds	1
   789  002E                     ___flmul@grs:
   790                           
   791                           ; 4 bytes @ 0xE
   792  002E                     	ds	4
   793  0032                     ___flmul@aexp:
   794                           
   795                           ; 1 bytes @ 0x12
   796  0032                     	ds	1
   797  0033                     ___flmul@bexp:
   798                           
   799                           ; 1 bytes @ 0x13
   800  0033                     	ds	1
   801  0034                     ___flmul@prod:
   802                           
   803                           ; 4 bytes @ 0x14
   804  0034                     	ds	4
   805  0038                     ___flmul@temp:
   806                           
   807                           ; 2 bytes @ 0x18
   808  0038                     	ds	2
   809  003A                     ?___fldiv:
   810  003A                     ___fldiv@a:	
   811                           ; 4 bytes @ 0x1A
   812                           
   813                           
   814                           ; 4 bytes @ 0x1A
   815  003A                     	ds	4
   816  003E                     ___fldiv@b:
   817                           
   818                           ; 4 bytes @ 0x1E
   819  003E                     	ds	4
   820  0042                     ??___fldiv:
   821                           
   822                           ; 1 bytes @ 0x22
   823  0042                     	ds	5
   824  0047                     ___fldiv@rem:
   825                           
   826                           ; 4 bytes @ 0x27
   827  0047                     	ds	4
   828  004B                     ___fldiv@sign:
   829                           
   830                           ; 1 bytes @ 0x2B
   831  004B                     	ds	1
   832  004C                     ___fldiv@new_exp:
   833                           
   834                           ; 2 bytes @ 0x2C
   835  004C                     	ds	2
   836  004E                     ___fldiv@grs:
   837                           
   838                           ; 4 bytes @ 0x2E
   839  004E                     	ds	4
   840  0052                     ___fldiv@bexp:
   841                           
   842                           ; 1 bytes @ 0x32
   843  0052                     	ds	1
   844  0053                     ___fldiv@aexp:
   845                           
   846                           ; 1 bytes @ 0x33
   847  0053                     	ds	1
   848  0054                     ?___fladd:
   849  0054                     ___fladd@b:	
   850                           ; 4 bytes @ 0x34
   851                           
   852                           
   853                           ; 4 bytes @ 0x34
   854  0054                     	ds	4
   855  0058                     ___fladd@a:
   856                           
   857                           ; 4 bytes @ 0x38
   858  0058                     	ds	4
   859  005C                     ??___fladd:
   860                           
   861                           ; 1 bytes @ 0x3C
   862  005C                     	ds	8
   863  0064                     ___fladd@signs:
   864                           
   865                           ; 1 bytes @ 0x44
   866  0064                     	ds	1
   867  0065                     ___fladd@aexp:
   868                           
   869                           ; 1 bytes @ 0x45
   870  0065                     	ds	1
   871  0066                     ___fladd@bexp:
   872                           
   873                           ; 1 bytes @ 0x46
   874  0066                     	ds	1
   875  0067                     ___fladd@grs:
   876                           
   877                           ; 1 bytes @ 0x47
   878  0067                     	ds	1
   879  0068                     ?___fltol:
   880  0068                     ___fltol@f1:	
   881                           ; 4 bytes @ 0x48
   882                           
   883                           
   884                           ; 4 bytes @ 0x48
   885  0068                     	ds	4
   886  006C                     ___fltol@sign1:
   887                           
   888                           ; 1 bytes @ 0x4C
   889  006C                     	ds	1
   890  006D                     ___fltol@exp1:
   891                           
   892                           ; 1 bytes @ 0x4D
   893  006D                     	ds	1
   894                           
   895                           	psect	maintext
   896  0DA9                     __pmaintext:	
   897 ;;
   898 ;;Main: autosize = 0, tempsize = 5, incstack = 0, save=0
   899 ;;
   900 ;; *************** function _main *****************
   901 ;; Defined at:
   902 ;;		line 72 in file "main01.c"
   903 ;; Parameters:    Size  Location     Type
   904 ;;		None
   905 ;; Auto vars:     Size  Location     Type
   906 ;;		None
   907 ;; Return value:  Size  Location     Type
   908 ;;                  1    wreg      void 
   909 ;; Registers used:
   910 ;;		wreg, fsr0l, fsr0h, status,2, status,0, btemp+1, pclath, cstack
   911 ;; Tracked objects:
   912 ;;		On entry : B00/0
   913 ;;		On exit  : 0/0
   914 ;;		Unchanged: 0/0
   915 ;; Data sizes:     COMMON   BANK0   BANK1   BANK3   BANK2
   916 ;;      Params:         0       0       0       0       0
   917 ;;      Locals:         0       0       0       0       0
   918 ;;      Temps:          0       0       5       0       0
   919 ;;      Totals:         0       0       5       0       0
   920 ;;Total ram usage:        5 bytes
   921 ;; Hardware stack levels required when called:    3
   922 ;; This function calls:
   923 ;;		_I2C_Master_Read
   924 ;;		_I2C_Master_Start
   925 ;;		_I2C_Master_Stop
   926 ;;		_I2C_Master_Write
   927 ;;		_Lcd_Clear
   928 ;;		_Lcd_Init
   929 ;;		_Lcd_Set_Cursor
   930 ;;		_Lcd_Write_Char
   931 ;;		_Lcd_Write_String
   932 ;;		___fladd
   933 ;;		___fldiv
   934 ;;		___flmul
   935 ;;		___fltol
   936 ;;		___xxtofl
   937 ;;		_division
   938 ;;		_setup
   939 ;; This function is called by:
   940 ;;		Startup code after reset
   941 ;; This function uses a non-reentrant model
   942 ;;
   943                           
   944                           
   945                           ;psect for function _main
   946  0DA9                     _main:
   947  0DA9                     l2566:	
   948                           ;incstack = 0
   949                           ; Regs used in _main: [wreg-fsr0h+status,2+status,0+btemp+1+pclath+cstack]
   950                           
   951                           
   952                           ;main01.c: 73:         Lcd_Set_Cursor(2,9);
   953  0DA9  120A  158A  212A  120A  158A  	fcall	_setup
   954  0DAE                     l2568:
   955                           
   956                           ;main01.c: 74:         Lcd_Write_Char(unidades);
   957  0DAE  1683               	bsf	3,5	;RP0=1, select bank1
   958  0DAF  1303               	bcf	3,6	;RP1=0, select bank1
   959  0DB0  0188               	clrf	8	;volatile
   960  0DB1                     l2570:
   961                           
   962                           ;main01.c: 75: 
   963  0DB1  120A  158A  22BD  120A  158A  	fcall	_Lcd_Init
   964  0DB6                     l2572:
   965                           
   966                           ;main01.c: 76:         Lcd_Set_Cursor(2,13);
   967  0DB6  120A  158A  20E1  120A  158A  	fcall	_Lcd_Clear
   968  0DBB                     l2574:
   969                           
   970                           ;main01.c: 77:         division(temp);
   971  0DBB  01F4               	clrf	Lcd_Set_Cursor@b
   972  0DBC  0AF4               	incf	Lcd_Set_Cursor@b,f
   973  0DBD  3001               	movlw	1
   974  0DBE  120A  158A  2212  120A  158A  	fcall	_Lcd_Set_Cursor
   975  0DC3                     l2576:
   976                           
   977                           ;main01.c: 78:         Lcd_Write_Char(centenas);
   978  0DC3  3001               	movlw	(low ((STR_1-__stringbase)| (0+32768)))& (0+255)
   979  0DC4  120A  118A  2003  120A  158A  	fcall	_Lcd_Write_String
   980  0DC9                     l2578:
   981                           
   982                           ;main01.c: 79:         Lcd_Set_Cursor(2,14);
   983  0DC9  3008               	movlw	8
   984  0DCA  1683               	bsf	3,5	;RP0=1, select bank1
   985  0DCB  1303               	bcf	3,6	;RP1=0, select bank1
   986  0DCC  00A5               	movwf	??_main^(0+128)
   987  0DCD  0825               	movf	??_main^(0+128),w
   988  0DCE  00F4               	movwf	Lcd_Set_Cursor@b
   989  0DCF  3001               	movlw	1
   990  0DD0  120A  158A  2212  120A  158A  	fcall	_Lcd_Set_Cursor
   991  0DD5                     l2580:
   992                           
   993                           ;main01.c: 80:         Lcd_Write_Char(decenas);
   994  0DD5  3005               	movlw	(low ((STR_2-__stringbase)| (0+32768)))& (0+255)
   995  0DD6  120A  118A  2003  120A  158A  	fcall	_Lcd_Write_String
   996  0DDB                     l2582:
   997                           
   998                           ;main01.c: 81:         Lcd_Set_Cursor(2,15);
   999  0DDB  300E               	movlw	14
  1000  0DDC  1683               	bsf	3,5	;RP0=1, select bank1
  1001  0DDD  1303               	bcf	3,6	;RP1=0, select bank1
  1002  0DDE  00A5               	movwf	??_main^(0+128)
  1003  0DDF  0825               	movf	??_main^(0+128),w
  1004  0DE0  00F4               	movwf	Lcd_Set_Cursor@b
  1005  0DE1  3001               	movlw	1
  1006  0DE2  120A  158A  2212  120A  158A  	fcall	_Lcd_Set_Cursor
  1007  0DE7                     l2584:
  1008                           
  1009                           ;main01.c: 82:         Lcd_Write_Char(unidades);
  1010  0DE7  3009               	movlw	(low ((STR_3-__stringbase)| (0+32768)))& (0+255)
  1011  0DE8  120A  118A  2003  120A  158A  	fcall	_Lcd_Write_String
  1012  0DED                     l2586:
  1013                           
  1014                           ;main01.c: 84:         Lcd_Write_Char(39);;main01.c: 87:     return;
  1015  0DED  120A  158A  20B8  120A  158A  	fcall	_I2C_Master_Start
  1016  0DF2                     l2588:
  1017                           
  1018                           ;main01.c: 88: }
  1019  0DF2  3051               	movlw	81
  1020  0DF3  00F0               	movwf	I2C_Master_Write@d
  1021  0DF4  3000               	movlw	0
  1022  0DF5  00F1               	movwf	I2C_Master_Write@d+1
  1023  0DF6  120A  158A  20CA  120A  158A  	fcall	_I2C_Master_Write
  1024  0DFB                     l2590:
  1025                           
  1026                           ;main01.c: 89: 
  1027  0DFB  3000               	movlw	0
  1028  0DFC  00F0               	movwf	I2C_Master_Read@a
  1029  0DFD  00F1               	movwf	I2C_Master_Read@a+1
  1030  0DFE  120A  158A  2175  120A  158A  	fcall	_I2C_Master_Read
  1031  0E03  0870               	movf	?_I2C_Master_Read,w
  1032  0E04  1683               	bsf	3,5	;RP0=1, select bank1
  1033  0E05  1303               	bcf	3,6	;RP1=0, select bank1
  1034  0E06  00A5               	movwf	??_main^(0+128)
  1035  0E07  0825               	movf	??_main^(0+128),w
  1036  0E08  00AE               	movwf	_sensor1^(0+128)
  1037  0E09                     l2592:
  1038                           
  1039                           ;main01.c: 90: 
  1040  0E09  120A  158A  20C1  120A  158A  	fcall	_I2C_Master_Stop
  1041  0E0E                     l2594:
  1042                           
  1043                           ;main01.c: 91: 
  1044  0E0E  3002               	movlw	2
  1045  0E0F  1683               	bsf	3,5	;RP0=1, select bank1
  1046  0E10  1303               	bcf	3,6	;RP1=0, select bank1
  1047  0E11  00A7               	movwf	(??_main^(0+128)+2)
  1048  0E12  3004               	movlw	4
  1049  0E13  00A6               	movwf	(??_main^(0+128)+1)
  1050  0E14  30B9               	movlw	185
  1051  0E15  00A5               	movwf	??_main^(0+128)
  1052  0E16                     u3597:
  1053  0E16  0BA5               	decfsz	??_main^(0+128),f
  1054  0E17  2E16               	goto	u3597
  1055  0E18  0BA6               	decfsz	(??_main^(0+128)+1),f
  1056  0E19  2E16               	goto	u3597
  1057  0E1A  0BA7               	decfsz	(??_main^(0+128)+2),f
  1058  0E1B  2E16               	goto	u3597
  1059  0E1C  2E1D               	nop2
  1060  0E1D                     l2596:
  1061                           
  1062                           ;main01.c: 94:     centenas = (dividendo)/100;
  1063  0E1D  120A  158A  20B8  120A  158A  	fcall	_I2C_Master_Start
  1064  0E22                     l2598:
  1065                           
  1066                           ;main01.c: 95:     residuo = dividendo%100;
  1067  0E22  3080               	movlw	128
  1068  0E23  00F0               	movwf	I2C_Master_Write@d
  1069  0E24  3000               	movlw	0
  1070  0E25  00F1               	movwf	I2C_Master_Write@d+1
  1071  0E26  120A  158A  20CA  120A  158A  	fcall	_I2C_Master_Write
  1072  0E2B                     l2600:
  1073                           
  1074                           ;main01.c: 96:     decenas = residuo/10;
  1075  0E2B  30F3               	movlw	243
  1076  0E2C  00F0               	movwf	I2C_Master_Write@d
  1077  0E2D  3000               	movlw	0
  1078  0E2E  00F1               	movwf	I2C_Master_Write@d+1
  1079  0E2F  120A  158A  20CA  120A  158A  	fcall	_I2C_Master_Write
  1080  0E34                     l2602:
  1081                           
  1082                           ;main01.c: 97:     unidades = residuo%10;
  1083  0E34  120A  158A  20C1  120A  158A  	fcall	_I2C_Master_Stop
  1084  0E39                     l2604:
  1085                           
  1086                           ;main01.c: 98: 
  1087  0E39  3002               	movlw	2
  1088  0E3A  1683               	bsf	3,5	;RP0=1, select bank1
  1089  0E3B  1303               	bcf	3,6	;RP1=0, select bank1
  1090  0E3C  00A7               	movwf	(??_main^(0+128)+2)
  1091  0E3D  3004               	movlw	4
  1092  0E3E  00A6               	movwf	(??_main^(0+128)+1)
  1093  0E3F  30B9               	movlw	185
  1094  0E40  00A5               	movwf	??_main^(0+128)
  1095  0E41                     u3607:
  1096  0E41  0BA5               	decfsz	??_main^(0+128),f
  1097  0E42  2E41               	goto	u3607
  1098  0E43  0BA6               	decfsz	(??_main^(0+128)+1),f
  1099  0E44  2E41               	goto	u3607
  1100  0E45  0BA7               	decfsz	(??_main^(0+128)+2),f
  1101  0E46  2E41               	goto	u3607
  1102  0E47  2E48               	nop2
  1103  0E48                     l2606:
  1104                           
  1105                           ;main01.c: 100:     decenas += 48;
  1106  0E48  120A  158A  20B8  120A  158A  	fcall	_I2C_Master_Start
  1107  0E4D                     l2608:
  1108                           
  1109                           ;main01.c: 101:     unidades += 48;
  1110  0E4D  3081               	movlw	129
  1111  0E4E  00F0               	movwf	I2C_Master_Write@d
  1112  0E4F  3000               	movlw	0
  1113  0E50  00F1               	movwf	I2C_Master_Write@d+1
  1114  0E51  120A  158A  20CA  120A  158A  	fcall	_I2C_Master_Write
  1115  0E56                     l2610:
  1116                           
  1117                           ;main01.c: 102:     return;
  1118  0E56  3000               	movlw	0
  1119  0E57  00F0               	movwf	I2C_Master_Read@a
  1120  0E58  00F1               	movwf	I2C_Master_Read@a+1
  1121  0E59  120A  158A  2175  120A  158A  	fcall	_I2C_Master_Read
  1122  0E5E                     l2612:
  1123  0E5E  1683               	bsf	3,5	;RP0=1, select bank1
  1124  0E5F  1303               	bcf	3,6	;RP1=0, select bank1
  1125  0E60  01B1               	clrf	_temp^(0+128)
  1126  0E61                     l2614:
  1127                           
  1128                           ;main01.c: 103: }
  1129  0E61  3000               	movlw	0
  1130  0E62  00F0               	movwf	I2C_Master_Read@a
  1131  0E63  00F1               	movwf	I2C_Master_Read@a+1
  1132  0E64  120A  158A  2175  120A  158A  	fcall	_I2C_Master_Read
  1133  0E69  0870               	movf	?_I2C_Master_Read,w
  1134  0E6A  1683               	bsf	3,5	;RP0=1, select bank1
  1135  0E6B  1303               	bcf	3,6	;RP1=0, select bank1
  1136  0E6C  00A5               	movwf	??_main^(0+128)
  1137  0E6D  0825               	movf	??_main^(0+128),w
  1138  0E6E  07B1               	addwf	_temp^(0+128),f
  1139  0E6F                     l2616:
  1140                           
  1141                           ;main01.c: 104: 
  1142  0E6F  3000               	movlw	0
  1143  0E70  00F0               	movwf	I2C_Master_Read@a
  1144  0E71  00F1               	movwf	I2C_Master_Read@a+1
  1145  0E72  120A  158A  2175  120A  158A  	fcall	_I2C_Master_Read
  1146  0E77  0870               	movf	?_I2C_Master_Read,w
  1147  0E78  1683               	bsf	3,5	;RP0=1, select bank1
  1148  0E79  1303               	bcf	3,6	;RP1=0, select bank1
  1149  0E7A  00A5               	movwf	??_main^(0+128)
  1150  0E7B  0825               	movf	??_main^(0+128),w
  1151  0E7C  00B1               	movwf	_temp^(0+128)
  1152  0E7D                     l2618:
  1153                           
  1154                           ;main01.c: 105: 
  1155  0E7D  120A  158A  20C1  120A  158A  	fcall	_I2C_Master_Stop
  1156  0E82                     l2620:
  1157                           
  1158                           ;main01.c: 106: 
  1159  0E82  3002               	movlw	2
  1160  0E83  1683               	bsf	3,5	;RP0=1, select bank1
  1161  0E84  1303               	bcf	3,6	;RP1=0, select bank1
  1162  0E85  00A7               	movwf	(??_main^(0+128)+2)
  1163  0E86  3004               	movlw	4
  1164  0E87  00A6               	movwf	(??_main^(0+128)+1)
  1165  0E88  30B9               	movlw	185
  1166  0E89  00A5               	movwf	??_main^(0+128)
  1167  0E8A                     u3617:
  1168  0E8A  0BA5               	decfsz	??_main^(0+128),f
  1169  0E8B  2E8A               	goto	u3617
  1170  0E8C  0BA6               	decfsz	(??_main^(0+128)+1),f
  1171  0E8D  2E8A               	goto	u3617
  1172  0E8E  0BA7               	decfsz	(??_main^(0+128)+2),f
  1173  0E8F  2E8A               	goto	u3617
  1174  0E90  2E91               	nop2
  1175  0E91                     l2622:
  1176                           
  1177                           ;main01.c: 109: void setup(void){
  1178  0E91  120A  158A  20B8  120A  158A  	fcall	_I2C_Master_Start
  1179  0E96                     l2624:
  1180                           
  1181                           ;main01.c: 110: 
  1182  0E96  3061               	movlw	97
  1183  0E97  00F0               	movwf	I2C_Master_Write@d
  1184  0E98  3000               	movlw	0
  1185  0E99  00F1               	movwf	I2C_Master_Write@d+1
  1186  0E9A  120A  158A  20CA  120A  158A  	fcall	_I2C_Master_Write
  1187  0E9F                     l2626:
  1188                           
  1189                           ;main01.c: 111:     TRISB = 0x00;
  1190  0E9F  3000               	movlw	0
  1191  0EA0  00F0               	movwf	I2C_Master_Read@a
  1192  0EA1  00F1               	movwf	I2C_Master_Read@a+1
  1193  0EA2  120A  158A  2175  120A  158A  	fcall	_I2C_Master_Read
  1194  0EA7  0870               	movf	?_I2C_Master_Read,w
  1195  0EA8  1683               	bsf	3,5	;RP0=1, select bank1
  1196  0EA9  1303               	bcf	3,6	;RP1=0, select bank1
  1197  0EAA  00A5               	movwf	??_main^(0+128)
  1198  0EAB  0825               	movf	??_main^(0+128),w
  1199  0EAC  00AD               	movwf	_sensor2^(0+128)
  1200  0EAD                     l2628:
  1201                           
  1202                           ;main01.c: 112:     ANSELH = 0x00;
  1203  0EAD  120A  158A  20C1  120A  158A  	fcall	_I2C_Master_Stop
  1204  0EB2                     l2630:
  1205                           
  1206                           ;main01.c: 113:     TRISA = 0x00;
  1207  0EB2  3002               	movlw	2
  1208  0EB3  1683               	bsf	3,5	;RP0=1, select bank1
  1209  0EB4  1303               	bcf	3,6	;RP1=0, select bank1
  1210  0EB5  00A7               	movwf	(??_main^(0+128)+2)
  1211  0EB6  3004               	movlw	4
  1212  0EB7  00A6               	movwf	(??_main^(0+128)+1)
  1213  0EB8  30B9               	movlw	185
  1214  0EB9  00A5               	movwf	??_main^(0+128)
  1215  0EBA                     u3627:
  1216  0EBA  0BA5               	decfsz	??_main^(0+128),f
  1217  0EBB  2EBA               	goto	u3627
  1218  0EBC  0BA6               	decfsz	(??_main^(0+128)+1),f
  1219  0EBD  2EBA               	goto	u3627
  1220  0EBE  0BA7               	decfsz	(??_main^(0+128)+2),f
  1221  0EBF  2EBA               	goto	u3627
  1222  0EC0  2EC1               	nop2
  1223  0EC1                     l2632:
  1224                           
  1225                           ;main01.c: 116: 
  1226  0EC1  30FC               	movlw	252
  1227  0EC2  1683               	bsf	3,5	;RP0=1, select bank1
  1228  0EC3  1303               	bcf	3,6	;RP1=0, select bank1
  1229  0EC4  00A5               	movwf	??_main^(0+128)
  1230  0EC5  0825               	movf	??_main^(0+128),w
  1231  0EC6  05B1               	andwf	_temp^(0+128),f
  1232  0EC7                     l2634:
  1233                           
  1234                           ;main01.c: 117:     OSCCONbits.IRCF0 = 0;
  1235  0EC7  0831               	movf	_temp^(0+128),w
  1236  0EC8  00A5               	movwf	??_main^(0+128)
  1237  0EC9  01A6               	clrf	(??_main^(0+128)+1)
  1238  0ECA  01A7               	clrf	(??_main^(0+128)+2)
  1239  0ECB  01A8               	clrf	(??_main^(0+128)+3)
  1240  0ECC  0828               	movf	(??_main+3)^(0+128),w
  1241  0ECD  00F3               	movwf	___xxtofl@val+3
  1242  0ECE  0827               	movf	(??_main+2)^(0+128),w
  1243  0ECF  00F2               	movwf	___xxtofl@val+2
  1244  0ED0  0826               	movf	(??_main+1)^(0+128),w
  1245  0ED1  00F1               	movwf	___xxtofl@val+1
  1246  0ED2  0825               	movf	??_main^(0+128),w
  1247  0ED3  00F0               	movwf	___xxtofl@val
  1248  0ED4  3001               	movlw	1
  1249  0ED5  120A  158A  24EF  120A  158A  	fcall	___xxtofl
  1250  0EDA  0873               	movf	?___xxtofl+3,w
  1251  0EDB  1283               	bcf	3,5	;RP0=0, select bank0
  1252  0EDC  1303               	bcf	3,6	;RP1=0, select bank0
  1253  0EDD  00A7               	movwf	___flmul@a+3
  1254  0EDE  0872               	movf	?___xxtofl+2,w
  1255  0EDF  00A6               	movwf	___flmul@a+2
  1256  0EE0  0871               	movf	?___xxtofl+1,w
  1257  0EE1  00A5               	movwf	___flmul@a+1
  1258  0EE2  0870               	movf	?___xxtofl,w
  1259  0EE3  00A4               	movwf	___flmul@a
  1260  0EE4  3043               	movlw	67
  1261  0EE5  00A3               	movwf	___flmul@b+3
  1262  0EE6  302F               	movlw	47
  1263  0EE7  00A2               	movwf	___flmul@b+2
  1264  0EE8  30B8               	movlw	184
  1265  0EE9  00A1               	movwf	___flmul@b+1
  1266  0EEA  3052               	movlw	82
  1267  0EEB  00A0               	movwf	___flmul@b
  1268  0EEC  120A  118A  248D  120A  158A  	fcall	___flmul
  1269  0EF1  1283               	bcf	3,5	;RP0=0, select bank0
  1270  0EF2  1303               	bcf	3,6	;RP1=0, select bank0
  1271  0EF3  0823               	movf	?___flmul+3,w
  1272  0EF4  00C1               	movwf	___fldiv@b+3
  1273  0EF5  0822               	movf	?___flmul+2,w
  1274  0EF6  00C0               	movwf	___fldiv@b+2
  1275  0EF7  0821               	movf	?___flmul+1,w
  1276  0EF8  00BF               	movwf	___fldiv@b+1
  1277  0EF9  0820               	movf	?___flmul,w
  1278  0EFA  00BE               	movwf	___fldiv@b
  1279  0EFB  3047               	movlw	71
  1280  0EFC  00BD               	movwf	___fldiv@a+3
  1281  0EFD  3080               	movlw	128
  1282  0EFE  00BC               	movwf	___fldiv@a+2
  1283  0EFF  3000               	movlw	0
  1284  0F00  00BB               	movwf	___fldiv@a+1
  1285  0F01  3000               	movlw	0
  1286  0F02  00BA               	movwf	___fldiv@a
  1287  0F03  120A  118A  2028  120A  158A  	fcall	___fldiv
  1288  0F08  1283               	bcf	3,5	;RP0=0, select bank0
  1289  0F09  1303               	bcf	3,6	;RP1=0, select bank0
  1290  0F0A  083D               	movf	?___fldiv+3,w
  1291  0F0B  00DB               	movwf	___fladd@a+3
  1292  0F0C  083C               	movf	?___fldiv+2,w
  1293  0F0D  00DA               	movwf	___fladd@a+2
  1294  0F0E  083B               	movf	?___fldiv+1,w
  1295  0F0F  00D9               	movwf	___fladd@a+1
  1296  0F10  083A               	movf	?___fldiv,w
  1297  0F11  00D8               	movwf	___fladd@a
  1298  0F12  30C2               	movlw	194
  1299  0F13  00D7               	movwf	___fladd@b+3
  1300  0F14  303B               	movlw	59
  1301  0F15  00D6               	movwf	___fladd@b+2
  1302  0F16  3066               	movlw	102
  1303  0F17  00D5               	movwf	___fladd@b+1
  1304  0F18  3066               	movlw	102
  1305  0F19  00D4               	movwf	___fladd@b
  1306  0F1A  120A  118A  2205  120A  158A  	fcall	___fladd
  1307  0F1F  1283               	bcf	3,5	;RP0=0, select bank0
  1308  0F20  1303               	bcf	3,6	;RP1=0, select bank0
  1309  0F21  0857               	movf	?___fladd+3,w
  1310  0F22  00EB               	movwf	___fltol@f1+3
  1311  0F23  0856               	movf	?___fladd+2,w
  1312  0F24  00EA               	movwf	___fltol@f1+2
  1313  0F25  0855               	movf	?___fladd+1,w
  1314  0F26  00E9               	movwf	___fltol@f1+1
  1315  0F27  0854               	movf	?___fladd,w
  1316  0F28  00E8               	movwf	___fltol@f1
  1317  0F29  120A  158A  2453  120A  158A  	fcall	___fltol
  1318  0F2E  1283               	bcf	3,5	;RP0=0, select bank0
  1319  0F2F  1303               	bcf	3,6	;RP1=0, select bank0
  1320  0F30  0868               	movf	?___fltol,w
  1321  0F31  1683               	bsf	3,5	;RP0=1, select bank1
  1322  0F32  1303               	bcf	3,6	;RP1=0, select bank1
  1323  0F33  00A9               	movwf	(??_main+4)^(0+128)
  1324  0F34  0829               	movf	(??_main+4)^(0+128),w
  1325  0F35  00AF               	movwf	_temp1^(0+128)
  1326  0F36                     l2636:
  1327                           
  1328                           ;main01.c: 120:     OSCCONbits.SCS = 1;
  1329  0F36  01F4               	clrf	Lcd_Set_Cursor@b
  1330  0F37  0AF4               	incf	Lcd_Set_Cursor@b,f
  1331  0F38  3002               	movlw	2
  1332  0F39  120A  158A  2212  120A  158A  	fcall	_Lcd_Set_Cursor
  1333  0F3E                     l2638:
  1334                           
  1335                           ;main01.c: 121: 
  1336  0F3E  1683               	bsf	3,5	;RP0=1, select bank1
  1337  0F3F  1303               	bcf	3,6	;RP1=0, select bank1
  1338  0F40  082E               	movf	_sensor1^(0+128),w
  1339  0F41  120A  158A  23E7  120A  158A  	fcall	_division
  1340  0F46                     l2640:
  1341                           
  1342                           ;main01.c: 122: 
  1343  0F46  1683               	bsf	3,5	;RP0=1, select bank1
  1344  0F47  1303               	bcf	3,6	;RP1=0, select bank1
  1345  0F48  082B               	movf	_centenas^(0+128),w
  1346  0F49  120A  158A  21A3  120A  158A  	fcall	_Lcd_Write_Char
  1347  0F4E                     l2642:
  1348                           
  1349                           ;main01.c: 123: 
  1350  0F4E  3002               	movlw	2
  1351  0F4F  1683               	bsf	3,5	;RP0=1, select bank1
  1352  0F50  1303               	bcf	3,6	;RP1=0, select bank1
  1353  0F51  00A5               	movwf	??_main^(0+128)
  1354  0F52  0825               	movf	??_main^(0+128),w
  1355  0F53  00F4               	movwf	Lcd_Set_Cursor@b
  1356  0F54  3002               	movlw	2
  1357  0F55  120A  158A  2212  120A  158A  	fcall	_Lcd_Set_Cursor
  1358  0F5A                     l2644:
  1359                           
  1360                           ;main01.c: 124:     PORTA = 0x00;
  1361  0F5A  1283               	bcf	3,5	;RP0=0, select bank0
  1362  0F5B  1303               	bcf	3,6	;RP1=0, select bank0
  1363  0F5C  086F               	movf	_decenas,w
  1364  0F5D  120A  158A  21A3  120A  158A  	fcall	_Lcd_Write_Char
  1365  0F62                     l2646:
  1366                           
  1367                           ;main01.c: 125:     PORTB = 0X00;
  1368  0F62  3003               	movlw	3
  1369  0F63  1683               	bsf	3,5	;RP0=1, select bank1
  1370  0F64  1303               	bcf	3,6	;RP1=0, select bank1
  1371  0F65  00A5               	movwf	??_main^(0+128)
  1372  0F66  0825               	movf	??_main^(0+128),w
  1373  0F67  00F4               	movwf	Lcd_Set_Cursor@b
  1374  0F68  3002               	movlw	2
  1375  0F69  120A  158A  2212  120A  158A  	fcall	_Lcd_Set_Cursor
  1376  0F6E                     l2648:
  1377                           
  1378                           ;main01.c: 126:     PORTC = 0X00;
  1379  0F6E  1283               	bcf	3,5	;RP0=0, select bank0
  1380  0F6F  1303               	bcf	3,6	;RP1=0, select bank0
  1381  0F70  086E               	movf	_unidades,w
  1382  0F71  120A  158A  21A3  120A  158A  	fcall	_Lcd_Write_Char
  1383  0F76                     l2650:
  1384                           
  1385                           ;main01.c: 128:     PORTE = 0X00;
  1386  0F76  3008               	movlw	8
  1387  0F77  1683               	bsf	3,5	;RP0=1, select bank1
  1388  0F78  1303               	bcf	3,6	;RP1=0, select bank1
  1389  0F79  00A5               	movwf	??_main^(0+128)
  1390  0F7A  0825               	movf	??_main^(0+128),w
  1391  0F7B  00F4               	movwf	Lcd_Set_Cursor@b
  1392  0F7C  3002               	movlw	2
  1393  0F7D  120A  158A  2212  120A  158A  	fcall	_Lcd_Set_Cursor
  1394  0F82                     l2652:
  1395                           
  1396                           ;main01.c: 129: 
  1397  0F82  1683               	bsf	3,5	;RP0=1, select bank1
  1398  0F83  1303               	bcf	3,6	;RP1=0, select bank1
  1399  0F84  082D               	movf	_sensor2^(0+128),w
  1400  0F85  120A  158A  23E7  120A  158A  	fcall	_division
  1401  0F8A                     l2654:
  1402                           
  1403                           ;main01.c: 130: 
  1404  0F8A  1283               	bcf	3,5	;RP0=0, select bank0
  1405  0F8B  1303               	bcf	3,6	;RP1=0, select bank0
  1406  0F8C  086F               	movf	_decenas,w
  1407  0F8D  120A  158A  21A3  120A  158A  	fcall	_Lcd_Write_Char
  1408  0F92                     l2656:
  1409                           
  1410                           ;main01.c: 131:     I2C_Master_Init(100000);
  1411  0F92  3009               	movlw	9
  1412  0F93  1683               	bsf	3,5	;RP0=1, select bank1
  1413  0F94  1303               	bcf	3,6	;RP1=0, select bank1
  1414  0F95  00A5               	movwf	??_main^(0+128)
  1415  0F96  0825               	movf	??_main^(0+128),w
  1416  0F97  00F4               	movwf	Lcd_Set_Cursor@b
  1417  0F98  3002               	movlw	2
  1418  0F99  120A  158A  2212  120A  158A  	fcall	_Lcd_Set_Cursor
  1419  0F9E                     l2658:
  1420                           
  1421                           ;main01.c: 132: 
  1422  0F9E  1283               	bcf	3,5	;RP0=0, select bank0
  1423  0F9F  1303               	bcf	3,6	;RP1=0, select bank0
  1424  0FA0  086E               	movf	_unidades,w
  1425  0FA1  120A  158A  21A3  120A  158A  	fcall	_Lcd_Write_Char
  1426  0FA6                     l2660:
  1427                           
  1428                           ;main01.c: 134:     return;
  1429  0FA6  300D               	movlw	13
  1430  0FA7  1683               	bsf	3,5	;RP0=1, select bank1
  1431  0FA8  1303               	bcf	3,6	;RP1=0, select bank1
  1432  0FA9  00A5               	movwf	??_main^(0+128)
  1433  0FAA  0825               	movf	??_main^(0+128),w
  1434  0FAB  00F4               	movwf	Lcd_Set_Cursor@b
  1435  0FAC  3002               	movlw	2
  1436  0FAD  120A  158A  2212  120A  158A  	fcall	_Lcd_Set_Cursor
  1437  0FB2                     l2662:
  1438                           
  1439                           ;main01.c: 135: }
  1440  0FB2  1683               	bsf	3,5	;RP0=1, select bank1
  1441  0FB3  1303               	bcf	3,6	;RP1=0, select bank1
  1442  0FB4  0831               	movf	_temp^(0+128),w
  1443  0FB5  120A  158A  23E7  120A  158A  	fcall	_division
  1444  0FBA                     l2664:
  1445  0FBA  1683               	bsf	3,5	;RP0=1, select bank1
  1446  0FBB  1303               	bcf	3,6	;RP1=0, select bank1
  1447  0FBC  082B               	movf	_centenas^(0+128),w
  1448  0FBD  120A  158A  21A3  120A  158A  	fcall	_Lcd_Write_Char
  1449  0FC2                     l2666:
  1450  0FC2  300E               	movlw	14
  1451  0FC3  1683               	bsf	3,5	;RP0=1, select bank1
  1452  0FC4  1303               	bcf	3,6	;RP1=0, select bank1
  1453  0FC5  00A5               	movwf	??_main^(0+128)
  1454  0FC6  0825               	movf	??_main^(0+128),w
  1455  0FC7  00F4               	movwf	Lcd_Set_Cursor@b
  1456  0FC8  3002               	movlw	2
  1457  0FC9  120A  158A  2212  120A  158A  	fcall	_Lcd_Set_Cursor
  1458  0FCE                     l2668:
  1459  0FCE  1283               	bcf	3,5	;RP0=0, select bank0
  1460  0FCF  1303               	bcf	3,6	;RP1=0, select bank0
  1461  0FD0  086F               	movf	_decenas,w
  1462  0FD1  120A  158A  21A3  120A  158A  	fcall	_Lcd_Write_Char
  1463  0FD6                     l2670:
  1464  0FD6  300F               	movlw	15
  1465  0FD7  1683               	bsf	3,5	;RP0=1, select bank1
  1466  0FD8  1303               	bcf	3,6	;RP1=0, select bank1
  1467  0FD9  00A5               	movwf	??_main^(0+128)
  1468  0FDA  0825               	movf	??_main^(0+128),w
  1469  0FDB  00F4               	movwf	Lcd_Set_Cursor@b
  1470  0FDC  3002               	movlw	2
  1471  0FDD  120A  158A  2212  120A  158A  	fcall	_Lcd_Set_Cursor
  1472  0FE2                     l2672:
  1473  0FE2  1283               	bcf	3,5	;RP0=0, select bank0
  1474  0FE3  1303               	bcf	3,6	;RP1=0, select bank0
  1475  0FE4  086E               	movf	_unidades,w
  1476  0FE5  120A  158A  21A3  120A  158A  	fcall	_Lcd_Write_Char
  1477  0FEA                     l2674:
  1478  0FEA  3010               	movlw	16
  1479  0FEB  1683               	bsf	3,5	;RP0=1, select bank1
  1480  0FEC  1303               	bcf	3,6	;RP1=0, select bank1
  1481  0FED  00A5               	movwf	??_main^(0+128)
  1482  0FEE  0825               	movf	??_main^(0+128),w
  1483  0FEF  00F4               	movwf	Lcd_Set_Cursor@b
  1484  0FF0  3002               	movlw	2
  1485  0FF1  120A  158A  2212  120A  158A  	fcall	_Lcd_Set_Cursor
  1486  0FF6                     l2676:
  1487  0FF6  3027               	movlw	39
  1488  0FF7  120A  158A  21A3  120A  158A  	fcall	_Lcd_Write_Char
  1489  0FFC  2DED               	goto	l2586
  1490  0FFD  120A  118A  2800   	ljmp	start
  1491  1000                     __end_of_main:
  1492                           
  1493                           	psect	text1
  1494  092A                     __ptext1:	
  1495 ;; *************** function _setup *****************
  1496 ;; Defined at:
  1497 ;;		line 167 in file "main01.c"
  1498 ;; Parameters:    Size  Location     Type
  1499 ;;		None
  1500 ;; Auto vars:     Size  Location     Type
  1501 ;;		None
  1502 ;; Return value:  Size  Location     Type
  1503 ;;                  1    wreg      void 
  1504 ;; Registers used:
  1505 ;;		wreg, status,2, status,0, pclath, cstack
  1506 ;; Tracked objects:
  1507 ;;		On entry : 0/0
  1508 ;;		On exit  : 0/0
  1509 ;;		Unchanged: 0/0
  1510 ;; Data sizes:     COMMON   BANK0   BANK1   BANK3   BANK2
  1511 ;;      Params:         0       0       0       0       0
  1512 ;;      Locals:         0       0       0       0       0
  1513 ;;      Temps:          0       0       0       0       0
  1514 ;;      Totals:         0       0       0       0       0
  1515 ;;Total ram usage:        0 bytes
  1516 ;; Hardware stack levels used:    1
  1517 ;; Hardware stack levels required when called:    2
  1518 ;; This function calls:
  1519 ;;		_I2C_Master_Init
  1520 ;; This function is called by:
  1521 ;;		_main
  1522 ;; This function uses a non-reentrant model
  1523 ;;
  1524                           
  1525                           
  1526                           ;psect for function _setup
  1527  092A                     _setup:
  1528  092A                     l1918:	
  1529                           ;incstack = 0
  1530                           ; Regs used in _setup: [wreg+status,2+status,0+pclath+cstack]
  1531                           
  1532  092A  1683               	bsf	3,5	;RP0=1, select bank1
  1533  092B  1303               	bcf	3,6	;RP1=0, select bank1
  1534  092C  0186               	clrf	6	;volatile
  1535  092D  1683               	bsf	3,5	;RP0=1, select bank3
  1536  092E  1703               	bsf	3,6	;RP1=1, select bank3
  1537  092F  0189               	clrf	9	;volatile
  1538  0930  1683               	bsf	3,5	;RP0=1, select bank1
  1539  0931  1303               	bcf	3,6	;RP1=0, select bank1
  1540  0932  0185               	clrf	5	;volatile
  1541  0933  0188               	clrf	8	;volatile
  1542  0934  0189               	clrf	9	;volatile
  1543  0935                     l1920:
  1544  0935  120F               	bcf	15,4	;volatile
  1545  0936                     l1922:
  1546  0936  168F               	bsf	15,5	;volatile
  1547  0937                     l1924:
  1548  0937  170F               	bsf	15,6	;volatile
  1549  0938                     l1926:
  1550  0938  140F               	bsf	15,0	;volatile
  1551  0939  1283               	bcf	3,5	;RP0=0, select bank0
  1552  093A  1303               	bcf	3,6	;RP1=0, select bank0
  1553  093B  0185               	clrf	5	;volatile
  1554  093C  0186               	clrf	6	;volatile
  1555  093D  0187               	clrf	7	;volatile
  1556  093E  0188               	clrf	8	;volatile
  1557  093F  0189               	clrf	9	;volatile
  1558  0940                     l1928:
  1559  0940  3000               	movlw	0
  1560  0941  00A3               	movwf	I2C_Master_Init@c+3
  1561  0942  3001               	movlw	1
  1562  0943  00A2               	movwf	I2C_Master_Init@c+2
  1563  0944  3086               	movlw	134
  1564  0945  00A1               	movwf	I2C_Master_Init@c+1
  1565  0946  30A0               	movlw	160
  1566  0947  00A0               	movwf	I2C_Master_Init@c
  1567  0948  120A  158A  21DA  120A  158A  	fcall	_I2C_Master_Init
  1568  094D                     l82:
  1569  094D  0008               	return
  1570  094E                     __end_of_setup:
  1571                           
  1572                           	psect	text2
  1573  09DA                     __ptext2:	
  1574 ;; *************** function _I2C_Master_Init *****************
  1575 ;; Defined at:
  1576 ;;		line 16 in file "I2C.c"
  1577 ;; Parameters:    Size  Location     Type
  1578 ;;  c               4    0[BANK0 ] const unsigned long 
  1579 ;; Auto vars:     Size  Location     Type
  1580 ;;		None
  1581 ;; Return value:  Size  Location     Type
  1582 ;;                  1    wreg      void 
  1583 ;; Registers used:
  1584 ;;		wreg, status,2, status,0, pclath, cstack
  1585 ;; Tracked objects:
  1586 ;;		On entry : 0/0
  1587 ;;		On exit  : 0/0
  1588 ;;		Unchanged: 0/0
  1589 ;; Data sizes:     COMMON   BANK0   BANK1   BANK3   BANK2
  1590 ;;      Params:         0       4       0       0       0
  1591 ;;      Locals:         0       0       0       0       0
  1592 ;;      Temps:          0       4       0       0       0
  1593 ;;      Totals:         0       8       0       0       0
  1594 ;;Total ram usage:        8 bytes
  1595 ;; Hardware stack levels used:    1
  1596 ;; Hardware stack levels required when called:    1
  1597 ;; This function calls:
  1598 ;;		___lldiv
  1599 ;; This function is called by:
  1600 ;;		_setup
  1601 ;; This function uses a non-reentrant model
  1602 ;;
  1603                           
  1604                           
  1605                           ;psect for function _I2C_Master_Init
  1606  09DA                     _I2C_Master_Init:
  1607  09DA                     l1796:	
  1608                           ;incstack = 0
  1609                           ; Regs used in _I2C_Master_Init: [wreg+status,2+status,0+pclath+cstack]
  1610                           
  1611                           
  1612                           ;I2C.c: 16: void I2C_Master_Init(const unsigned long c);I2C.c: 17: {;I2C.c: 18:     SSPC
      +                          ON = 0b00101000;
  1613  09DA  3028               	movlw	40
  1614  09DB  1283               	bcf	3,5	;RP0=0, select bank0
  1615  09DC  1303               	bcf	3,6	;RP1=0, select bank0
  1616  09DD  0094               	movwf	20	;volatile
  1617  09DE                     l1798:
  1618                           
  1619                           ;I2C.c: 19:     SSPCON2 = 0;
  1620  09DE  1683               	bsf	3,5	;RP0=1, select bank1
  1621  09DF  1303               	bcf	3,6	;RP1=0, select bank1
  1622  09E0  0191               	clrf	17	;volatile
  1623  09E1                     l1800:
  1624                           
  1625                           ;I2C.c: 20:     SSPADD = (4000000/(4*c))-1;
  1626  09E1  1283               	bcf	3,5	;RP0=0, select bank0
  1627  09E2  1303               	bcf	3,6	;RP1=0, select bank0
  1628  09E3  0820               	movf	I2C_Master_Init@c,w
  1629  09E4  00A4               	movwf	??_I2C_Master_Init
  1630  09E5  0821               	movf	I2C_Master_Init@c+1,w
  1631  09E6  00A5               	movwf	??_I2C_Master_Init+1
  1632  09E7  0822               	movf	I2C_Master_Init@c+2,w
  1633  09E8  00A6               	movwf	??_I2C_Master_Init+2
  1634  09E9  0823               	movf	I2C_Master_Init@c+3,w
  1635  09EA  00A7               	movwf	??_I2C_Master_Init+3
  1636  09EB  3002               	movlw	2
  1637  09EC                     u1925:
  1638  09EC  1003               	clrc
  1639  09ED  0DA4               	rlf	??_I2C_Master_Init,f
  1640  09EE  0DA5               	rlf	??_I2C_Master_Init+1,f
  1641  09EF  0DA6               	rlf	??_I2C_Master_Init+2,f
  1642  09F0  0DA7               	rlf	??_I2C_Master_Init+3,f
  1643  09F1                     u1920:
  1644  09F1  3EFF               	addlw	-1
  1645  09F2  1D03               	skipz
  1646  09F3  29EC               	goto	u1925
  1647  09F4  0827               	movf	??_I2C_Master_Init+3,w
  1648  09F5  00F3               	movwf	___lldiv@divisor+3
  1649  09F6  0826               	movf	??_I2C_Master_Init+2,w
  1650  09F7  00F2               	movwf	___lldiv@divisor+2
  1651  09F8  0825               	movf	??_I2C_Master_Init+1,w
  1652  09F9  00F1               	movwf	___lldiv@divisor+1
  1653  09FA  0824               	movf	??_I2C_Master_Init,w
  1654  09FB  00F0               	movwf	___lldiv@divisor
  1655  09FC  3000               	movlw	0
  1656  09FD  00F7               	movwf	___lldiv@dividend+3
  1657  09FE  303D               	movlw	61
  1658  09FF  00F6               	movwf	___lldiv@dividend+2
  1659  0A00  3009               	movlw	9
  1660  0A01  00F5               	movwf	___lldiv@dividend+1
  1661  0A02  3000               	movlw	0
  1662  0A03  00F4               	movwf	___lldiv@dividend
  1663  0A04  120A  158A  231A  120A  158A  	fcall	___lldiv
  1664  0A09  0870               	movf	?___lldiv,w
  1665  0A0A  3EFF               	addlw	255
  1666  0A0B  1683               	bsf	3,5	;RP0=1, select bank1
  1667  0A0C  1303               	bcf	3,6	;RP1=0, select bank1
  1668  0A0D  0093               	movwf	19	;volatile
  1669  0A0E                     l1802:
  1670                           
  1671                           ;I2C.c: 21:     SSPSTAT = 0;
  1672  0A0E  0194               	clrf	20	;volatile
  1673  0A0F                     l1804:
  1674                           
  1675                           ;I2C.c: 22:     TRISCbits.TRISC3 = 1;
  1676  0A0F  1587               	bsf	7,3	;volatile
  1677  0A10                     l1806:
  1678                           
  1679                           ;I2C.c: 23:     TRISCbits.TRISC4 = 1;
  1680  0A10  1607               	bsf	7,4	;volatile
  1681  0A11                     l111:
  1682  0A11  0008               	return
  1683  0A12                     __end_of_I2C_Master_Init:
  1684                           
  1685                           	psect	text3
  1686  0B1A                     __ptext3:	
  1687 ;; *************** function ___lldiv *****************
  1688 ;; Defined at:
  1689 ;;		line 5 in file "C:\Program Files\Microchip\xc8\v2.31\pic\sources\c90\common\__lldiv.c"
  1690 ;; Parameters:    Size  Location     Type
  1691 ;;  divisor         4    0[COMMON] unsigned long 
  1692 ;;  dividend        4    4[COMMON] unsigned long 
  1693 ;; Auto vars:     Size  Location     Type
  1694 ;;  quotient        4    9[COMMON] unsigned long 
  1695 ;;  counter         1   13[COMMON] unsigned char 
  1696 ;; Return value:  Size  Location     Type
  1697 ;;                  4    0[COMMON] unsigned long 
  1698 ;; Registers used:
  1699 ;;		wreg, status,2, status,0
  1700 ;; Tracked objects:
  1701 ;;		On entry : 0/0
  1702 ;;		On exit  : 0/0
  1703 ;;		Unchanged: 0/0
  1704 ;; Data sizes:     COMMON   BANK0   BANK1   BANK3   BANK2
  1705 ;;      Params:         8       0       0       0       0
  1706 ;;      Locals:         5       0       0       0       0
  1707 ;;      Temps:          1       0       0       0       0
  1708 ;;      Totals:        14       0       0       0       0
  1709 ;;Total ram usage:       14 bytes
  1710 ;; Hardware stack levels used:    1
  1711 ;; This function calls:
  1712 ;;		Nothing
  1713 ;; This function is called by:
  1714 ;;		_I2C_Master_Init
  1715 ;; This function uses a non-reentrant model
  1716 ;;
  1717                           
  1718                           
  1719                           ;psect for function ___lldiv
  1720  0B1A                     ___lldiv:
  1721  0B1A                     l1752:	
  1722                           ;incstack = 0
  1723                           ; Regs used in ___lldiv: [wreg+status,2+status,0]
  1724                           
  1725  0B1A  3000               	movlw	0
  1726  0B1B  00FC               	movwf	___lldiv@quotient+3
  1727  0B1C  3000               	movlw	0
  1728  0B1D  00FB               	movwf	___lldiv@quotient+2
  1729  0B1E  3000               	movlw	0
  1730  0B1F  00FA               	movwf	___lldiv@quotient+1
  1731  0B20  3000               	movlw	0
  1732  0B21  00F9               	movwf	___lldiv@quotient
  1733  0B22  0873               	movf	___lldiv@divisor+3,w
  1734  0B23  0472               	iorwf	___lldiv@divisor+2,w
  1735  0B24  0471               	iorwf	___lldiv@divisor+1,w
  1736  0B25  0470               	iorwf	___lldiv@divisor,w
  1737  0B26  1903               	skipnz
  1738  0B27  2B29               	goto	u1841
  1739  0B28  2B2A               	goto	u1840
  1740  0B29                     u1841:
  1741  0B29  2B77               	goto	l1772
  1742  0B2A                     u1840:
  1743  0B2A                     l1754:
  1744  0B2A  01FD               	clrf	___lldiv@counter
  1745  0B2B  0AFD               	incf	___lldiv@counter,f
  1746  0B2C  2B3A               	goto	l1758
  1747  0B2D                     l1756:
  1748  0B2D  3001               	movlw	1
  1749  0B2E  00F8               	movwf	??___lldiv
  1750  0B2F                     u1855:
  1751  0B2F  1003               	clrc
  1752  0B30  0DF0               	rlf	___lldiv@divisor,f
  1753  0B31  0DF1               	rlf	___lldiv@divisor+1,f
  1754  0B32  0DF2               	rlf	___lldiv@divisor+2,f
  1755  0B33  0DF3               	rlf	___lldiv@divisor+3,f
  1756  0B34  0BF8               	decfsz	??___lldiv,f
  1757  0B35  2B2F               	goto	u1855
  1758  0B36  3001               	movlw	1
  1759  0B37  00F8               	movwf	??___lldiv
  1760  0B38  0878               	movf	??___lldiv,w
  1761  0B39  07FD               	addwf	___lldiv@counter,f
  1762  0B3A                     l1758:
  1763  0B3A  1FF3               	btfss	___lldiv@divisor+3,7
  1764  0B3B  2B3D               	goto	u1861
  1765  0B3C  2B3E               	goto	u1860
  1766  0B3D                     u1861:
  1767  0B3D  2B2D               	goto	l1756
  1768  0B3E                     u1860:
  1769  0B3E                     l1760:
  1770  0B3E  3001               	movlw	1
  1771  0B3F  00F8               	movwf	??___lldiv
  1772  0B40                     u1875:
  1773  0B40  1003               	clrc
  1774  0B41  0DF9               	rlf	___lldiv@quotient,f
  1775  0B42  0DFA               	rlf	___lldiv@quotient+1,f
  1776  0B43  0DFB               	rlf	___lldiv@quotient+2,f
  1777  0B44  0DFC               	rlf	___lldiv@quotient+3,f
  1778  0B45  0BF8               	decfsz	??___lldiv,f
  1779  0B46  2B40               	goto	u1875
  1780  0B47                     l1762:
  1781  0B47  0873               	movf	___lldiv@divisor+3,w
  1782  0B48  0277               	subwf	___lldiv@dividend+3,w
  1783  0B49  1D03               	skipz
  1784  0B4A  2B55               	goto	u1885
  1785  0B4B  0872               	movf	___lldiv@divisor+2,w
  1786  0B4C  0276               	subwf	___lldiv@dividend+2,w
  1787  0B4D  1D03               	skipz
  1788  0B4E  2B55               	goto	u1885
  1789  0B4F  0871               	movf	___lldiv@divisor+1,w
  1790  0B50  0275               	subwf	___lldiv@dividend+1,w
  1791  0B51  1D03               	skipz
  1792  0B52  2B55               	goto	u1885
  1793  0B53  0870               	movf	___lldiv@divisor,w
  1794  0B54  0274               	subwf	___lldiv@dividend,w
  1795  0B55                     u1885:
  1796  0B55  1C03               	skipc
  1797  0B56  2B58               	goto	u1881
  1798  0B57  2B59               	goto	u1880
  1799  0B58                     u1881:
  1800  0B58  2B68               	goto	l1768
  1801  0B59                     u1880:
  1802  0B59                     l1764:
  1803  0B59  0870               	movf	___lldiv@divisor,w
  1804  0B5A  02F4               	subwf	___lldiv@dividend,f
  1805  0B5B  0871               	movf	___lldiv@divisor+1,w
  1806  0B5C  1C03               	skipc
  1807  0B5D  0F71               	incfsz	___lldiv@divisor+1,w
  1808  0B5E  02F5               	subwf	___lldiv@dividend+1,f
  1809  0B5F  0872               	movf	___lldiv@divisor+2,w
  1810  0B60  1C03               	skipc
  1811  0B61  0F72               	incfsz	___lldiv@divisor+2,w
  1812  0B62  02F6               	subwf	___lldiv@dividend+2,f
  1813  0B63  0873               	movf	___lldiv@divisor+3,w
  1814  0B64  1C03               	skipc
  1815  0B65  0F73               	incfsz	___lldiv@divisor+3,w
  1816  0B66  02F7               	subwf	___lldiv@dividend+3,f
  1817  0B67                     l1766:
  1818  0B67  1479               	bsf	___lldiv@quotient,0
  1819  0B68                     l1768:
  1820  0B68  3001               	movlw	1
  1821  0B69                     u1895:
  1822  0B69  1003               	clrc
  1823  0B6A  0CF3               	rrf	___lldiv@divisor+3,f
  1824  0B6B  0CF2               	rrf	___lldiv@divisor+2,f
  1825  0B6C  0CF1               	rrf	___lldiv@divisor+1,f
  1826  0B6D  0CF0               	rrf	___lldiv@divisor,f
  1827  0B6E  3EFF               	addlw	-1
  1828  0B6F  1D03               	skipz
  1829  0B70  2B69               	goto	u1895
  1830  0B71                     l1770:
  1831  0B71  3001               	movlw	1
  1832  0B72  02FD               	subwf	___lldiv@counter,f
  1833  0B73  1D03               	btfss	3,2
  1834  0B74  2B76               	goto	u1901
  1835  0B75  2B77               	goto	u1900
  1836  0B76                     u1901:
  1837  0B76  2B3E               	goto	l1760
  1838  0B77                     u1900:
  1839  0B77                     l1772:
  1840  0B77  087C               	movf	___lldiv@quotient+3,w
  1841  0B78  00F3               	movwf	?___lldiv+3
  1842  0B79  087B               	movf	___lldiv@quotient+2,w
  1843  0B7A  00F2               	movwf	?___lldiv+2
  1844  0B7B  087A               	movf	___lldiv@quotient+1,w
  1845  0B7C  00F1               	movwf	?___lldiv+1
  1846  0B7D  0879               	movf	___lldiv@quotient,w
  1847  0B7E  00F0               	movwf	?___lldiv
  1848  0B7F                     l314:
  1849  0B7F  0008               	return
  1850  0B80                     __end_of___lldiv:
  1851                           
  1852                           	psect	text4
  1853  0BE7                     __ptext4:	
  1854 ;; *************** function _division *****************
  1855 ;; Defined at:
  1856 ;;		line 150 in file "main01.c"
  1857 ;; Parameters:    Size  Location     Type
  1858 ;;  dividendo       1    wreg     unsigned char 
  1859 ;; Auto vars:     Size  Location     Type
  1860 ;;  dividendo       1   12[COMMON] unsigned char 
  1861 ;; Return value:  Size  Location     Type
  1862 ;;                  1    wreg      void 
  1863 ;; Registers used:
  1864 ;;		wreg, status,2, status,0, pclath, cstack
  1865 ;; Tracked objects:
  1866 ;;		On entry : 0/0
  1867 ;;		On exit  : 0/0
  1868 ;;		Unchanged: 0/0
  1869 ;; Data sizes:     COMMON   BANK0   BANK1   BANK3   BANK2
  1870 ;;      Params:         0       0       0       0       0
  1871 ;;      Locals:         1       0       0       0       0
  1872 ;;      Temps:          3       0       0       0       0
  1873 ;;      Totals:         4       0       0       0       0
  1874 ;;Total ram usage:        4 bytes
  1875 ;; Hardware stack levels used:    1
  1876 ;; Hardware stack levels required when called:    1
  1877 ;; This function calls:
  1878 ;;		___awdiv
  1879 ;;		___awmod
  1880 ;; This function is called by:
  1881 ;;		_main
  1882 ;; This function uses a non-reentrant model
  1883 ;;
  1884                           
  1885                           
  1886                           ;psect for function _division
  1887  0BE7                     _division:
  1888                           
  1889                           ;incstack = 0
  1890                           ; Regs used in _division: [wreg+status,2+status,0+pclath+cstack]
  1891                           ;division@dividendo stored from wreg
  1892  0BE7  00FC               	movwf	division@dividendo
  1893  0BE8                     l2000:
  1894  0BE8  3064               	movlw	100
  1895  0BE9  00F0               	movwf	___awdiv@divisor
  1896  0BEA  3000               	movlw	0
  1897  0BEB  00F1               	movwf	___awdiv@divisor+1
  1898  0BEC  087C               	movf	division@dividendo,w
  1899  0BED  00F9               	movwf	??_division
  1900  0BEE  01FA               	clrf	??_division+1
  1901  0BEF  0879               	movf	??_division,w
  1902  0BF0  00F2               	movwf	___awdiv@dividend
  1903  0BF1  087A               	movf	??_division+1,w
  1904  0BF2  00F3               	movwf	___awdiv@dividend+1
  1905  0BF3  120A  158A  2380  120A  158A  	fcall	___awdiv
  1906  0BF8  0870               	movf	?___awdiv,w
  1907  0BF9  00FB               	movwf	??_division+2
  1908  0BFA  087B               	movf	??_division+2,w
  1909  0BFB  1683               	bsf	3,5	;RP0=1, select bank1
  1910  0BFC  1303               	bcf	3,6	;RP1=0, select bank1
  1911  0BFD  00AB               	movwf	_centenas^(0+128)
  1912  0BFE  3064               	movlw	100
  1913  0BFF  00F0               	movwf	___awmod@divisor
  1914  0C00  3000               	movlw	0
  1915  0C01  00F1               	movwf	___awmod@divisor+1
  1916  0C02  087C               	movf	division@dividendo,w
  1917  0C03  00F9               	movwf	??_division
  1918  0C04  01FA               	clrf	??_division+1
  1919  0C05  0879               	movf	??_division,w
  1920  0C06  00F2               	movwf	___awmod@dividend
  1921  0C07  087A               	movf	??_division+1,w
  1922  0C08  00F3               	movwf	___awmod@dividend+1
  1923  0C09  120A  158A  2264  120A  158A  	fcall	___awmod
  1924  0C0E  0870               	movf	?___awmod,w
  1925  0C0F  00FB               	movwf	??_division+2
  1926  0C10  087B               	movf	??_division+2,w
  1927  0C11  1683               	bsf	3,5	;RP0=1, select bank1
  1928  0C12  1303               	bcf	3,6	;RP1=0, select bank1
  1929  0C13  00AA               	movwf	_residuo^(0+128)
  1930  0C14  300A               	movlw	10
  1931  0C15  00F0               	movwf	___awdiv@divisor
  1932  0C16  3000               	movlw	0
  1933  0C17  00F1               	movwf	___awdiv@divisor+1
  1934  0C18  082A               	movf	_residuo^(0+128),w
  1935  0C19  00F9               	movwf	??_division
  1936  0C1A  01FA               	clrf	??_division+1
  1937  0C1B  0879               	movf	??_division,w
  1938  0C1C  00F2               	movwf	___awdiv@dividend
  1939  0C1D  087A               	movf	??_division+1,w
  1940  0C1E  00F3               	movwf	___awdiv@dividend+1
  1941  0C1F  120A  158A  2380  120A  158A  	fcall	___awdiv
  1942  0C24  0870               	movf	?___awdiv,w
  1943  0C25  00FB               	movwf	??_division+2
  1944  0C26  087B               	movf	??_division+2,w
  1945  0C27  1283               	bcf	3,5	;RP0=0, select bank0
  1946  0C28  1303               	bcf	3,6	;RP1=0, select bank0
  1947  0C29  00EF               	movwf	_decenas
  1948  0C2A  300A               	movlw	10
  1949  0C2B  00F0               	movwf	___awmod@divisor
  1950  0C2C  3000               	movlw	0
  1951  0C2D  00F1               	movwf	___awmod@divisor+1
  1952  0C2E  1683               	bsf	3,5	;RP0=1, select bank1
  1953  0C2F  1303               	bcf	3,6	;RP1=0, select bank1
  1954  0C30  082A               	movf	_residuo^(0+128),w
  1955  0C31  00F9               	movwf	??_division
  1956  0C32  01FA               	clrf	??_division+1
  1957  0C33  0879               	movf	??_division,w
  1958  0C34  00F2               	movwf	___awmod@dividend
  1959  0C35  087A               	movf	??_division+1,w
  1960  0C36  00F3               	movwf	___awmod@dividend+1
  1961  0C37  120A  158A  2264  120A  158A  	fcall	___awmod
  1962  0C3C  0870               	movf	?___awmod,w
  1963  0C3D  00FB               	movwf	??_division+2
  1964  0C3E  087B               	movf	??_division+2,w
  1965  0C3F  1283               	bcf	3,5	;RP0=0, select bank0
  1966  0C40  1303               	bcf	3,6	;RP1=0, select bank0
  1967  0C41  00EE               	movwf	_unidades
  1968  0C42                     l2002:
  1969  0C42  3030               	movlw	48
  1970  0C43  00F9               	movwf	??_division
  1971  0C44  0879               	movf	??_division,w
  1972  0C45  1683               	bsf	3,5	;RP0=1, select bank1
  1973  0C46  1303               	bcf	3,6	;RP1=0, select bank1
  1974  0C47  07AB               	addwf	_centenas^(0+128),f
  1975  0C48                     l2004:
  1976  0C48  3030               	movlw	48
  1977  0C49  00F9               	movwf	??_division
  1978  0C4A  0879               	movf	??_division,w
  1979  0C4B  1283               	bcf	3,5	;RP0=0, select bank0
  1980  0C4C  1303               	bcf	3,6	;RP1=0, select bank0
  1981  0C4D  07EF               	addwf	_decenas,f
  1982  0C4E                     l2006:
  1983  0C4E  3030               	movlw	48
  1984  0C4F  00F9               	movwf	??_division
  1985  0C50  0879               	movf	??_division,w
  1986  0C51  07EE               	addwf	_unidades,f
  1987  0C52                     l79:
  1988  0C52  0008               	return
  1989  0C53                     __end_of_division:
  1990                           
  1991                           	psect	text5
  1992  0A64                     __ptext5:	
  1993 ;; *************** function ___awmod *****************
  1994 ;; Defined at:
  1995 ;;		line 5 in file "C:\Program Files\Microchip\xc8\v2.31\pic\sources\c90\common\awmod.c"
  1996 ;; Parameters:    Size  Location     Type
  1997 ;;  divisor         2    0[COMMON] int 
  1998 ;;  dividend        2    2[COMMON] int 
  1999 ;; Auto vars:     Size  Location     Type
  2000 ;;  sign            1    6[COMMON] unsigned char 
  2001 ;;  counter         1    5[COMMON] unsigned char 
  2002 ;; Return value:  Size  Location     Type
  2003 ;;                  2    0[COMMON] int 
  2004 ;; Registers used:
  2005 ;;		wreg, status,2, status,0
  2006 ;; Tracked objects:
  2007 ;;		On entry : 0/0
  2008 ;;		On exit  : 0/0
  2009 ;;		Unchanged: 0/0
  2010 ;; Data sizes:     COMMON   BANK0   BANK1   BANK3   BANK2
  2011 ;;      Params:         4       0       0       0       0
  2012 ;;      Locals:         2       0       0       0       0
  2013 ;;      Temps:          1       0       0       0       0
  2014 ;;      Totals:         7       0       0       0       0
  2015 ;;Total ram usage:        7 bytes
  2016 ;; Hardware stack levels used:    1
  2017 ;; This function calls:
  2018 ;;		Nothing
  2019 ;; This function is called by:
  2020 ;;		_division
  2021 ;; This function uses a non-reentrant model
  2022 ;;
  2023                           
  2024                           
  2025                           ;psect for function ___awmod
  2026  0A64                     ___awmod:
  2027  0A64                     l1866:	
  2028                           ;incstack = 0
  2029                           ; Regs used in ___awmod: [wreg+status,2+status,0]
  2030                           
  2031  0A64  01F6               	clrf	___awmod@sign
  2032  0A65                     l1868:
  2033  0A65  1FF3               	btfss	___awmod@dividend+1,7
  2034  0A66  2A68               	goto	u2051
  2035  0A67  2A69               	goto	u2050
  2036  0A68                     u2051:
  2037  0A68  2A70               	goto	l1874
  2038  0A69                     u2050:
  2039  0A69                     l1870:
  2040  0A69  09F2               	comf	___awmod@dividend,f
  2041  0A6A  09F3               	comf	___awmod@dividend+1,f
  2042  0A6B  0AF2               	incf	___awmod@dividend,f
  2043  0A6C  1903               	skipnz
  2044  0A6D  0AF3               	incf	___awmod@dividend+1,f
  2045  0A6E                     l1872:
  2046  0A6E  01F6               	clrf	___awmod@sign
  2047  0A6F  0AF6               	incf	___awmod@sign,f
  2048  0A70                     l1874:
  2049  0A70  1FF1               	btfss	___awmod@divisor+1,7
  2050  0A71  2A73               	goto	u2061
  2051  0A72  2A74               	goto	u2060
  2052  0A73                     u2061:
  2053  0A73  2A79               	goto	l1878
  2054  0A74                     u2060:
  2055  0A74                     l1876:
  2056  0A74  09F0               	comf	___awmod@divisor,f
  2057  0A75  09F1               	comf	___awmod@divisor+1,f
  2058  0A76  0AF0               	incf	___awmod@divisor,f
  2059  0A77  1903               	skipnz
  2060  0A78  0AF1               	incf	___awmod@divisor+1,f
  2061  0A79                     l1878:
  2062  0A79  0870               	movf	___awmod@divisor,w
  2063  0A7A  0471               	iorwf	___awmod@divisor+1,w
  2064  0A7B  1903               	btfsc	3,2
  2065  0A7C  2A7E               	goto	u2071
  2066  0A7D  2A7F               	goto	u2070
  2067  0A7E                     u2071:
  2068  0A7E  2AAE               	goto	l1896
  2069  0A7F                     u2070:
  2070  0A7F                     l1880:
  2071  0A7F  01F5               	clrf	___awmod@counter
  2072  0A80  0AF5               	incf	___awmod@counter,f
  2073  0A81  2A8D               	goto	l1886
  2074  0A82                     l1882:
  2075  0A82  3001               	movlw	1
  2076  0A83                     u2085:
  2077  0A83  1003               	clrc
  2078  0A84  0DF0               	rlf	___awmod@divisor,f
  2079  0A85  0DF1               	rlf	___awmod@divisor+1,f
  2080  0A86  3EFF               	addlw	-1
  2081  0A87  1D03               	skipz
  2082  0A88  2A83               	goto	u2085
  2083  0A89                     l1884:
  2084  0A89  3001               	movlw	1
  2085  0A8A  00F4               	movwf	??___awmod
  2086  0A8B  0874               	movf	??___awmod,w
  2087  0A8C  07F5               	addwf	___awmod@counter,f
  2088  0A8D                     l1886:
  2089  0A8D  1FF1               	btfss	___awmod@divisor+1,7
  2090  0A8E  2A90               	goto	u2091
  2091  0A8F  2A91               	goto	u2090
  2092  0A90                     u2091:
  2093  0A90  2A82               	goto	l1882
  2094  0A91                     u2090:
  2095  0A91                     l1888:
  2096  0A91  0871               	movf	___awmod@divisor+1,w
  2097  0A92  0273               	subwf	___awmod@dividend+1,w
  2098  0A93  1D03               	skipz
  2099  0A94  2A97               	goto	u2105
  2100  0A95  0870               	movf	___awmod@divisor,w
  2101  0A96  0272               	subwf	___awmod@dividend,w
  2102  0A97                     u2105:
  2103  0A97  1C03               	skipc
  2104  0A98  2A9A               	goto	u2101
  2105  0A99  2A9B               	goto	u2100
  2106  0A9A                     u2101:
  2107  0A9A  2AA1               	goto	l1892
  2108  0A9B                     u2100:
  2109  0A9B                     l1890:
  2110  0A9B  0870               	movf	___awmod@divisor,w
  2111  0A9C  02F2               	subwf	___awmod@dividend,f
  2112  0A9D  0871               	movf	___awmod@divisor+1,w
  2113  0A9E  1C03               	skipc
  2114  0A9F  03F3               	decf	___awmod@dividend+1,f
  2115  0AA0  02F3               	subwf	___awmod@dividend+1,f
  2116  0AA1                     l1892:
  2117  0AA1  3001               	movlw	1
  2118  0AA2                     u2115:
  2119  0AA2  1003               	clrc
  2120  0AA3  0CF1               	rrf	___awmod@divisor+1,f
  2121  0AA4  0CF0               	rrf	___awmod@divisor,f
  2122  0AA5  3EFF               	addlw	-1
  2123  0AA6  1D03               	skipz
  2124  0AA7  2AA2               	goto	u2115
  2125  0AA8                     l1894:
  2126  0AA8  3001               	movlw	1
  2127  0AA9  02F5               	subwf	___awmod@counter,f
  2128  0AAA  1D03               	btfss	3,2
  2129  0AAB  2AAD               	goto	u2121
  2130  0AAC  2AAE               	goto	u2120
  2131  0AAD                     u2121:
  2132  0AAD  2A91               	goto	l1888
  2133  0AAE                     u2120:
  2134  0AAE                     l1896:
  2135  0AAE  0876               	movf	___awmod@sign,w
  2136  0AAF  1903               	btfsc	3,2
  2137  0AB0  2AB2               	goto	u2131
  2138  0AB1  2AB3               	goto	u2130
  2139  0AB2                     u2131:
  2140  0AB2  2AB8               	goto	l1900
  2141  0AB3                     u2130:
  2142  0AB3                     l1898:
  2143  0AB3  09F2               	comf	___awmod@dividend,f
  2144  0AB4  09F3               	comf	___awmod@dividend+1,f
  2145  0AB5  0AF2               	incf	___awmod@dividend,f
  2146  0AB6  1903               	skipnz
  2147  0AB7  0AF3               	incf	___awmod@dividend+1,f
  2148  0AB8                     l1900:
  2149  0AB8  0873               	movf	___awmod@dividend+1,w
  2150  0AB9  00F1               	movwf	?___awmod+1
  2151  0ABA  0872               	movf	___awmod@dividend,w
  2152  0ABB  00F0               	movwf	?___awmod
  2153  0ABC                     l444:
  2154  0ABC  0008               	return
  2155  0ABD                     __end_of___awmod:
  2156                           
  2157                           	psect	text6
  2158  0B80                     __ptext6:	
  2159 ;; *************** function ___awdiv *****************
  2160 ;; Defined at:
  2161 ;;		line 5 in file "C:\Program Files\Microchip\xc8\v2.31\pic\sources\c90\common\awdiv.c"
  2162 ;; Parameters:    Size  Location     Type
  2163 ;;  divisor         2    0[COMMON] int 
  2164 ;;  dividend        2    2[COMMON] int 
  2165 ;; Auto vars:     Size  Location     Type
  2166 ;;  quotient        2    7[COMMON] int 
  2167 ;;  sign            1    6[COMMON] unsigned char 
  2168 ;;  counter         1    5[COMMON] unsigned char 
  2169 ;; Return value:  Size  Location     Type
  2170 ;;                  2    0[COMMON] int 
  2171 ;; Registers used:
  2172 ;;		wreg, status,2, status,0
  2173 ;; Tracked objects:
  2174 ;;		On entry : 0/0
  2175 ;;		On exit  : 0/0
  2176 ;;		Unchanged: 0/0
  2177 ;; Data sizes:     COMMON   BANK0   BANK1   BANK3   BANK2
  2178 ;;      Params:         4       0       0       0       0
  2179 ;;      Locals:         4       0       0       0       0
  2180 ;;      Temps:          1       0       0       0       0
  2181 ;;      Totals:         9       0       0       0       0
  2182 ;;Total ram usage:        9 bytes
  2183 ;; Hardware stack levels used:    1
  2184 ;; This function calls:
  2185 ;;		Nothing
  2186 ;; This function is called by:
  2187 ;;		_division
  2188 ;; This function uses a non-reentrant model
  2189 ;;
  2190                           
  2191                           
  2192                           ;psect for function ___awdiv
  2193  0B80                     ___awdiv:
  2194  0B80                     l1822:	
  2195                           ;incstack = 0
  2196                           ; Regs used in ___awdiv: [wreg+status,2+status,0]
  2197                           
  2198  0B80  01F6               	clrf	___awdiv@sign
  2199  0B81                     l1824:
  2200  0B81  1FF1               	btfss	___awdiv@divisor+1,7
  2201  0B82  2B84               	goto	u1951
  2202  0B83  2B85               	goto	u1950
  2203  0B84                     u1951:
  2204  0B84  2B8C               	goto	l1830
  2205  0B85                     u1950:
  2206  0B85                     l1826:
  2207  0B85  09F0               	comf	___awdiv@divisor,f
  2208  0B86  09F1               	comf	___awdiv@divisor+1,f
  2209  0B87  0AF0               	incf	___awdiv@divisor,f
  2210  0B88  1903               	skipnz
  2211  0B89  0AF1               	incf	___awdiv@divisor+1,f
  2212  0B8A                     l1828:
  2213  0B8A  01F6               	clrf	___awdiv@sign
  2214  0B8B  0AF6               	incf	___awdiv@sign,f
  2215  0B8C                     l1830:
  2216  0B8C  1FF3               	btfss	___awdiv@dividend+1,7
  2217  0B8D  2B8F               	goto	u1961
  2218  0B8E  2B90               	goto	u1960
  2219  0B8F                     u1961:
  2220  0B8F  2B99               	goto	l1836
  2221  0B90                     u1960:
  2222  0B90                     l1832:
  2223  0B90  09F2               	comf	___awdiv@dividend,f
  2224  0B91  09F3               	comf	___awdiv@dividend+1,f
  2225  0B92  0AF2               	incf	___awdiv@dividend,f
  2226  0B93  1903               	skipnz
  2227  0B94  0AF3               	incf	___awdiv@dividend+1,f
  2228  0B95                     l1834:
  2229  0B95  3001               	movlw	1
  2230  0B96  00F4               	movwf	??___awdiv
  2231  0B97  0874               	movf	??___awdiv,w
  2232  0B98  06F6               	xorwf	___awdiv@sign,f
  2233  0B99                     l1836:
  2234  0B99  01F7               	clrf	___awdiv@quotient
  2235  0B9A  01F8               	clrf	___awdiv@quotient+1
  2236  0B9B                     l1838:
  2237  0B9B  0870               	movf	___awdiv@divisor,w
  2238  0B9C  0471               	iorwf	___awdiv@divisor+1,w
  2239  0B9D  1903               	btfsc	3,2
  2240  0B9E  2BA0               	goto	u1971
  2241  0B9F  2BA1               	goto	u1970
  2242  0BA0                     u1971:
  2243  0BA0  2BD8               	goto	l1858
  2244  0BA1                     u1970:
  2245  0BA1                     l1840:
  2246  0BA1  01F5               	clrf	___awdiv@counter
  2247  0BA2  0AF5               	incf	___awdiv@counter,f
  2248  0BA3  2BAF               	goto	l1846
  2249  0BA4                     l1842:
  2250  0BA4  3001               	movlw	1
  2251  0BA5                     u1985:
  2252  0BA5  1003               	clrc
  2253  0BA6  0DF0               	rlf	___awdiv@divisor,f
  2254  0BA7  0DF1               	rlf	___awdiv@divisor+1,f
  2255  0BA8  3EFF               	addlw	-1
  2256  0BA9  1D03               	skipz
  2257  0BAA  2BA5               	goto	u1985
  2258  0BAB                     l1844:
  2259  0BAB  3001               	movlw	1
  2260  0BAC  00F4               	movwf	??___awdiv
  2261  0BAD  0874               	movf	??___awdiv,w
  2262  0BAE  07F5               	addwf	___awdiv@counter,f
  2263  0BAF                     l1846:
  2264  0BAF  1FF1               	btfss	___awdiv@divisor+1,7
  2265  0BB0  2BB2               	goto	u1991
  2266  0BB1  2BB3               	goto	u1990
  2267  0BB2                     u1991:
  2268  0BB2  2BA4               	goto	l1842
  2269  0BB3                     u1990:
  2270  0BB3                     l1848:
  2271  0BB3  3001               	movlw	1
  2272  0BB4                     u2005:
  2273  0BB4  1003               	clrc
  2274  0BB5  0DF7               	rlf	___awdiv@quotient,f
  2275  0BB6  0DF8               	rlf	___awdiv@quotient+1,f
  2276  0BB7  3EFF               	addlw	-1
  2277  0BB8  1D03               	skipz
  2278  0BB9  2BB4               	goto	u2005
  2279  0BBA  0871               	movf	___awdiv@divisor+1,w
  2280  0BBB  0273               	subwf	___awdiv@dividend+1,w
  2281  0BBC  1D03               	skipz
  2282  0BBD  2BC0               	goto	u2015
  2283  0BBE  0870               	movf	___awdiv@divisor,w
  2284  0BBF  0272               	subwf	___awdiv@dividend,w
  2285  0BC0                     u2015:
  2286  0BC0  1C03               	skipc
  2287  0BC1  2BC3               	goto	u2011
  2288  0BC2  2BC4               	goto	u2010
  2289  0BC3                     u2011:
  2290  0BC3  2BCB               	goto	l1854
  2291  0BC4                     u2010:
  2292  0BC4                     l1850:
  2293  0BC4  0870               	movf	___awdiv@divisor,w
  2294  0BC5  02F2               	subwf	___awdiv@dividend,f
  2295  0BC6  0871               	movf	___awdiv@divisor+1,w
  2296  0BC7  1C03               	skipc
  2297  0BC8  03F3               	decf	___awdiv@dividend+1,f
  2298  0BC9  02F3               	subwf	___awdiv@dividend+1,f
  2299  0BCA                     l1852:
  2300  0BCA  1477               	bsf	___awdiv@quotient,0
  2301  0BCB                     l1854:
  2302  0BCB  3001               	movlw	1
  2303  0BCC                     u2025:
  2304  0BCC  1003               	clrc
  2305  0BCD  0CF1               	rrf	___awdiv@divisor+1,f
  2306  0BCE  0CF0               	rrf	___awdiv@divisor,f
  2307  0BCF  3EFF               	addlw	-1
  2308  0BD0  1D03               	skipz
  2309  0BD1  2BCC               	goto	u2025
  2310  0BD2                     l1856:
  2311  0BD2  3001               	movlw	1
  2312  0BD3  02F5               	subwf	___awdiv@counter,f
  2313  0BD4  1D03               	btfss	3,2
  2314  0BD5  2BD7               	goto	u2031
  2315  0BD6  2BD8               	goto	u2030
  2316  0BD7                     u2031:
  2317  0BD7  2BB3               	goto	l1848
  2318  0BD8                     u2030:
  2319  0BD8                     l1858:
  2320  0BD8  0876               	movf	___awdiv@sign,w
  2321  0BD9  1903               	btfsc	3,2
  2322  0BDA  2BDC               	goto	u2041
  2323  0BDB  2BDD               	goto	u2040
  2324  0BDC                     u2041:
  2325  0BDC  2BE2               	goto	l1862
  2326  0BDD                     u2040:
  2327  0BDD                     l1860:
  2328  0BDD  09F7               	comf	___awdiv@quotient,f
  2329  0BDE  09F8               	comf	___awdiv@quotient+1,f
  2330  0BDF  0AF7               	incf	___awdiv@quotient,f
  2331  0BE0  1903               	skipnz
  2332  0BE1  0AF8               	incf	___awdiv@quotient+1,f
  2333  0BE2                     l1862:
  2334  0BE2  0878               	movf	___awdiv@quotient+1,w
  2335  0BE3  00F1               	movwf	?___awdiv+1
  2336  0BE4  0877               	movf	___awdiv@quotient,w
  2337  0BE5  00F0               	movwf	?___awdiv
  2338  0BE6                     l431:
  2339  0BE6  0008               	return
  2340  0BE7                     __end_of___awdiv:
  2341                           
  2342                           	psect	text7
  2343  0CEF                     __ptext7:	
  2344 ;; *************** function ___xxtofl *****************
  2345 ;; Defined at:
  2346 ;;		line 10 in file "C:\Program Files\Microchip\xc8\v2.31\pic\sources\c90\common\xxtofl.c"
  2347 ;; Parameters:    Size  Location     Type
  2348 ;;  sign            1    wreg     unsigned char 
  2349 ;;  val             4    0[COMMON] long 
  2350 ;; Auto vars:     Size  Location     Type
  2351 ;;  sign            1    8[COMMON] unsigned char 
  2352 ;;  arg             4   10[COMMON] unsigned long 
  2353 ;;  exp             1    9[COMMON] unsigned char 
  2354 ;; Return value:  Size  Location     Type
  2355 ;;                  4    0[COMMON] unsigned char 
  2356 ;; Registers used:
  2357 ;;		wreg, status,2, status,0
  2358 ;; Tracked objects:
  2359 ;;		On entry : 0/0
  2360 ;;		On exit  : 0/0
  2361 ;;		Unchanged: 0/0
  2362 ;; Data sizes:     COMMON   BANK0   BANK1   BANK3   BANK2
  2363 ;;      Params:         4       0       0       0       0
  2364 ;;      Locals:         6       0       0       0       0
  2365 ;;      Temps:          4       0       0       0       0
  2366 ;;      Totals:        14       0       0       0       0
  2367 ;;Total ram usage:       14 bytes
  2368 ;; Hardware stack levels used:    1
  2369 ;; This function calls:
  2370 ;;		Nothing
  2371 ;; This function is called by:
  2372 ;;		_main
  2373 ;; This function uses a non-reentrant model
  2374 ;;
  2375                           
  2376                           
  2377                           ;psect for function ___xxtofl
  2378  0CEF                     ___xxtofl:
  2379                           
  2380                           ;incstack = 0
  2381                           ; Regs used in ___xxtofl: [wreg+status,2+status,0]
  2382                           ;___xxtofl@sign stored from wreg
  2383  0CEF  00F8               	movwf	___xxtofl@sign
  2384  0CF0                     l2522:
  2385  0CF0  0878               	movf	___xxtofl@sign,w
  2386  0CF1  1903               	btfsc	3,2
  2387  0CF2  2CF4               	goto	u3451
  2388  0CF3  2CF5               	goto	u3450
  2389  0CF4                     u3451:
  2390  0CF4  2D09               	goto	l2528
  2391  0CF5                     u3450:
  2392  0CF5                     l2524:
  2393  0CF5  1FF3               	btfss	___xxtofl@val+3,7
  2394  0CF6  2CF8               	goto	u3461
  2395  0CF7  2CF9               	goto	u3460
  2396  0CF8                     u3461:
  2397  0CF8  2D09               	goto	l2528
  2398  0CF9                     u3460:
  2399  0CF9                     l2526:
  2400  0CF9  0970               	comf	___xxtofl@val,w
  2401  0CFA  00FA               	movwf	___xxtofl@arg
  2402  0CFB  0971               	comf	___xxtofl@val+1,w
  2403  0CFC  00FB               	movwf	___xxtofl@arg+1
  2404  0CFD  0972               	comf	___xxtofl@val+2,w
  2405  0CFE  00FC               	movwf	___xxtofl@arg+2
  2406  0CFF  0973               	comf	___xxtofl@val+3,w
  2407  0D00  00FD               	movwf	___xxtofl@arg+3
  2408  0D01  0AFA               	incf	___xxtofl@arg,f
  2409  0D02  1903               	skipnz
  2410  0D03  0AFB               	incf	___xxtofl@arg+1,f
  2411  0D04  1903               	skipnz
  2412  0D05  0AFC               	incf	___xxtofl@arg+2,f
  2413  0D06  1903               	skipnz
  2414  0D07  0AFD               	incf	___xxtofl@arg+3,f
  2415  0D08  2D11               	goto	l711
  2416  0D09                     l2528:
  2417  0D09  0873               	movf	___xxtofl@val+3,w
  2418  0D0A  00FD               	movwf	___xxtofl@arg+3
  2419  0D0B  0872               	movf	___xxtofl@val+2,w
  2420  0D0C  00FC               	movwf	___xxtofl@arg+2
  2421  0D0D  0871               	movf	___xxtofl@val+1,w
  2422  0D0E  00FB               	movwf	___xxtofl@arg+1
  2423  0D0F  0870               	movf	___xxtofl@val,w
  2424  0D10  00FA               	movwf	___xxtofl@arg
  2425  0D11                     l711:
  2426  0D11  0873               	movf	___xxtofl@val+3,w
  2427  0D12  0472               	iorwf	___xxtofl@val+2,w
  2428  0D13  0471               	iorwf	___xxtofl@val+1,w
  2429  0D14  0470               	iorwf	___xxtofl@val,w
  2430  0D15  1D03               	skipz
  2431  0D16  2D18               	goto	u3471
  2432  0D17  2D19               	goto	u3470
  2433  0D18                     u3471:
  2434  0D18  2D22               	goto	l2534
  2435  0D19                     u3470:
  2436  0D19                     l2530:
  2437  0D19  3000               	movlw	0
  2438  0D1A  00F3               	movwf	?___xxtofl+3
  2439  0D1B  3000               	movlw	0
  2440  0D1C  00F2               	movwf	?___xxtofl+2
  2441  0D1D  3000               	movlw	0
  2442  0D1E  00F1               	movwf	?___xxtofl+1
  2443  0D1F  3000               	movlw	0
  2444  0D20  00F0               	movwf	?___xxtofl
  2445  0D21  2DA8               	goto	l713
  2446  0D22                     l2534:
  2447  0D22  3096               	movlw	150
  2448  0D23  00F4               	movwf	??___xxtofl
  2449  0D24  0874               	movf	??___xxtofl,w
  2450  0D25  00F9               	movwf	___xxtofl@exp
  2451  0D26  2D34               	goto	l2538
  2452  0D27                     l2536:
  2453  0D27  3001               	movlw	1
  2454  0D28  00F4               	movwf	??___xxtofl
  2455  0D29  0874               	movf	??___xxtofl,w
  2456  0D2A  07F9               	addwf	___xxtofl@exp,f
  2457  0D2B  3001               	movlw	1
  2458  0D2C                     u3485:
  2459  0D2C  1003               	clrc
  2460  0D2D  0CFD               	rrf	___xxtofl@arg+3,f
  2461  0D2E  0CFC               	rrf	___xxtofl@arg+2,f
  2462  0D2F  0CFB               	rrf	___xxtofl@arg+1,f
  2463  0D30  0CFA               	rrf	___xxtofl@arg,f
  2464  0D31  3EFF               	addlw	-1
  2465  0D32  1D03               	skipz
  2466  0D33  2D2C               	goto	u3485
  2467  0D34                     l2538:
  2468  0D34  30FE               	movlw	254
  2469  0D35  057D               	andwf	___xxtofl@arg+3,w
  2470  0D36  1D03               	btfss	3,2
  2471  0D37  2D39               	goto	u3491
  2472  0D38  2D3A               	goto	u3490
  2473  0D39                     u3491:
  2474  0D39  2D27               	goto	l2536
  2475  0D3A                     u3490:
  2476  0D3A  2D56               	goto	l717
  2477  0D3B                     l2540:
  2478  0D3B  3001               	movlw	1
  2479  0D3C  00F4               	movwf	??___xxtofl
  2480  0D3D  0874               	movf	??___xxtofl,w
  2481  0D3E  07F9               	addwf	___xxtofl@exp,f
  2482  0D3F                     l2542:
  2483  0D3F  3001               	movlw	1
  2484  0D40  07FA               	addwf	___xxtofl@arg,f
  2485  0D41  3000               	movlw	0
  2486  0D42  1803               	skipnc
  2487  0D43  3001               	movlw	1
  2488  0D44  07FB               	addwf	___xxtofl@arg+1,f
  2489  0D45  3000               	movlw	0
  2490  0D46  1803               	skipnc
  2491  0D47  3001               	movlw	1
  2492  0D48  07FC               	addwf	___xxtofl@arg+2,f
  2493  0D49  3000               	movlw	0
  2494  0D4A  1803               	skipnc
  2495  0D4B  3001               	movlw	1
  2496  0D4C  07FD               	addwf	___xxtofl@arg+3,f
  2497  0D4D                     l2544:
  2498  0D4D  3001               	movlw	1
  2499  0D4E                     u3505:
  2500  0D4E  1003               	clrc
  2501  0D4F  0CFD               	rrf	___xxtofl@arg+3,f
  2502  0D50  0CFC               	rrf	___xxtofl@arg+2,f
  2503  0D51  0CFB               	rrf	___xxtofl@arg+1,f
  2504  0D52  0CFA               	rrf	___xxtofl@arg,f
  2505  0D53  3EFF               	addlw	-1
  2506  0D54  1D03               	skipz
  2507  0D55  2D4E               	goto	u3505
  2508  0D56                     l717:
  2509  0D56  30FF               	movlw	255
  2510  0D57  057D               	andwf	___xxtofl@arg+3,w
  2511  0D58  1D03               	btfss	3,2
  2512  0D59  2D5B               	goto	u3511
  2513  0D5A  2D5C               	goto	u3510
  2514  0D5B                     u3511:
  2515  0D5B  2D3B               	goto	l2540
  2516  0D5C                     u3510:
  2517  0D5C  2D68               	goto	l2548
  2518  0D5D                     l2546:
  2519  0D5D  3001               	movlw	1
  2520  0D5E  02F9               	subwf	___xxtofl@exp,f
  2521  0D5F  3001               	movlw	1
  2522  0D60  00F4               	movwf	??___xxtofl
  2523  0D61                     u3525:
  2524  0D61  1003               	clrc
  2525  0D62  0DFA               	rlf	___xxtofl@arg,f
  2526  0D63  0DFB               	rlf	___xxtofl@arg+1,f
  2527  0D64  0DFC               	rlf	___xxtofl@arg+2,f
  2528  0D65  0DFD               	rlf	___xxtofl@arg+3,f
  2529  0D66  0BF4               	decfsz	??___xxtofl,f
  2530  0D67  2D61               	goto	u3525
  2531  0D68                     l2548:
  2532  0D68  1BFC               	btfsc	___xxtofl@arg+2,7
  2533  0D69  2D6B               	goto	u3531
  2534  0D6A  2D6C               	goto	u3530
  2535  0D6B                     u3531:
  2536  0D6B  2D72               	goto	l724
  2537  0D6C                     u3530:
  2538  0D6C                     l2550:
  2539  0D6C  3002               	movlw	2
  2540  0D6D  0279               	subwf	___xxtofl@exp,w
  2541  0D6E  1803               	skipnc
  2542  0D6F  2D71               	goto	u3541
  2543  0D70  2D72               	goto	u3540
  2544  0D71                     u3541:
  2545  0D71  2D5D               	goto	l2546
  2546  0D72                     u3540:
  2547  0D72                     l724:
  2548  0D72  1879               	btfsc	___xxtofl@exp,0
  2549  0D73  2D75               	goto	u3551
  2550  0D74  2D76               	goto	u3550
  2551  0D75                     u3551:
  2552  0D75  2D7E               	goto	l725
  2553  0D76                     u3550:
  2554  0D76                     l2552:
  2555  0D76  30FF               	movlw	255
  2556  0D77  05FA               	andwf	___xxtofl@arg,f
  2557  0D78  30FF               	movlw	255
  2558  0D79  05FB               	andwf	___xxtofl@arg+1,f
  2559  0D7A  307F               	movlw	127
  2560  0D7B  05FC               	andwf	___xxtofl@arg+2,f
  2561  0D7C  30FF               	movlw	255
  2562  0D7D  05FD               	andwf	___xxtofl@arg+3,f
  2563  0D7E                     l725:
  2564  0D7E  1003               	clrc
  2565  0D7F  0CF9               	rrf	___xxtofl@exp,f
  2566  0D80                     l2554:
  2567  0D80  0879               	movf	___xxtofl@exp,w
  2568  0D81  00F4               	movwf	??___xxtofl
  2569  0D82  01F5               	clrf	??___xxtofl+1
  2570  0D83  01F6               	clrf	??___xxtofl+2
  2571  0D84  01F7               	clrf	??___xxtofl+3
  2572  0D85  3018               	movlw	24
  2573  0D86                     u3565:
  2574  0D86  1003               	clrc
  2575  0D87  0DF4               	rlf	??___xxtofl,f
  2576  0D88  0DF5               	rlf	??___xxtofl+1,f
  2577  0D89  0DF6               	rlf	??___xxtofl+2,f
  2578  0D8A  0DF7               	rlf	??___xxtofl+3,f
  2579  0D8B                     u3560:
  2580  0D8B  3EFF               	addlw	-1
  2581  0D8C  1D03               	skipz
  2582  0D8D  2D86               	goto	u3565
  2583  0D8E  0874               	movf	??___xxtofl,w
  2584  0D8F  04FA               	iorwf	___xxtofl@arg,f
  2585  0D90  0875               	movf	??___xxtofl+1,w
  2586  0D91  04FB               	iorwf	___xxtofl@arg+1,f
  2587  0D92  0876               	movf	??___xxtofl+2,w
  2588  0D93  04FC               	iorwf	___xxtofl@arg+2,f
  2589  0D94  0877               	movf	??___xxtofl+3,w
  2590  0D95  04FD               	iorwf	___xxtofl@arg+3,f
  2591  0D96                     l2556:
  2592  0D96  0878               	movf	___xxtofl@sign,w
  2593  0D97  1903               	btfsc	3,2
  2594  0D98  2D9A               	goto	u3571
  2595  0D99  2D9B               	goto	u3570
  2596  0D9A                     u3571:
  2597  0D9A  2DA0               	goto	l2562
  2598  0D9B                     u3570:
  2599  0D9B                     l2558:
  2600  0D9B  1FF3               	btfss	___xxtofl@val+3,7
  2601  0D9C  2D9E               	goto	u3581
  2602  0D9D  2D9F               	goto	u3580
  2603  0D9E                     u3581:
  2604  0D9E  2DA0               	goto	l2562
  2605  0D9F                     u3580:
  2606  0D9F                     l2560:
  2607  0D9F  17FD               	bsf	___xxtofl@arg+3,7
  2608  0DA0                     l2562:
  2609  0DA0  087D               	movf	___xxtofl@arg+3,w
  2610  0DA1  00F3               	movwf	?___xxtofl+3
  2611  0DA2  087C               	movf	___xxtofl@arg+2,w
  2612  0DA3  00F2               	movwf	?___xxtofl+2
  2613  0DA4  087B               	movf	___xxtofl@arg+1,w
  2614  0DA5  00F1               	movwf	?___xxtofl+1
  2615  0DA6  087A               	movf	___xxtofl@arg,w
  2616  0DA7  00F0               	movwf	?___xxtofl
  2617  0DA8                     l713:
  2618  0DA8  0008               	return
  2619  0DA9                     __end_of___xxtofl:
  2620                           
  2621                           	psect	text8
  2622  0C53                     __ptext8:	
  2623 ;; *************** function ___fltol *****************
  2624 ;; Defined at:
  2625 ;;		line 43 in file "C:\Program Files\Microchip\xc8\v2.31\pic\sources\c90\common\fltol.c"
  2626 ;; Parameters:    Size  Location     Type
  2627 ;;  f1              4   72[BANK0 ] unsigned char 
  2628 ;; Auto vars:     Size  Location     Type
  2629 ;;  exp1            1   77[BANK0 ] unsigned char 
  2630 ;;  sign1           1   76[BANK0 ] unsigned char 
  2631 ;; Return value:  Size  Location     Type
  2632 ;;                  4   72[BANK0 ] long 
  2633 ;; Registers used:
  2634 ;;		wreg, status,2, status,0
  2635 ;; Tracked objects:
  2636 ;;		On entry : 0/0
  2637 ;;		On exit  : 0/0
  2638 ;;		Unchanged: 0/0
  2639 ;; Data sizes:     COMMON   BANK0   BANK1   BANK3   BANK2
  2640 ;;      Params:         0       4       0       0       0
  2641 ;;      Locals:         0       2       0       0       0
  2642 ;;      Temps:          0       0       5       0       0
  2643 ;;      Totals:         0       6       5       0       0
  2644 ;;Total ram usage:       11 bytes
  2645 ;; Hardware stack levels used:    1
  2646 ;; This function calls:
  2647 ;;		Nothing
  2648 ;; This function is called by:
  2649 ;;		_main
  2650 ;; This function uses a non-reentrant model
  2651 ;;
  2652                           
  2653                           
  2654                           ;psect for function ___fltol
  2655  0C53                     ___fltol:
  2656  0C53                     l2010:	
  2657                           ;incstack = 0
  2658                           ; Regs used in ___fltol: [wreg+status,2+status,0]
  2659                           
  2660  0C53  1003               	clrc
  2661  0C54  1283               	bcf	3,5	;RP0=0, select bank0
  2662  0C55  1303               	bcf	3,6	;RP1=0, select bank0
  2663  0C56  0D6A               	rlf	___fltol@f1+2,w
  2664  0C57  0D6B               	rlf	___fltol@f1+3,w
  2665  0C58  1683               	bsf	3,5	;RP0=1, select bank1
  2666  0C59  1303               	bcf	3,6	;RP1=0, select bank1
  2667  0C5A  00A0               	movwf	??___fltol^(0+128)
  2668  0C5B  0820               	movf	??___fltol^(0+128),w
  2669  0C5C  1283               	bcf	3,5	;RP0=0, select bank0
  2670  0C5D  1303               	bcf	3,6	;RP1=0, select bank0
  2671  0C5E  00ED               	movwf	___fltol@exp1
  2672  0C5F  086D               	movf	___fltol@exp1,w
  2673  0C60  1D03               	btfss	3,2
  2674  0C61  2C63               	goto	u2231
  2675  0C62  2C64               	goto	u2230
  2676  0C63                     u2231:
  2677  0C63  2C6D               	goto	l2016
  2678  0C64                     u2230:
  2679  0C64                     l2012:
  2680  0C64  3000               	movlw	0
  2681  0C65  00EB               	movwf	?___fltol+3
  2682  0C66  3000               	movlw	0
  2683  0C67  00EA               	movwf	?___fltol+2
  2684  0C68  3000               	movlw	0
  2685  0C69  00E9               	movwf	?___fltol+1
  2686  0C6A  3000               	movlw	0
  2687  0C6B  00E8               	movwf	?___fltol
  2688  0C6C  2CEE               	goto	l464
  2689  0C6D                     l2016:
  2690  0C6D  0868               	movf	___fltol@f1,w
  2691  0C6E  1683               	bsf	3,5	;RP0=1, select bank1
  2692  0C6F  1303               	bcf	3,6	;RP1=0, select bank1
  2693  0C70  00A0               	movwf	??___fltol^(0+128)
  2694  0C71  1283               	bcf	3,5	;RP0=0, select bank0
  2695  0C72  1303               	bcf	3,6	;RP1=0, select bank0
  2696  0C73  0869               	movf	___fltol@f1+1,w
  2697  0C74  1683               	bsf	3,5	;RP0=1, select bank1
  2698  0C75  1303               	bcf	3,6	;RP1=0, select bank1
  2699  0C76  00A1               	movwf	(??___fltol^(0+128)+1)
  2700  0C77  1283               	bcf	3,5	;RP0=0, select bank0
  2701  0C78  1303               	bcf	3,6	;RP1=0, select bank0
  2702  0C79  086A               	movf	___fltol@f1+2,w
  2703  0C7A  1683               	bsf	3,5	;RP0=1, select bank1
  2704  0C7B  1303               	bcf	3,6	;RP1=0, select bank1
  2705  0C7C  00A2               	movwf	(??___fltol^(0+128)+2)
  2706  0C7D  1283               	bcf	3,5	;RP0=0, select bank0
  2707  0C7E  1303               	bcf	3,6	;RP1=0, select bank0
  2708  0C7F  086B               	movf	___fltol@f1+3,w
  2709  0C80  1683               	bsf	3,5	;RP0=1, select bank1
  2710  0C81  1303               	bcf	3,6	;RP1=0, select bank1
  2711  0C82  00A3               	movwf	(??___fltol^(0+128)+3)
  2712  0C83  301F               	movlw	31
  2713  0C84                     u2245:
  2714  0C84  1003               	clrc
  2715  0C85  0CA3               	rrf	(??___fltol^(0+128)+3),f
  2716  0C86  0CA2               	rrf	(??___fltol^(0+128)+2),f
  2717  0C87  0CA1               	rrf	(??___fltol^(0+128)+1),f
  2718  0C88  0CA0               	rrf	??___fltol^(0+128),f
  2719  0C89                     u2240:
  2720  0C89  3EFF               	addlw	-1
  2721  0C8A  1D03               	skipz
  2722  0C8B  2C84               	goto	u2245
  2723  0C8C  0820               	movf	??___fltol^(0+128),w
  2724  0C8D  00A4               	movwf	(??___fltol+4)^(0+128)
  2725  0C8E  0824               	movf	(??___fltol+4)^(0+128),w
  2726  0C8F  1283               	bcf	3,5	;RP0=0, select bank0
  2727  0C90  1303               	bcf	3,6	;RP1=0, select bank0
  2728  0C91  00EC               	movwf	___fltol@sign1
  2729  0C92                     l2018:
  2730  0C92  17EA               	bsf	___fltol@f1+2,7
  2731  0C93                     l2020:
  2732  0C93  30FF               	movlw	255
  2733  0C94  05E8               	andwf	___fltol@f1,f
  2734  0C95  30FF               	movlw	255
  2735  0C96  05E9               	andwf	___fltol@f1+1,f
  2736  0C97  30FF               	movlw	255
  2737  0C98  05EA               	andwf	___fltol@f1+2,f
  2738  0C99  3000               	movlw	0
  2739  0C9A  05EB               	andwf	___fltol@f1+3,f
  2740  0C9B                     l2022:
  2741  0C9B  3096               	movlw	150
  2742  0C9C  02ED               	subwf	___fltol@exp1,f
  2743  0C9D                     l2024:
  2744  0C9D  1FED               	btfss	___fltol@exp1,7
  2745  0C9E  2CA0               	goto	u2251
  2746  0C9F  2CA1               	goto	u2250
  2747  0CA0                     u2251:
  2748  0CA0  2CBF               	goto	l2034
  2749  0CA1                     u2250:
  2750  0CA1                     l2026:
  2751  0CA1  086D               	movf	___fltol@exp1,w
  2752  0CA2  3A80               	xorlw	128
  2753  0CA3  3E97               	addlw	151
  2754  0CA4  1803               	skipnc
  2755  0CA5  2CA7               	goto	u2261
  2756  0CA6  2CA8               	goto	u2260
  2757  0CA7                     u2261:
  2758  0CA7  2CA9               	goto	l2032
  2759  0CA8                     u2260:
  2760  0CA8  2C64               	goto	l2012
  2761  0CA9                     l2032:
  2762  0CA9  3001               	movlw	1
  2763  0CAA                     u2275:
  2764  0CAA  1003               	clrc
  2765  0CAB  0CEB               	rrf	___fltol@f1+3,f
  2766  0CAC  0CEA               	rrf	___fltol@f1+2,f
  2767  0CAD  0CE9               	rrf	___fltol@f1+1,f
  2768  0CAE  0CE8               	rrf	___fltol@f1,f
  2769  0CAF  3EFF               	addlw	-1
  2770  0CB0  1D03               	skipz
  2771  0CB1  2CAA               	goto	u2275
  2772  0CB2  3001               	movlw	1
  2773  0CB3  1683               	bsf	3,5	;RP0=1, select bank1
  2774  0CB4  1303               	bcf	3,6	;RP1=0, select bank1
  2775  0CB5  00A0               	movwf	??___fltol^(0+128)
  2776  0CB6  0820               	movf	??___fltol^(0+128),w
  2777  0CB7  1283               	bcf	3,5	;RP0=0, select bank0
  2778  0CB8  1303               	bcf	3,6	;RP1=0, select bank0
  2779  0CB9  07ED               	addwf	___fltol@exp1,f
  2780  0CBA  1D03               	btfss	3,2
  2781  0CBB  2CBD               	goto	u2281
  2782  0CBC  2CBE               	goto	u2280
  2783  0CBD                     u2281:
  2784  0CBD  2CA9               	goto	l2032
  2785  0CBE                     u2280:
  2786  0CBE  2CDE               	goto	l2042
  2787  0CBF                     l2034:
  2788  0CBF  3020               	movlw	32
  2789  0CC0  026D               	subwf	___fltol@exp1,w
  2790  0CC1  1C03               	skipc
  2791  0CC2  2CC4               	goto	u2291
  2792  0CC3  2CC5               	goto	u2290
  2793  0CC4                     u2291:
  2794  0CC4  2CD9               	goto	l471
  2795  0CC5                     u2290:
  2796  0CC5  2C64               	goto	l2012
  2797  0CC6                     l2040:
  2798  0CC6  3001               	movlw	1
  2799  0CC7  1683               	bsf	3,5	;RP0=1, select bank1
  2800  0CC8  1303               	bcf	3,6	;RP1=0, select bank1
  2801  0CC9  00A0               	movwf	??___fltol^(0+128)
  2802  0CCA                     u2305:
  2803  0CCA  1003               	clrc
  2804  0CCB  1283               	bcf	3,5	;RP0=0, select bank0
  2805  0CCC  1303               	bcf	3,6	;RP1=0, select bank0
  2806  0CCD  0DE8               	rlf	___fltol@f1,f
  2807  0CCE  0DE9               	rlf	___fltol@f1+1,f
  2808  0CCF  0DEA               	rlf	___fltol@f1+2,f
  2809  0CD0  0DEB               	rlf	___fltol@f1+3,f
  2810  0CD1  1683               	bsf	3,5	;RP0=1, select bank1
  2811  0CD2  1303               	bcf	3,6	;RP1=0, select bank1
  2812  0CD3  0BA0               	decfsz	??___fltol^(0+128),f
  2813  0CD4  2CCA               	goto	u2305
  2814  0CD5  3001               	movlw	1
  2815  0CD6  1283               	bcf	3,5	;RP0=0, select bank0
  2816  0CD7  1303               	bcf	3,6	;RP1=0, select bank0
  2817  0CD8  02ED               	subwf	___fltol@exp1,f
  2818  0CD9                     l471:
  2819  0CD9  086D               	movf	___fltol@exp1,w
  2820  0CDA  1D03               	btfss	3,2
  2821  0CDB  2CDD               	goto	u2311
  2822  0CDC  2CDE               	goto	u2310
  2823  0CDD                     u2311:
  2824  0CDD  2CC6               	goto	l2040
  2825  0CDE                     u2310:
  2826  0CDE                     l2042:
  2827  0CDE  086C               	movf	___fltol@sign1,w
  2828  0CDF  1903               	btfsc	3,2
  2829  0CE0  2CE2               	goto	u2321
  2830  0CE1  2CE3               	goto	u2320
  2831  0CE2                     u2321:
  2832  0CE2  2CEE               	goto	l474
  2833  0CE3                     u2320:
  2834  0CE3                     l2044:
  2835  0CE3  09E8               	comf	___fltol@f1,f
  2836  0CE4  09E9               	comf	___fltol@f1+1,f
  2837  0CE5  09EA               	comf	___fltol@f1+2,f
  2838  0CE6  09EB               	comf	___fltol@f1+3,f
  2839  0CE7  0AE8               	incf	___fltol@f1,f
  2840  0CE8  1903               	skipnz
  2841  0CE9  0AE9               	incf	___fltol@f1+1,f
  2842  0CEA  1903               	skipnz
  2843  0CEB  0AEA               	incf	___fltol@f1+2,f
  2844  0CEC  1903               	skipnz
  2845  0CED  0AEB               	incf	___fltol@f1+3,f
  2846  0CEE                     l474:
  2847  0CEE                     l464:
  2848  0CEE  0008               	return
  2849  0CEF                     __end_of___fltol:
  2850                           
  2851                           	psect	text9
  2852  048D                     __ptext9:	
  2853 ;; *************** function ___flmul *****************
  2854 ;; Defined at:
  2855 ;;		line 8 in file "C:\Program Files\Microchip\xc8\v2.31\pic\sources\c90\common\sprcmul.c"
  2856 ;; Parameters:    Size  Location     Type
  2857 ;;  b               4    0[BANK0 ] long 
  2858 ;;  a               4    4[BANK0 ] long 
  2859 ;; Auto vars:     Size  Location     Type
  2860 ;;  prod            4   20[BANK0 ] struct .
  2861 ;;  grs             4   14[BANK0 ] unsigned long 
  2862 ;;  temp            2   24[BANK0 ] struct .
  2863 ;;  bexp            1   19[BANK0 ] unsigned char 
  2864 ;;  aexp            1   18[BANK0 ] unsigned char 
  2865 ;;  sign            1   13[BANK0 ] unsigned char 
  2866 ;; Return value:  Size  Location     Type
  2867 ;;                  4    0[BANK0 ] unsigned char 
  2868 ;; Registers used:
  2869 ;;		wreg, status,2, status,0, btemp+1, pclath, cstack
  2870 ;; Tracked objects:
  2871 ;;		On entry : 0/0
  2872 ;;		On exit  : 0/0
  2873 ;;		Unchanged: 0/0
  2874 ;; Data sizes:     COMMON   BANK0   BANK1   BANK3   BANK2
  2875 ;;      Params:         0       8       0       0       0
  2876 ;;      Locals:         0      13       0       0       0
  2877 ;;      Temps:          0       5       0       0       0
  2878 ;;      Totals:         0      26       0       0       0
  2879 ;;Total ram usage:       26 bytes
  2880 ;; Hardware stack levels used:    1
  2881 ;; Hardware stack levels required when called:    1
  2882 ;; This function calls:
  2883 ;;		__Umul8_16
  2884 ;; This function is called by:
  2885 ;;		_main
  2886 ;; This function uses a non-reentrant model
  2887 ;;
  2888                           
  2889                           
  2890                           ;psect for function ___flmul
  2891  048D                     ___flmul:
  2892  048D                     l2382:	
  2893                           ;incstack = 0
  2894                           ; Regs used in ___flmul: [wreg+status,2+status,0+btemp+1+pclath+cstack]
  2895                           
  2896  048D  1283               	bcf	3,5	;RP0=0, select bank0
  2897  048E  1303               	bcf	3,6	;RP1=0, select bank0
  2898  048F  0823               	movf	___flmul@b+3,w
  2899  0490  3980               	andlw	128
  2900  0491  00A8               	movwf	??___flmul
  2901  0492  0828               	movf	??___flmul,w
  2902  0493  00AD               	movwf	___flmul@sign
  2903  0494                     l2384:
  2904  0494  0823               	movf	___flmul@b+3,w
  2905  0495  00A8               	movwf	??___flmul
  2906  0496  0728               	addwf	??___flmul,w
  2907  0497  00A9               	movwf	??___flmul+1
  2908  0498  0829               	movf	??___flmul+1,w
  2909  0499  00B3               	movwf	___flmul@bexp
  2910  049A                     l2386:
  2911  049A  1FA2               	btfss	___flmul@b+2,7
  2912  049B  2C9D               	goto	u3081
  2913  049C  2C9E               	goto	u3080
  2914  049D                     u3081:
  2915  049D  2C9F               	goto	l2390
  2916  049E                     u3080:
  2917  049E                     l2388:
  2918  049E  1433               	bsf	___flmul@bexp,0
  2919  049F                     l2390:
  2920  049F  0833               	movf	___flmul@bexp,w
  2921  04A0  1903               	btfsc	3,2
  2922  04A1  2CA3               	goto	u3091
  2923  04A2  2CA4               	goto	u3090
  2924  04A3                     u3091:
  2925  04A3  2CB3               	goto	l2398
  2926  04A4                     u3090:
  2927  04A4                     l2392:
  2928  04A4  0A33               	incf	___flmul@bexp,w
  2929  04A5  1D03               	btfss	3,2
  2930  04A6  2CA8               	goto	u3101
  2931  04A7  2CA9               	goto	u3100
  2932  04A8                     u3101:
  2933  04A8  2CB1               	goto	l2396
  2934  04A9                     u3100:
  2935  04A9                     l2394:
  2936  04A9  3000               	movlw	0
  2937  04AA  00A3               	movwf	___flmul@b+3
  2938  04AB  3000               	movlw	0
  2939  04AC  00A2               	movwf	___flmul@b+2
  2940  04AD  3000               	movlw	0
  2941  04AE  00A1               	movwf	___flmul@b+1
  2942  04AF  3000               	movlw	0
  2943  04B0  00A0               	movwf	___flmul@b
  2944  04B1                     l2396:
  2945  04B1  17A2               	bsf	___flmul@b+2,7
  2946  04B2  2CBB               	goto	l2400
  2947  04B3                     l2398:
  2948  04B3  3000               	movlw	0
  2949  04B4  00A3               	movwf	___flmul@b+3
  2950  04B5  3000               	movlw	0
  2951  04B6  00A2               	movwf	___flmul@b+2
  2952  04B7  3000               	movlw	0
  2953  04B8  00A1               	movwf	___flmul@b+1
  2954  04B9  3000               	movlw	0
  2955  04BA  00A0               	movwf	___flmul@b
  2956  04BB                     l2400:
  2957  04BB  0827               	movf	___flmul@a+3,w
  2958  04BC  3980               	andlw	128
  2959  04BD  00A8               	movwf	??___flmul
  2960  04BE  0828               	movf	??___flmul,w
  2961  04BF  06AD               	xorwf	___flmul@sign,f
  2962  04C0                     l2402:
  2963  04C0  0827               	movf	___flmul@a+3,w
  2964  04C1  00A8               	movwf	??___flmul
  2965  04C2  0728               	addwf	??___flmul,w
  2966  04C3  00A9               	movwf	??___flmul+1
  2967  04C4  0829               	movf	??___flmul+1,w
  2968  04C5  00B2               	movwf	___flmul@aexp
  2969  04C6                     l2404:
  2970  04C6  1FA6               	btfss	___flmul@a+2,7
  2971  04C7  2CC9               	goto	u3111
  2972  04C8  2CCA               	goto	u3110
  2973  04C9                     u3111:
  2974  04C9  2CCB               	goto	l2408
  2975  04CA                     u3110:
  2976  04CA                     l2406:
  2977  04CA  1432               	bsf	___flmul@aexp,0
  2978  04CB                     l2408:
  2979  04CB  0832               	movf	___flmul@aexp,w
  2980  04CC  1903               	btfsc	3,2
  2981  04CD  2CCF               	goto	u3121
  2982  04CE  2CD0               	goto	u3120
  2983  04CF                     u3121:
  2984  04CF  2CDF               	goto	l2416
  2985  04D0                     u3120:
  2986  04D0                     l2410:
  2987  04D0  0A32               	incf	___flmul@aexp,w
  2988  04D1  1D03               	btfss	3,2
  2989  04D2  2CD4               	goto	u3131
  2990  04D3  2CD5               	goto	u3130
  2991  04D4                     u3131:
  2992  04D4  2CDD               	goto	l2414
  2993  04D5                     u3130:
  2994  04D5                     l2412:
  2995  04D5  3000               	movlw	0
  2996  04D6  00A7               	movwf	___flmul@a+3
  2997  04D7  3000               	movlw	0
  2998  04D8  00A6               	movwf	___flmul@a+2
  2999  04D9  3000               	movlw	0
  3000  04DA  00A5               	movwf	___flmul@a+1
  3001  04DB  3000               	movlw	0
  3002  04DC  00A4               	movwf	___flmul@a
  3003  04DD                     l2414:
  3004  04DD  17A6               	bsf	___flmul@a+2,7
  3005  04DE  2CE7               	goto	l2418
  3006  04DF                     l2416:
  3007  04DF  3000               	movlw	0
  3008  04E0  00A7               	movwf	___flmul@a+3
  3009  04E1  3000               	movlw	0
  3010  04E2  00A6               	movwf	___flmul@a+2
  3011  04E3  3000               	movlw	0
  3012  04E4  00A5               	movwf	___flmul@a+1
  3013  04E5  3000               	movlw	0
  3014  04E6  00A4               	movwf	___flmul@a
  3015  04E7                     l2418:
  3016  04E7  0832               	movf	___flmul@aexp,w
  3017  04E8  1903               	btfsc	3,2
  3018  04E9  2CEB               	goto	u3141
  3019  04EA  2CEC               	goto	u3140
  3020  04EB                     u3141:
  3021  04EB  2CF1               	goto	l2422
  3022  04EC                     u3140:
  3023  04EC                     l2420:
  3024  04EC  0833               	movf	___flmul@bexp,w
  3025  04ED  1D03               	btfss	3,2
  3026  04EE  2CF0               	goto	u3151
  3027  04EF  2CF1               	goto	u3150
  3028  04F0                     u3151:
  3029  04F0  2CFA               	goto	l2426
  3030  04F1                     u3150:
  3031  04F1                     l2422:
  3032  04F1  3000               	movlw	0
  3033  04F2  00A3               	movwf	?___flmul+3
  3034  04F3  3000               	movlw	0
  3035  04F4  00A2               	movwf	?___flmul+2
  3036  04F5  3000               	movlw	0
  3037  04F6  00A1               	movwf	?___flmul+1
  3038  04F7  3000               	movlw	0
  3039  04F8  00A0               	movwf	?___flmul
  3040  04F9  2FED               	goto	l667
  3041  04FA                     l2426:
  3042  04FA  0820               	movf	___flmul@b,w
  3043  04FB  00A8               	movwf	??___flmul
  3044  04FC  0828               	movf	??___flmul,w
  3045  04FD  00F0               	movwf	__Umul8_16@multiplicand
  3046  04FE  0826               	movf	___flmul@a+2,w
  3047  04FF  120A  158A  214E  120A  118A  	fcall	__Umul8_16
  3048  0504  0871               	movf	?__Umul8_16+1,w
  3049  0505  1283               	bcf	3,5	;RP0=0, select bank0
  3050  0506  1303               	bcf	3,6	;RP1=0, select bank0
  3051  0507  00B9               	movwf	___flmul@temp+1
  3052  0508  0870               	movf	?__Umul8_16,w
  3053  0509  00B8               	movwf	___flmul@temp
  3054  050A                     l2428:
  3055  050A  0838               	movf	___flmul@temp,w
  3056  050B  00A8               	movwf	??___flmul
  3057  050C  01A9               	clrf	??___flmul+1
  3058  050D  01AA               	clrf	??___flmul+2
  3059  050E  01AB               	clrf	??___flmul+3
  3060  050F  082B               	movf	??___flmul+3,w
  3061  0510  00B1               	movwf	___flmul@grs+3
  3062  0511  082A               	movf	??___flmul+2,w
  3063  0512  00B0               	movwf	___flmul@grs+2
  3064  0513  0829               	movf	??___flmul+1,w
  3065  0514  00AF               	movwf	___flmul@grs+1
  3066  0515  0828               	movf	??___flmul,w
  3067  0516  00AE               	movwf	___flmul@grs
  3068  0517                     l2430:
  3069  0517  0839               	movf	___flmul@temp+1,w
  3070  0518  00A8               	movwf	??___flmul
  3071  0519  01A9               	clrf	??___flmul+1
  3072  051A  01AA               	clrf	??___flmul+2
  3073  051B  01AB               	clrf	??___flmul+3
  3074  051C  082B               	movf	??___flmul+3,w
  3075  051D  00B7               	movwf	___flmul@prod+3
  3076  051E  082A               	movf	??___flmul+2,w
  3077  051F  00B6               	movwf	___flmul@prod+2
  3078  0520  0829               	movf	??___flmul+1,w
  3079  0521  00B5               	movwf	___flmul@prod+1
  3080  0522  0828               	movf	??___flmul,w
  3081  0523  00B4               	movwf	___flmul@prod
  3082  0524  0821               	movf	___flmul@b+1,w
  3083  0525  00A8               	movwf	??___flmul
  3084  0526  0828               	movf	??___flmul,w
  3085  0527  00F0               	movwf	__Umul8_16@multiplicand
  3086  0528  0825               	movf	___flmul@a+1,w
  3087  0529  120A  158A  214E  120A  118A  	fcall	__Umul8_16
  3088  052E  0871               	movf	?__Umul8_16+1,w
  3089  052F  1283               	bcf	3,5	;RP0=0, select bank0
  3090  0530  1303               	bcf	3,6	;RP1=0, select bank0
  3091  0531  00B9               	movwf	___flmul@temp+1
  3092  0532  0870               	movf	?__Umul8_16,w
  3093  0533  00B8               	movwf	___flmul@temp
  3094  0534                     l2432:
  3095  0534  0838               	movf	___flmul@temp,w
  3096  0535  00A8               	movwf	??___flmul
  3097  0536  01A9               	clrf	??___flmul+1
  3098  0537  01AA               	clrf	??___flmul+2
  3099  0538  01AB               	clrf	??___flmul+3
  3100  0539  0828               	movf	??___flmul,w
  3101  053A  07AE               	addwf	___flmul@grs,f
  3102  053B  0829               	movf	??___flmul+1,w
  3103  053C  1103               	clrz
  3104  053D  1803               	skipnc
  3105  053E  3E01               	addlw	1
  3106  053F  1903               	skipnz
  3107  0540  2D42               	goto	u3161
  3108  0541  07AF               	addwf	___flmul@grs+1,f
  3109  0542                     u3161:
  3110  0542  082A               	movf	??___flmul+2,w
  3111  0543  1103               	clrz
  3112  0544  1803               	skipnc
  3113  0545  3E01               	addlw	1
  3114  0546  1903               	skipnz
  3115  0547  2D49               	goto	u3162
  3116  0548  07B0               	addwf	___flmul@grs+2,f
  3117  0549                     u3162:
  3118  0549  082B               	movf	??___flmul+3,w
  3119  054A  1103               	clrz
  3120  054B  1803               	skipnc
  3121  054C  3E01               	addlw	1
  3122  054D  1903               	skipnz
  3123  054E  2D50               	goto	u3163
  3124  054F  07B1               	addwf	___flmul@grs+3,f
  3125  0550                     u3163:
  3126  0550                     l2434:
  3127  0550  0839               	movf	___flmul@temp+1,w
  3128  0551  00A8               	movwf	??___flmul
  3129  0552  01A9               	clrf	??___flmul+1
  3130  0553  01AA               	clrf	??___flmul+2
  3131  0554  01AB               	clrf	??___flmul+3
  3132  0555  0828               	movf	??___flmul,w
  3133  0556  07B4               	addwf	___flmul@prod,f
  3134  0557  0829               	movf	??___flmul+1,w
  3135  0558  1103               	clrz
  3136  0559  1803               	skipnc
  3137  055A  3E01               	addlw	1
  3138  055B  1903               	skipnz
  3139  055C  2D5E               	goto	u3171
  3140  055D  07B5               	addwf	___flmul@prod+1,f
  3141  055E                     u3171:
  3142  055E  082A               	movf	??___flmul+2,w
  3143  055F  1103               	clrz
  3144  0560  1803               	skipnc
  3145  0561  3E01               	addlw	1
  3146  0562  1903               	skipnz
  3147  0563  2D65               	goto	u3172
  3148  0564  07B6               	addwf	___flmul@prod+2,f
  3149  0565                     u3172:
  3150  0565  082B               	movf	??___flmul+3,w
  3151  0566  1103               	clrz
  3152  0567  1803               	skipnc
  3153  0568  3E01               	addlw	1
  3154  0569  1903               	skipnz
  3155  056A  2D6C               	goto	u3173
  3156  056B  07B7               	addwf	___flmul@prod+3,f
  3157  056C                     u3173:
  3158  056C  0822               	movf	___flmul@b+2,w
  3159  056D  00A8               	movwf	??___flmul
  3160  056E  0828               	movf	??___flmul,w
  3161  056F  00F0               	movwf	__Umul8_16@multiplicand
  3162  0570  0824               	movf	___flmul@a,w
  3163  0571  120A  158A  214E  120A  118A  	fcall	__Umul8_16
  3164  0576  0871               	movf	?__Umul8_16+1,w
  3165  0577  1283               	bcf	3,5	;RP0=0, select bank0
  3166  0578  1303               	bcf	3,6	;RP1=0, select bank0
  3167  0579  00B9               	movwf	___flmul@temp+1
  3168  057A  0870               	movf	?__Umul8_16,w
  3169  057B  00B8               	movwf	___flmul@temp
  3170  057C                     l2436:
  3171  057C  0838               	movf	___flmul@temp,w
  3172  057D  00A8               	movwf	??___flmul
  3173  057E  01A9               	clrf	??___flmul+1
  3174  057F  01AA               	clrf	??___flmul+2
  3175  0580  01AB               	clrf	??___flmul+3
  3176  0581  0828               	movf	??___flmul,w
  3177  0582  07AE               	addwf	___flmul@grs,f
  3178  0583  0829               	movf	??___flmul+1,w
  3179  0584  1103               	clrz
  3180  0585  1803               	skipnc
  3181  0586  3E01               	addlw	1
  3182  0587  1903               	skipnz
  3183  0588  2D8A               	goto	u3181
  3184  0589  07AF               	addwf	___flmul@grs+1,f
  3185  058A                     u3181:
  3186  058A  082A               	movf	??___flmul+2,w
  3187  058B  1103               	clrz
  3188  058C  1803               	skipnc
  3189  058D  3E01               	addlw	1
  3190  058E  1903               	skipnz
  3191  058F  2D91               	goto	u3182
  3192  0590  07B0               	addwf	___flmul@grs+2,f
  3193  0591                     u3182:
  3194  0591  082B               	movf	??___flmul+3,w
  3195  0592  1103               	clrz
  3196  0593  1803               	skipnc
  3197  0594  3E01               	addlw	1
  3198  0595  1903               	skipnz
  3199  0596  2D98               	goto	u3183
  3200  0597  07B1               	addwf	___flmul@grs+3,f
  3201  0598                     u3183:
  3202  0598                     l2438:
  3203  0598  0839               	movf	___flmul@temp+1,w
  3204  0599  00A8               	movwf	??___flmul
  3205  059A  01A9               	clrf	??___flmul+1
  3206  059B  01AA               	clrf	??___flmul+2
  3207  059C  01AB               	clrf	??___flmul+3
  3208  059D  0828               	movf	??___flmul,w
  3209  059E  07B4               	addwf	___flmul@prod,f
  3210  059F  0829               	movf	??___flmul+1,w
  3211  05A0  1103               	clrz
  3212  05A1  1803               	skipnc
  3213  05A2  3E01               	addlw	1
  3214  05A3  1903               	skipnz
  3215  05A4  2DA6               	goto	u3191
  3216  05A5  07B5               	addwf	___flmul@prod+1,f
  3217  05A6                     u3191:
  3218  05A6  082A               	movf	??___flmul+2,w
  3219  05A7  1103               	clrz
  3220  05A8  1803               	skipnc
  3221  05A9  3E01               	addlw	1
  3222  05AA  1903               	skipnz
  3223  05AB  2DAD               	goto	u3192
  3224  05AC  07B6               	addwf	___flmul@prod+2,f
  3225  05AD                     u3192:
  3226  05AD  082B               	movf	??___flmul+3,w
  3227  05AE  1103               	clrz
  3228  05AF  1803               	skipnc
  3229  05B0  3E01               	addlw	1
  3230  05B1  1903               	skipnz
  3231  05B2  2DB4               	goto	u3193
  3232  05B3  07B7               	addwf	___flmul@prod+3,f
  3233  05B4                     u3193:
  3234  05B4                     l2440:
  3235  05B4  3008               	movlw	8
  3236  05B5  00A8               	movwf	??___flmul
  3237  05B6                     u3205:
  3238  05B6  1003               	clrc
  3239  05B7  0DAE               	rlf	___flmul@grs,f
  3240  05B8  0DAF               	rlf	___flmul@grs+1,f
  3241  05B9  0DB0               	rlf	___flmul@grs+2,f
  3242  05BA  0DB1               	rlf	___flmul@grs+3,f
  3243  05BB  0BA8               	decfsz	??___flmul,f
  3244  05BC  2DB6               	goto	u3205
  3245  05BD                     l2442:
  3246  05BD  0821               	movf	___flmul@b+1,w
  3247  05BE  00A8               	movwf	??___flmul
  3248  05BF  0828               	movf	??___flmul,w
  3249  05C0  00F0               	movwf	__Umul8_16@multiplicand
  3250  05C1  0824               	movf	___flmul@a,w
  3251  05C2  120A  158A  214E  120A  118A  	fcall	__Umul8_16
  3252  05C7  0871               	movf	?__Umul8_16+1,w
  3253  05C8  1283               	bcf	3,5	;RP0=0, select bank0
  3254  05C9  1303               	bcf	3,6	;RP1=0, select bank0
  3255  05CA  00B9               	movwf	___flmul@temp+1
  3256  05CB  0870               	movf	?__Umul8_16,w
  3257  05CC  00B8               	movwf	___flmul@temp
  3258  05CD                     l2444:
  3259  05CD  0838               	movf	___flmul@temp,w
  3260  05CE  00A8               	movwf	??___flmul
  3261  05CF  0839               	movf	___flmul@temp+1,w
  3262  05D0  00A9               	movwf	??___flmul+1
  3263  05D1  01AA               	clrf	??___flmul+2
  3264  05D2  01AB               	clrf	??___flmul+3
  3265  05D3  0828               	movf	??___flmul,w
  3266  05D4  07AE               	addwf	___flmul@grs,f
  3267  05D5  0829               	movf	??___flmul+1,w
  3268  05D6  1103               	clrz
  3269  05D7  1803               	skipnc
  3270  05D8  3E01               	addlw	1
  3271  05D9  1903               	skipnz
  3272  05DA  2DDC               	goto	u3211
  3273  05DB  07AF               	addwf	___flmul@grs+1,f
  3274  05DC                     u3211:
  3275  05DC  082A               	movf	??___flmul+2,w
  3276  05DD  1103               	clrz
  3277  05DE  1803               	skipnc
  3278  05DF  3E01               	addlw	1
  3279  05E0  1903               	skipnz
  3280  05E1  2DE3               	goto	u3212
  3281  05E2  07B0               	addwf	___flmul@grs+2,f
  3282  05E3                     u3212:
  3283  05E3  082B               	movf	??___flmul+3,w
  3284  05E4  1103               	clrz
  3285  05E5  1803               	skipnc
  3286  05E6  3E01               	addlw	1
  3287  05E7  1903               	skipnz
  3288  05E8  2DEA               	goto	u3213
  3289  05E9  07B1               	addwf	___flmul@grs+3,f
  3290  05EA                     u3213:
  3291  05EA                     l2446:
  3292  05EA  0820               	movf	___flmul@b,w
  3293  05EB  00A8               	movwf	??___flmul
  3294  05EC  0828               	movf	??___flmul,w
  3295  05ED  00F0               	movwf	__Umul8_16@multiplicand
  3296  05EE  0825               	movf	___flmul@a+1,w
  3297  05EF  120A  158A  214E  120A  118A  	fcall	__Umul8_16
  3298  05F4  0871               	movf	?__Umul8_16+1,w
  3299  05F5  1283               	bcf	3,5	;RP0=0, select bank0
  3300  05F6  1303               	bcf	3,6	;RP1=0, select bank0
  3301  05F7  00B9               	movwf	___flmul@temp+1
  3302  05F8  0870               	movf	?__Umul8_16,w
  3303  05F9  00B8               	movwf	___flmul@temp
  3304  05FA                     l2448:
  3305  05FA  0838               	movf	___flmul@temp,w
  3306  05FB  00A8               	movwf	??___flmul
  3307  05FC  0839               	movf	___flmul@temp+1,w
  3308  05FD  00A9               	movwf	??___flmul+1
  3309  05FE  01AA               	clrf	??___flmul+2
  3310  05FF  01AB               	clrf	??___flmul+3
  3311  0600  0828               	movf	??___flmul,w
  3312  0601  07AE               	addwf	___flmul@grs,f
  3313  0602  0829               	movf	??___flmul+1,w
  3314  0603  1103               	clrz
  3315  0604  1803               	skipnc
  3316  0605  3E01               	addlw	1
  3317  0606  1903               	skipnz
  3318  0607  2E09               	goto	u3221
  3319  0608  07AF               	addwf	___flmul@grs+1,f
  3320  0609                     u3221:
  3321  0609  082A               	movf	??___flmul+2,w
  3322  060A  1103               	clrz
  3323  060B  1803               	skipnc
  3324  060C  3E01               	addlw	1
  3325  060D  1903               	skipnz
  3326  060E  2E10               	goto	u3222
  3327  060F  07B0               	addwf	___flmul@grs+2,f
  3328  0610                     u3222:
  3329  0610  082B               	movf	??___flmul+3,w
  3330  0611  1103               	clrz
  3331  0612  1803               	skipnc
  3332  0613  3E01               	addlw	1
  3333  0614  1903               	skipnz
  3334  0615  2E17               	goto	u3223
  3335  0616  07B1               	addwf	___flmul@grs+3,f
  3336  0617                     u3223:
  3337  0617                     l2450:
  3338  0617  3008               	movlw	8
  3339  0618  00A8               	movwf	??___flmul
  3340  0619                     u3235:
  3341  0619  1003               	clrc
  3342  061A  0DAE               	rlf	___flmul@grs,f
  3343  061B  0DAF               	rlf	___flmul@grs+1,f
  3344  061C  0DB0               	rlf	___flmul@grs+2,f
  3345  061D  0DB1               	rlf	___flmul@grs+3,f
  3346  061E  0BA8               	decfsz	??___flmul,f
  3347  061F  2E19               	goto	u3235
  3348  0620  0820               	movf	___flmul@b,w
  3349  0621  00A8               	movwf	??___flmul
  3350  0622  0828               	movf	??___flmul,w
  3351  0623  00F0               	movwf	__Umul8_16@multiplicand
  3352  0624  0824               	movf	___flmul@a,w
  3353  0625  120A  158A  214E  120A  118A  	fcall	__Umul8_16
  3354  062A  0871               	movf	?__Umul8_16+1,w
  3355  062B  1283               	bcf	3,5	;RP0=0, select bank0
  3356  062C  1303               	bcf	3,6	;RP1=0, select bank0
  3357  062D  00B9               	movwf	___flmul@temp+1
  3358  062E  0870               	movf	?__Umul8_16,w
  3359  062F  00B8               	movwf	___flmul@temp
  3360  0630                     l2452:
  3361  0630  0838               	movf	___flmul@temp,w
  3362  0631  00A8               	movwf	??___flmul
  3363  0632  0839               	movf	___flmul@temp+1,w
  3364  0633  00A9               	movwf	??___flmul+1
  3365  0634  01AA               	clrf	??___flmul+2
  3366  0635  01AB               	clrf	??___flmul+3
  3367  0636  0828               	movf	??___flmul,w
  3368  0637  07AE               	addwf	___flmul@grs,f
  3369  0638  0829               	movf	??___flmul+1,w
  3370  0639  1103               	clrz
  3371  063A  1803               	skipnc
  3372  063B  3E01               	addlw	1
  3373  063C  1903               	skipnz
  3374  063D  2E3F               	goto	u3241
  3375  063E  07AF               	addwf	___flmul@grs+1,f
  3376  063F                     u3241:
  3377  063F  082A               	movf	??___flmul+2,w
  3378  0640  1103               	clrz
  3379  0641  1803               	skipnc
  3380  0642  3E01               	addlw	1
  3381  0643  1903               	skipnz
  3382  0644  2E46               	goto	u3242
  3383  0645  07B0               	addwf	___flmul@grs+2,f
  3384  0646                     u3242:
  3385  0646  082B               	movf	??___flmul+3,w
  3386  0647  1103               	clrz
  3387  0648  1803               	skipnc
  3388  0649  3E01               	addlw	1
  3389  064A  1903               	skipnz
  3390  064B  2E4D               	goto	u3243
  3391  064C  07B1               	addwf	___flmul@grs+3,f
  3392  064D                     u3243:
  3393  064D                     l2454:
  3394  064D  0821               	movf	___flmul@b+1,w
  3395  064E  00A8               	movwf	??___flmul
  3396  064F  0828               	movf	??___flmul,w
  3397  0650  00F0               	movwf	__Umul8_16@multiplicand
  3398  0651  0826               	movf	___flmul@a+2,w
  3399  0652  120A  158A  214E  120A  118A  	fcall	__Umul8_16
  3400  0657  0871               	movf	?__Umul8_16+1,w
  3401  0658  1283               	bcf	3,5	;RP0=0, select bank0
  3402  0659  1303               	bcf	3,6	;RP1=0, select bank0
  3403  065A  00B9               	movwf	___flmul@temp+1
  3404  065B  0870               	movf	?__Umul8_16,w
  3405  065C  00B8               	movwf	___flmul@temp
  3406  065D  0838               	movf	___flmul@temp,w
  3407  065E  00A8               	movwf	??___flmul
  3408  065F  0839               	movf	___flmul@temp+1,w
  3409  0660  00A9               	movwf	??___flmul+1
  3410  0661  01AA               	clrf	??___flmul+2
  3411  0662  01AB               	clrf	??___flmul+3
  3412  0663  0828               	movf	??___flmul,w
  3413  0664  07B4               	addwf	___flmul@prod,f
  3414  0665  0829               	movf	??___flmul+1,w
  3415  0666  1103               	clrz
  3416  0667  1803               	skipnc
  3417  0668  3E01               	addlw	1
  3418  0669  1903               	skipnz
  3419  066A  2E6C               	goto	u3251
  3420  066B  07B5               	addwf	___flmul@prod+1,f
  3421  066C                     u3251:
  3422  066C  082A               	movf	??___flmul+2,w
  3423  066D  1103               	clrz
  3424  066E  1803               	skipnc
  3425  066F  3E01               	addlw	1
  3426  0670  1903               	skipnz
  3427  0671  2E73               	goto	u3252
  3428  0672  07B6               	addwf	___flmul@prod+2,f
  3429  0673                     u3252:
  3430  0673  082B               	movf	??___flmul+3,w
  3431  0674  1103               	clrz
  3432  0675  1803               	skipnc
  3433  0676  3E01               	addlw	1
  3434  0677  1903               	skipnz
  3435  0678  2E7A               	goto	u3253
  3436  0679  07B7               	addwf	___flmul@prod+3,f
  3437  067A                     u3253:
  3438  067A                     l2456:
  3439  067A  0822               	movf	___flmul@b+2,w
  3440  067B  00A8               	movwf	??___flmul
  3441  067C  0828               	movf	??___flmul,w
  3442  067D  00F0               	movwf	__Umul8_16@multiplicand
  3443  067E  0825               	movf	___flmul@a+1,w
  3444  067F  120A  158A  214E  120A  118A  	fcall	__Umul8_16
  3445  0684  0871               	movf	?__Umul8_16+1,w
  3446  0685  1283               	bcf	3,5	;RP0=0, select bank0
  3447  0686  1303               	bcf	3,6	;RP1=0, select bank0
  3448  0687  00B9               	movwf	___flmul@temp+1
  3449  0688  0870               	movf	?__Umul8_16,w
  3450  0689  00B8               	movwf	___flmul@temp
  3451  068A                     l2458:
  3452  068A  0838               	movf	___flmul@temp,w
  3453  068B  00A8               	movwf	??___flmul
  3454  068C  0839               	movf	___flmul@temp+1,w
  3455  068D  00A9               	movwf	??___flmul+1
  3456  068E  01AA               	clrf	??___flmul+2
  3457  068F  01AB               	clrf	??___flmul+3
  3458  0690  0828               	movf	??___flmul,w
  3459  0691  07B4               	addwf	___flmul@prod,f
  3460  0692  0829               	movf	??___flmul+1,w
  3461  0693  1103               	clrz
  3462  0694  1803               	skipnc
  3463  0695  3E01               	addlw	1
  3464  0696  1903               	skipnz
  3465  0697  2E99               	goto	u3261
  3466  0698  07B5               	addwf	___flmul@prod+1,f
  3467  0699                     u3261:
  3468  0699  082A               	movf	??___flmul+2,w
  3469  069A  1103               	clrz
  3470  069B  1803               	skipnc
  3471  069C  3E01               	addlw	1
  3472  069D  1903               	skipnz
  3473  069E  2EA0               	goto	u3262
  3474  069F  07B6               	addwf	___flmul@prod+2,f
  3475  06A0                     u3262:
  3476  06A0  082B               	movf	??___flmul+3,w
  3477  06A1  1103               	clrz
  3478  06A2  1803               	skipnc
  3479  06A3  3E01               	addlw	1
  3480  06A4  1903               	skipnz
  3481  06A5  2EA7               	goto	u3263
  3482  06A6  07B7               	addwf	___flmul@prod+3,f
  3483  06A7                     u3263:
  3484  06A7  0822               	movf	___flmul@b+2,w
  3485  06A8  00A8               	movwf	??___flmul
  3486  06A9  0828               	movf	??___flmul,w
  3487  06AA  00F0               	movwf	__Umul8_16@multiplicand
  3488  06AB  0826               	movf	___flmul@a+2,w
  3489  06AC  120A  158A  214E  120A  118A  	fcall	__Umul8_16
  3490  06B1  0871               	movf	?__Umul8_16+1,w
  3491  06B2  1283               	bcf	3,5	;RP0=0, select bank0
  3492  06B3  1303               	bcf	3,6	;RP1=0, select bank0
  3493  06B4  00B9               	movwf	___flmul@temp+1
  3494  06B5  0870               	movf	?__Umul8_16,w
  3495  06B6  00B8               	movwf	___flmul@temp
  3496  06B7                     l2460:
  3497  06B7  0838               	movf	___flmul@temp,w
  3498  06B8  00A8               	movwf	??___flmul
  3499  06B9  0839               	movf	___flmul@temp+1,w
  3500  06BA  00A9               	movwf	??___flmul+1
  3501  06BB  01AA               	clrf	??___flmul+2
  3502  06BC  01AB               	clrf	??___flmul+3
  3503  06BD  3008               	movlw	8
  3504  06BE                     u3275:
  3505  06BE  1003               	clrc
  3506  06BF  0DA8               	rlf	??___flmul,f
  3507  06C0  0DA9               	rlf	??___flmul+1,f
  3508  06C1  0DAA               	rlf	??___flmul+2,f
  3509  06C2  0DAB               	rlf	??___flmul+3,f
  3510  06C3                     u3270:
  3511  06C3  3EFF               	addlw	-1
  3512  06C4  1D03               	skipz
  3513  06C5  2EBE               	goto	u3275
  3514  06C6  0828               	movf	??___flmul,w
  3515  06C7  07B4               	addwf	___flmul@prod,f
  3516  06C8  0829               	movf	??___flmul+1,w
  3517  06C9  1103               	clrz
  3518  06CA  1803               	skipnc
  3519  06CB  3E01               	addlw	1
  3520  06CC  1903               	skipnz
  3521  06CD  2ECF               	goto	u3281
  3522  06CE  07B5               	addwf	___flmul@prod+1,f
  3523  06CF                     u3281:
  3524  06CF  082A               	movf	??___flmul+2,w
  3525  06D0  1103               	clrz
  3526  06D1  1803               	skipnc
  3527  06D2  3E01               	addlw	1
  3528  06D3  1903               	skipnz
  3529  06D4  2ED6               	goto	u3282
  3530  06D5  07B6               	addwf	___flmul@prod+2,f
  3531  06D6                     u3282:
  3532  06D6  082B               	movf	??___flmul+3,w
  3533  06D7  1103               	clrz
  3534  06D8  1803               	skipnc
  3535  06D9  3E01               	addlw	1
  3536  06DA  1903               	skipnz
  3537  06DB  2EDD               	goto	u3283
  3538  06DC  07B7               	addwf	___flmul@prod+3,f
  3539  06DD                     u3283:
  3540  06DD                     l2462:
  3541  06DD  082E               	movf	___flmul@grs,w
  3542  06DE  00A8               	movwf	??___flmul
  3543  06DF  082F               	movf	___flmul@grs+1,w
  3544  06E0  00A9               	movwf	??___flmul+1
  3545  06E1  0830               	movf	___flmul@grs+2,w
  3546  06E2  00AA               	movwf	??___flmul+2
  3547  06E3  0831               	movf	___flmul@grs+3,w
  3548  06E4  00AB               	movwf	??___flmul+3
  3549  06E5  3018               	movlw	24
  3550  06E6                     u3295:
  3551  06E6  1003               	clrc
  3552  06E7  0CAB               	rrf	??___flmul+3,f
  3553  06E8  0CAA               	rrf	??___flmul+2,f
  3554  06E9  0CA9               	rrf	??___flmul+1,f
  3555  06EA  0CA8               	rrf	??___flmul,f
  3556  06EB                     u3290:
  3557  06EB  3EFF               	addlw	-1
  3558  06EC  1D03               	skipz
  3559  06ED  2EE6               	goto	u3295
  3560  06EE  0828               	movf	??___flmul,w
  3561  06EF  07B4               	addwf	___flmul@prod,f
  3562  06F0  0829               	movf	??___flmul+1,w
  3563  06F1  1103               	clrz
  3564  06F2  1803               	skipnc
  3565  06F3  3E01               	addlw	1
  3566  06F4  1903               	skipnz
  3567  06F5  2EF7               	goto	u3301
  3568  06F6  07B5               	addwf	___flmul@prod+1,f
  3569  06F7                     u3301:
  3570  06F7  082A               	movf	??___flmul+2,w
  3571  06F8  1103               	clrz
  3572  06F9  1803               	skipnc
  3573  06FA  3E01               	addlw	1
  3574  06FB  1903               	skipnz
  3575  06FC  2EFE               	goto	u3302
  3576  06FD  07B6               	addwf	___flmul@prod+2,f
  3577  06FE                     u3302:
  3578  06FE  082B               	movf	??___flmul+3,w
  3579  06FF  1103               	clrz
  3580  0700  1803               	skipnc
  3581  0701  3E01               	addlw	1
  3582  0702  1903               	skipnz
  3583  0703  2F05               	goto	u3303
  3584  0704  07B7               	addwf	___flmul@prod+3,f
  3585  0705                     u3303:
  3586  0705                     l2464:
  3587  0705  3008               	movlw	8
  3588  0706  00A8               	movwf	??___flmul
  3589  0707                     u3315:
  3590  0707  1003               	clrc
  3591  0708  0DAE               	rlf	___flmul@grs,f
  3592  0709  0DAF               	rlf	___flmul@grs+1,f
  3593  070A  0DB0               	rlf	___flmul@grs+2,f
  3594  070B  0DB1               	rlf	___flmul@grs+3,f
  3595  070C  0BA8               	decfsz	??___flmul,f
  3596  070D  2F07               	goto	u3315
  3597  070E                     l2466:
  3598  070E  0833               	movf	___flmul@bexp,w
  3599  070F  0732               	addwf	___flmul@aexp,w
  3600  0710  00A8               	movwf	??___flmul
  3601  0711  01A9               	clrf	??___flmul+1
  3602  0712  0DA9               	rlf	??___flmul+1,f
  3603  0713  0828               	movf	??___flmul,w
  3604  0714  3E82               	addlw	130
  3605  0715  00B8               	movwf	___flmul@temp
  3606  0716  0829               	movf	??___flmul+1,w
  3607  0717  1803               	skipnc
  3608  0718  3E01               	addlw	1
  3609  0719  3EFF               	addlw	255
  3610  071A  00B9               	movwf	___flmul@temp+1
  3611  071B  2F39               	goto	l2478
  3612  071C                     l2468:
  3613  071C  3001               	movlw	1
  3614  071D  00A8               	movwf	??___flmul
  3615  071E                     u3325:
  3616  071E  1003               	clrc
  3617  071F  0DB4               	rlf	___flmul@prod,f
  3618  0720  0DB5               	rlf	___flmul@prod+1,f
  3619  0721  0DB6               	rlf	___flmul@prod+2,f
  3620  0722  0DB7               	rlf	___flmul@prod+3,f
  3621  0723  0BA8               	decfsz	??___flmul,f
  3622  0724  2F1E               	goto	u3325
  3623  0725                     l2470:
  3624  0725  1FB1               	btfss	___flmul@grs+3,7
  3625  0726  2F28               	goto	u3331
  3626  0727  2F29               	goto	u3330
  3627  0728                     u3331:
  3628  0728  2F2A               	goto	l2474
  3629  0729                     u3330:
  3630  0729                     l2472:
  3631  0729  1434               	bsf	___flmul@prod,0
  3632  072A                     l2474:
  3633  072A  3001               	movlw	1
  3634  072B  00A8               	movwf	??___flmul
  3635  072C                     u3345:
  3636  072C  1003               	clrc
  3637  072D  0DAE               	rlf	___flmul@grs,f
  3638  072E  0DAF               	rlf	___flmul@grs+1,f
  3639  072F  0DB0               	rlf	___flmul@grs+2,f
  3640  0730  0DB1               	rlf	___flmul@grs+3,f
  3641  0731  0BA8               	decfsz	??___flmul,f
  3642  0732  2F2C               	goto	u3345
  3643  0733                     l2476:
  3644  0733  30FF               	movlw	255
  3645  0734  07B8               	addwf	___flmul@temp,f
  3646  0735  1803               	skipnc
  3647  0736  0AB9               	incf	___flmul@temp+1,f
  3648  0737  30FF               	movlw	255
  3649  0738  07B9               	addwf	___flmul@temp+1,f
  3650  0739                     l2478:
  3651  0739  1FB6               	btfss	___flmul@prod+2,7
  3652  073A  2F3C               	goto	u3351
  3653  073B  2F3D               	goto	u3350
  3654  073C                     u3351:
  3655  073C  2F1C               	goto	l2468
  3656  073D                     u3350:
  3657  073D                     l2480:
  3658  073D  01B2               	clrf	___flmul@aexp
  3659  073E                     l2482:
  3660  073E  1FB1               	btfss	___flmul@grs+3,7
  3661  073F  2F41               	goto	u3361
  3662  0740  2F42               	goto	u3360
  3663  0741                     u3361:
  3664  0741  2F5E               	goto	l2490
  3665  0742                     u3360:
  3666  0742                     l2484:
  3667  0742  30FF               	movlw	255
  3668  0743  052E               	andwf	___flmul@grs,w
  3669  0744  00A8               	movwf	??___flmul
  3670  0745  30FF               	movlw	255
  3671  0746  052F               	andwf	___flmul@grs+1,w
  3672  0747  00A9               	movwf	??___flmul+1
  3673  0748  30FF               	movlw	255
  3674  0749  0530               	andwf	___flmul@grs+2,w
  3675  074A  00AA               	movwf	??___flmul+2
  3676  074B  307F               	movlw	127
  3677  074C  0531               	andwf	___flmul@grs+3,w
  3678  074D  00AB               	movwf	??___flmul+3
  3679  074E  082B               	movf	??___flmul+3,w
  3680  074F  042A               	iorwf	??___flmul+2,w
  3681  0750  0429               	iorwf	??___flmul+1,w
  3682  0751  0428               	iorwf	??___flmul,w
  3683  0752  1903               	skipnz
  3684  0753  2F55               	goto	u3371
  3685  0754  2F56               	goto	u3370
  3686  0755                     u3371:
  3687  0755  2F59               	goto	l673
  3688  0756                     u3370:
  3689  0756                     l2486:
  3690  0756  01B2               	clrf	___flmul@aexp
  3691  0757  0AB2               	incf	___flmul@aexp,f
  3692  0758  2F5E               	goto	l2490
  3693  0759                     l673:
  3694  0759  1C34               	btfss	___flmul@prod,0
  3695  075A  2F5C               	goto	u3381
  3696  075B  2F5D               	goto	u3380
  3697  075C                     u3381:
  3698  075C  2F5E               	goto	l2490
  3699  075D                     u3380:
  3700  075D  2F56               	goto	l2486
  3701  075E                     l2490:
  3702  075E  0832               	movf	___flmul@aexp,w
  3703  075F  1903               	btfsc	3,2
  3704  0760  2F62               	goto	u3391
  3705  0761  2F63               	goto	u3390
  3706  0762                     u3391:
  3707  0762  2F94               	goto	l2500
  3708  0763                     u3390:
  3709  0763                     l2492:
  3710  0763  3001               	movlw	1
  3711  0764  07B4               	addwf	___flmul@prod,f
  3712  0765  3000               	movlw	0
  3713  0766  1803               	skipnc
  3714  0767  3001               	movlw	1
  3715  0768  07B5               	addwf	___flmul@prod+1,f
  3716  0769  3000               	movlw	0
  3717  076A  1803               	skipnc
  3718  076B  3001               	movlw	1
  3719  076C  07B6               	addwf	___flmul@prod+2,f
  3720  076D  3000               	movlw	0
  3721  076E  1803               	skipnc
  3722  076F  3001               	movlw	1
  3723  0770  07B7               	addwf	___flmul@prod+3,f
  3724  0771                     l2494:
  3725  0771  1C37               	btfss	___flmul@prod+3,0
  3726  0772  2F74               	goto	u3401
  3727  0773  2F75               	goto	u3400
  3728  0774                     u3401:
  3729  0774  2F94               	goto	l2500
  3730  0775                     u3400:
  3731  0775                     l2496:
  3732  0775  0834               	movf	___flmul@prod,w
  3733  0776  00A8               	movwf	??___flmul
  3734  0777  0835               	movf	___flmul@prod+1,w
  3735  0778  00A9               	movwf	??___flmul+1
  3736  0779  0836               	movf	___flmul@prod+2,w
  3737  077A  00AA               	movwf	??___flmul+2
  3738  077B  0837               	movf	___flmul@prod+3,w
  3739  077C  00AB               	movwf	??___flmul+3
  3740  077D  3001               	movlw	1
  3741  077E  00AC               	movwf	??___flmul+4
  3742  077F                     u3415:
  3743  077F  0D2B               	rlf	??___flmul+3,w
  3744  0780  0CAB               	rrf	??___flmul+3,f
  3745  0781  0CAA               	rrf	??___flmul+2,f
  3746  0782  0CA9               	rrf	??___flmul+1,f
  3747  0783  0CA8               	rrf	??___flmul,f
  3748  0784                     u3410:
  3749  0784  0BAC               	decfsz	??___flmul+4,f
  3750  0785  2F7F               	goto	u3415
  3751  0786  082B               	movf	??___flmul+3,w
  3752  0787  00B7               	movwf	___flmul@prod+3
  3753  0788  082A               	movf	??___flmul+2,w
  3754  0789  00B6               	movwf	___flmul@prod+2
  3755  078A  0829               	movf	??___flmul+1,w
  3756  078B  00B5               	movwf	___flmul@prod+1
  3757  078C  0828               	movf	??___flmul,w
  3758  078D  00B4               	movwf	___flmul@prod
  3759  078E                     l2498:
  3760  078E  3001               	movlw	1
  3761  078F  07B8               	addwf	___flmul@temp,f
  3762  0790  1803               	skipnc
  3763  0791  0AB9               	incf	___flmul@temp+1,f
  3764  0792  3000               	movlw	0
  3765  0793  07B9               	addwf	___flmul@temp+1,f
  3766  0794                     l2500:
  3767  0794  0839               	movf	___flmul@temp+1,w
  3768  0795  3A80               	xorlw	128
  3769  0796  00FF               	movwf	btemp+1
  3770  0797  3080               	movlw	128
  3771  0798  027F               	subwf	btemp+1,w
  3772  0799  1D03               	skipz
  3773  079A  2F9D               	goto	u3425
  3774  079B  30FF               	movlw	255
  3775  079C  0238               	subwf	___flmul@temp,w
  3776  079D                     u3425:
  3777  079D  1C03               	skipc
  3778  079E  2FA0               	goto	u3421
  3779  079F  2FA1               	goto	u3420
  3780  07A0                     u3421:
  3781  07A0  2FAC               	goto	l2504
  3782  07A1                     u3420:
  3783  07A1                     l2502:
  3784  07A1  307F               	movlw	127
  3785  07A2  1283               	bcf	3,5	;RP0=0, select bank0
  3786  07A3  1303               	bcf	3,6	;RP1=0, select bank0
  3787  07A4  00B7               	movwf	___flmul@prod+3
  3788  07A5  3080               	movlw	128
  3789  07A6  00B6               	movwf	___flmul@prod+2
  3790  07A7  3000               	movlw	0
  3791  07A8  00B5               	movwf	___flmul@prod+1
  3792  07A9  3000               	movlw	0
  3793  07AA  00B4               	movwf	___flmul@prod
  3794  07AB  2FE1               	goto	l679
  3795  07AC                     l2504:
  3796  07AC  1283               	bcf	3,5	;RP0=0, select bank0
  3797  07AD  1303               	bcf	3,6	;RP1=0, select bank0
  3798  07AE  0839               	movf	___flmul@temp+1,w
  3799  07AF  3A80               	xorlw	128
  3800  07B0  00FF               	movwf	btemp+1
  3801  07B1  3080               	movlw	128
  3802  07B2  027F               	subwf	btemp+1,w
  3803  07B3  1D03               	skipz
  3804  07B4  2FB7               	goto	u3435
  3805  07B5  3001               	movlw	1
  3806  07B6  0238               	subwf	___flmul@temp,w
  3807  07B7                     u3435:
  3808  07B7  1803               	skipnc
  3809  07B8  2FBA               	goto	u3431
  3810  07B9  2FBB               	goto	u3430
  3811  07BA                     u3431:
  3812  07BA  2FC7               	goto	l2510
  3813  07BB                     u3430:
  3814  07BB                     l2506:
  3815  07BB  3000               	movlw	0
  3816  07BC  1283               	bcf	3,5	;RP0=0, select bank0
  3817  07BD  1303               	bcf	3,6	;RP1=0, select bank0
  3818  07BE  00B7               	movwf	___flmul@prod+3
  3819  07BF  3000               	movlw	0
  3820  07C0  00B6               	movwf	___flmul@prod+2
  3821  07C1  3000               	movlw	0
  3822  07C2  00B5               	movwf	___flmul@prod+1
  3823  07C3  3000               	movlw	0
  3824  07C4  00B4               	movwf	___flmul@prod
  3825  07C5                     l2508:
  3826  07C5  01AD               	clrf	___flmul@sign
  3827  07C6  2FE1               	goto	l679
  3828  07C7                     l2510:
  3829  07C7  1283               	bcf	3,5	;RP0=0, select bank0
  3830  07C8  1303               	bcf	3,6	;RP1=0, select bank0
  3831  07C9  0838               	movf	___flmul@temp,w
  3832  07CA  00A8               	movwf	??___flmul
  3833  07CB  0828               	movf	??___flmul,w
  3834  07CC  00B3               	movwf	___flmul@bexp
  3835  07CD  30FF               	movlw	255
  3836  07CE  05B4               	andwf	___flmul@prod,f
  3837  07CF  30FF               	movlw	255
  3838  07D0  05B5               	andwf	___flmul@prod+1,f
  3839  07D1  307F               	movlw	127
  3840  07D2  05B6               	andwf	___flmul@prod+2,f
  3841  07D3  3000               	movlw	0
  3842  07D4  05B7               	andwf	___flmul@prod+3,f
  3843  07D5                     l2512:
  3844  07D5  1C33               	btfss	___flmul@bexp,0
  3845  07D6  2FD8               	goto	u3441
  3846  07D7  2FD9               	goto	u3440
  3847  07D8                     u3441:
  3848  07D8  2FDA               	goto	l2516
  3849  07D9                     u3440:
  3850  07D9                     l2514:
  3851  07D9  17B6               	bsf	___flmul@prod+2,7
  3852  07DA                     l2516:
  3853  07DA  0833               	movf	___flmul@bexp,w
  3854  07DB  00A8               	movwf	??___flmul
  3855  07DC  1003               	clrc
  3856  07DD  0C28               	rrf	??___flmul,w
  3857  07DE  00A9               	movwf	??___flmul+1
  3858  07DF  0829               	movf	??___flmul+1,w
  3859  07E0  00B7               	movwf	___flmul@prod+3
  3860  07E1                     l679:
  3861  07E1  082D               	movf	___flmul@sign,w
  3862  07E2  00A8               	movwf	??___flmul
  3863  07E3  0828               	movf	??___flmul,w
  3864  07E4  04B7               	iorwf	___flmul@prod+3,f
  3865  07E5                     l2518:
  3866  07E5  0837               	movf	___flmul@prod+3,w
  3867  07E6  00A3               	movwf	?___flmul+3
  3868  07E7  0836               	movf	___flmul@prod+2,w
  3869  07E8  00A2               	movwf	?___flmul+2
  3870  07E9  0835               	movf	___flmul@prod+1,w
  3871  07EA  00A1               	movwf	?___flmul+1
  3872  07EB  0834               	movf	___flmul@prod,w
  3873  07EC  00A0               	movwf	?___flmul
  3874  07ED                     l667:
  3875  07ED  0008               	return
  3876  07EE                     __end_of___flmul:
  3877                           
  3878                           	psect	text10
  3879  094E                     __ptext10:	
  3880 ;; *************** function __Umul8_16 *****************
  3881 ;; Defined at:
  3882 ;;		line 4 in file "C:\Program Files\Microchip\xc8\v2.31\pic\sources\c90\common\Umul8_16.c"
  3883 ;; Parameters:    Size  Location     Type
  3884 ;;  multiplier      1    wreg     unsigned char 
  3885 ;;  multiplicand    1    0[COMMON] unsigned char 
  3886 ;; Auto vars:     Size  Location     Type
  3887 ;;  multiplier      1    8[COMMON] unsigned char 
  3888 ;;  word_mpld       2    6[COMMON] unsigned int 
  3889 ;;  product         2    4[COMMON] unsigned int 
  3890 ;; Return value:  Size  Location     Type
  3891 ;;                  2    0[COMMON] unsigned int 
  3892 ;; Registers used:
  3893 ;;		wreg, status,2, status,0
  3894 ;; Tracked objects:
  3895 ;;		On entry : 0/0
  3896 ;;		On exit  : 0/0
  3897 ;;		Unchanged: 0/0
  3898 ;; Data sizes:     COMMON   BANK0   BANK1   BANK3   BANK2
  3899 ;;      Params:         2       0       0       0       0
  3900 ;;      Locals:         5       0       0       0       0
  3901 ;;      Temps:          2       0       0       0       0
  3902 ;;      Totals:         9       0       0       0       0
  3903 ;;Total ram usage:        9 bytes
  3904 ;; Hardware stack levels used:    1
  3905 ;; This function calls:
  3906 ;;		Nothing
  3907 ;; This function is called by:
  3908 ;;		___flmul
  3909 ;; This function uses a non-reentrant model
  3910 ;;
  3911                           
  3912                           
  3913                           ;psect for function __Umul8_16
  3914  094E                     __Umul8_16:
  3915                           
  3916                           ;incstack = 0
  3917                           ; Regs used in __Umul8_16: [wreg+status,2+status,0]
  3918                           ;__Umul8_16@multiplier stored from wreg
  3919  094E  00F8               	movwf	__Umul8_16@multiplier
  3920  094F                     l1904:
  3921  094F  01F4               	clrf	__Umul8_16@product
  3922  0950  01F5               	clrf	__Umul8_16@product+1
  3923  0951                     l1906:
  3924  0951  0870               	movf	__Umul8_16@multiplicand,w
  3925  0952  00F2               	movwf	??__Umul8_16
  3926  0953  01F3               	clrf	??__Umul8_16+1
  3927  0954  0872               	movf	??__Umul8_16,w
  3928  0955  00F6               	movwf	__Umul8_16@word_mpld
  3929  0956  0873               	movf	??__Umul8_16+1,w
  3930  0957  00F7               	movwf	__Umul8_16@word_mpld+1
  3931  0958                     l1908:
  3932  0958  1C78               	btfss	__Umul8_16@multiplier,0
  3933  0959  295B               	goto	u2141
  3934  095A  295C               	goto	u2140
  3935  095B                     u2141:
  3936  095B  2962               	goto	l686
  3937  095C                     u2140:
  3938  095C                     l1910:
  3939  095C  0876               	movf	__Umul8_16@word_mpld,w
  3940  095D  07F4               	addwf	__Umul8_16@product,f
  3941  095E  1803               	skipnc
  3942  095F  0AF5               	incf	__Umul8_16@product+1,f
  3943  0960  0877               	movf	__Umul8_16@word_mpld+1,w
  3944  0961  07F5               	addwf	__Umul8_16@product+1,f
  3945  0962                     l686:
  3946  0962  3001               	movlw	1
  3947  0963                     u2155:
  3948  0963  1003               	clrc
  3949  0964  0DF6               	rlf	__Umul8_16@word_mpld,f
  3950  0965  0DF7               	rlf	__Umul8_16@word_mpld+1,f
  3951  0966  3EFF               	addlw	-1
  3952  0967  1D03               	skipz
  3953  0968  2963               	goto	u2155
  3954  0969  1003               	clrc
  3955  096A  0CF8               	rrf	__Umul8_16@multiplier,f
  3956  096B                     l1912:
  3957  096B  0878               	movf	__Umul8_16@multiplier,w
  3958  096C  1D03               	btfss	3,2
  3959  096D  296F               	goto	u2161
  3960  096E  2970               	goto	u2160
  3961  096F                     u2161:
  3962  096F  2958               	goto	l1908
  3963  0970                     u2160:
  3964  0970                     l1914:
  3965  0970  0875               	movf	__Umul8_16@product+1,w
  3966  0971  00F1               	movwf	?__Umul8_16+1
  3967  0972  0874               	movf	__Umul8_16@product,w
  3968  0973  00F0               	movwf	?__Umul8_16
  3969  0974                     l688:
  3970  0974  0008               	return
  3971  0975                     __end_of__Umul8_16:
  3972                           
  3973                           	psect	text11
  3974  0028                     __ptext11:	
  3975 ;; *************** function ___fldiv *****************
  3976 ;; Defined at:
  3977 ;;		line 8 in file "C:\Program Files\Microchip\xc8\v2.31\pic\sources\c90\common\sprcdiv.c"
  3978 ;; Parameters:    Size  Location     Type
  3979 ;;  a               4   26[BANK0 ] unsigned int 
  3980 ;;  b               4   30[BANK0 ] unsigned int 
  3981 ;; Auto vars:     Size  Location     Type
  3982 ;;  grs             4   46[BANK0 ] unsigned long 
  3983 ;;  rem             4   39[BANK0 ] unsigned long 
  3984 ;;  new_exp         2   44[BANK0 ] int 
  3985 ;;  aexp            1   51[BANK0 ] unsigned char 
  3986 ;;  bexp            1   50[BANK0 ] unsigned char 
  3987 ;;  sign            1   43[BANK0 ] unsigned char 
  3988 ;; Return value:  Size  Location     Type
  3989 ;;                  4   26[BANK0 ] unsigned char 
  3990 ;; Registers used:
  3991 ;;		wreg, status,2, status,0, btemp+1
  3992 ;; Tracked objects:
  3993 ;;		On entry : 0/0
  3994 ;;		On exit  : 0/0
  3995 ;;		Unchanged: 0/0
  3996 ;; Data sizes:     COMMON   BANK0   BANK1   BANK3   BANK2
  3997 ;;      Params:         0       8       0       0       0
  3998 ;;      Locals:         0      13       0       0       0
  3999 ;;      Temps:          0       5       0       0       0
  4000 ;;      Totals:         0      26       0       0       0
  4001 ;;Total ram usage:       26 bytes
  4002 ;; Hardware stack levels used:    1
  4003 ;; This function calls:
  4004 ;;		Nothing
  4005 ;; This function is called by:
  4006 ;;		_main
  4007 ;; This function uses a non-reentrant model
  4008 ;;
  4009                           
  4010                           
  4011                           ;psect for function ___fldiv
  4012  0028                     ___fldiv:
  4013  0028                     l2240:	
  4014                           ;incstack = 0
  4015                           ; Regs used in ___fldiv: [wreg+status,2+status,0+btemp+1]
  4016                           
  4017  0028  1283               	bcf	3,5	;RP0=0, select bank0
  4018  0029  1303               	bcf	3,6	;RP1=0, select bank0
  4019  002A  0841               	movf	___fldiv@b+3,w
  4020  002B  3980               	andlw	128
  4021  002C  00C2               	movwf	??___fldiv
  4022  002D  0842               	movf	??___fldiv,w
  4023  002E  00CB               	movwf	___fldiv@sign
  4024  002F                     l2242:
  4025  002F  0841               	movf	___fldiv@b+3,w
  4026  0030  00C2               	movwf	??___fldiv
  4027  0031  0742               	addwf	??___fldiv,w
  4028  0032  00C3               	movwf	??___fldiv+1
  4029  0033  0843               	movf	??___fldiv+1,w
  4030  0034  00D2               	movwf	___fldiv@bexp
  4031  0035                     l2244:
  4032  0035  1FC0               	btfss	___fldiv@b+2,7
  4033  0036  2838               	goto	u2791
  4034  0037  2839               	goto	u2790
  4035  0038                     u2791:
  4036  0038  283A               	goto	l2248
  4037  0039                     u2790:
  4038  0039                     l2246:
  4039  0039  1452               	bsf	___fldiv@bexp,0
  4040  003A                     l2248:
  4041  003A  0852               	movf	___fldiv@bexp,w
  4042  003B  1903               	btfsc	3,2
  4043  003C  283E               	goto	u2801
  4044  003D  283F               	goto	u2800
  4045  003E                     u2801:
  4046  003E  284F               	goto	l2258
  4047  003F                     u2800:
  4048  003F                     l2250:
  4049  003F  0A52               	incf	___fldiv@bexp,w
  4050  0040  1D03               	btfss	3,2
  4051  0041  2843               	goto	u2811
  4052  0042  2844               	goto	u2810
  4053  0043                     u2811:
  4054  0043  284C               	goto	l2254
  4055  0044                     u2810:
  4056  0044                     l2252:
  4057  0044  3000               	movlw	0
  4058  0045  00C1               	movwf	___fldiv@b+3
  4059  0046  3000               	movlw	0
  4060  0047  00C0               	movwf	___fldiv@b+2
  4061  0048  3000               	movlw	0
  4062  0049  00BF               	movwf	___fldiv@b+1
  4063  004A  3000               	movlw	0
  4064  004B  00BE               	movwf	___fldiv@b
  4065  004C                     l2254:
  4066  004C  17C0               	bsf	___fldiv@b+2,7
  4067  004D                     l2256:
  4068  004D  01C1               	clrf	___fldiv@b+3
  4069  004E  2857               	goto	l2260
  4070  004F                     l2258:
  4071  004F  3000               	movlw	0
  4072  0050  00C1               	movwf	___fldiv@b+3
  4073  0051  3000               	movlw	0
  4074  0052  00C0               	movwf	___fldiv@b+2
  4075  0053  3000               	movlw	0
  4076  0054  00BF               	movwf	___fldiv@b+1
  4077  0055  3000               	movlw	0
  4078  0056  00BE               	movwf	___fldiv@b
  4079  0057                     l2260:
  4080  0057  083D               	movf	___fldiv@a+3,w
  4081  0058  3980               	andlw	128
  4082  0059  00C2               	movwf	??___fldiv
  4083  005A  0842               	movf	??___fldiv,w
  4084  005B  06CB               	xorwf	___fldiv@sign,f
  4085  005C                     l2262:
  4086  005C  083D               	movf	___fldiv@a+3,w
  4087  005D  00C2               	movwf	??___fldiv
  4088  005E  0742               	addwf	??___fldiv,w
  4089  005F  00C3               	movwf	??___fldiv+1
  4090  0060  0843               	movf	??___fldiv+1,w
  4091  0061  00D3               	movwf	___fldiv@aexp
  4092  0062                     l2264:
  4093  0062  1FBC               	btfss	___fldiv@a+2,7
  4094  0063  2865               	goto	u2821
  4095  0064  2866               	goto	u2820
  4096  0065                     u2821:
  4097  0065  2867               	goto	l2268
  4098  0066                     u2820:
  4099  0066                     l2266:
  4100  0066  1453               	bsf	___fldiv@aexp,0
  4101  0067                     l2268:
  4102  0067  0853               	movf	___fldiv@aexp,w
  4103  0068  1903               	btfsc	3,2
  4104  0069  286B               	goto	u2831
  4105  006A  286C               	goto	u2830
  4106  006B                     u2831:
  4107  006B  287C               	goto	l2278
  4108  006C                     u2830:
  4109  006C                     l2270:
  4110  006C  0A53               	incf	___fldiv@aexp,w
  4111  006D  1D03               	btfss	3,2
  4112  006E  2870               	goto	u2841
  4113  006F  2871               	goto	u2840
  4114  0070                     u2841:
  4115  0070  2879               	goto	l2274
  4116  0071                     u2840:
  4117  0071                     l2272:
  4118  0071  3000               	movlw	0
  4119  0072  00BD               	movwf	___fldiv@a+3
  4120  0073  3000               	movlw	0
  4121  0074  00BC               	movwf	___fldiv@a+2
  4122  0075  3000               	movlw	0
  4123  0076  00BB               	movwf	___fldiv@a+1
  4124  0077  3000               	movlw	0
  4125  0078  00BA               	movwf	___fldiv@a
  4126  0079                     l2274:
  4127  0079  17BC               	bsf	___fldiv@a+2,7
  4128  007A                     l2276:
  4129  007A  01BD               	clrf	___fldiv@a+3
  4130  007B  2884               	goto	l627
  4131  007C                     l2278:
  4132  007C  3000               	movlw	0
  4133  007D  00BD               	movwf	___fldiv@a+3
  4134  007E  3000               	movlw	0
  4135  007F  00BC               	movwf	___fldiv@a+2
  4136  0080  3000               	movlw	0
  4137  0081  00BB               	movwf	___fldiv@a+1
  4138  0082  3000               	movlw	0
  4139  0083  00BA               	movwf	___fldiv@a
  4140  0084                     l627:
  4141  0084  083D               	movf	___fldiv@a+3,w
  4142  0085  043C               	iorwf	___fldiv@a+2,w
  4143  0086  043B               	iorwf	___fldiv@a+1,w
  4144  0087  043A               	iorwf	___fldiv@a,w
  4145  0088  1D03               	skipz
  4146  0089  288B               	goto	u2851
  4147  008A  288C               	goto	u2850
  4148  008B                     u2851:
  4149  008B  28A5               	goto	l2288
  4150  008C                     u2850:
  4151  008C                     l2280:
  4152  008C  3000               	movlw	0
  4153  008D  00C1               	movwf	___fldiv@b+3
  4154  008E  3000               	movlw	0
  4155  008F  00C0               	movwf	___fldiv@b+2
  4156  0090  3000               	movlw	0
  4157  0091  00BF               	movwf	___fldiv@b+1
  4158  0092  3000               	movlw	0
  4159  0093  00BE               	movwf	___fldiv@b
  4160  0094  3080               	movlw	128
  4161  0095  04C0               	iorwf	___fldiv@b+2,f
  4162  0096  307F               	movlw	127
  4163  0097  04C1               	iorwf	___fldiv@b+3,f
  4164  0098                     l2282:
  4165  0098  084B               	movf	___fldiv@sign,w
  4166  0099  00C2               	movwf	??___fldiv
  4167  009A  0842               	movf	??___fldiv,w
  4168  009B  04C1               	iorwf	___fldiv@b+3,f
  4169  009C                     l2284:
  4170  009C  0841               	movf	___fldiv@b+3,w
  4171  009D  00BD               	movwf	?___fldiv+3
  4172  009E  0840               	movf	___fldiv@b+2,w
  4173  009F  00BC               	movwf	?___fldiv+2
  4174  00A0  083F               	movf	___fldiv@b+1,w
  4175  00A1  00BB               	movwf	?___fldiv+1
  4176  00A2  083E               	movf	___fldiv@b,w
  4177  00A3  00BA               	movwf	?___fldiv
  4178  00A4  2A04               	goto	l629
  4179  00A5                     l2288:
  4180  00A5  0852               	movf	___fldiv@bexp,w
  4181  00A6  1D03               	btfss	3,2
  4182  00A7  28A9               	goto	u2861
  4183  00A8  28AA               	goto	u2860
  4184  00A9                     u2861:
  4185  00A9  28B3               	goto	l2294
  4186  00AA                     u2860:
  4187  00AA                     l2290:
  4188  00AA  3000               	movlw	0
  4189  00AB  00BD               	movwf	?___fldiv+3
  4190  00AC  3000               	movlw	0
  4191  00AD  00BC               	movwf	?___fldiv+2
  4192  00AE  3000               	movlw	0
  4193  00AF  00BB               	movwf	?___fldiv+1
  4194  00B0  3000               	movlw	0
  4195  00B1  00BA               	movwf	?___fldiv
  4196  00B2  2A04               	goto	l629
  4197  00B3                     l2294:
  4198  00B3  0852               	movf	___fldiv@bexp,w
  4199  00B4  00C2               	movwf	??___fldiv
  4200  00B5  01C3               	clrf	??___fldiv+1
  4201  00B6  0843               	movf	??___fldiv+1,w
  4202  00B7  00C5               	movwf	??___fldiv+3
  4203  00B8  0853               	movf	___fldiv@aexp,w
  4204  00B9  0242               	subwf	??___fldiv,w
  4205  00BA  00C4               	movwf	??___fldiv+2
  4206  00BB  1C03               	skipc
  4207  00BC  03C5               	decf	??___fldiv+3,f
  4208  00BD  0844               	movf	??___fldiv+2,w
  4209  00BE  3E7F               	addlw	127
  4210  00BF  00CC               	movwf	___fldiv@new_exp
  4211  00C0  0845               	movf	??___fldiv+3,w
  4212  00C1  1803               	skipnc
  4213  00C2  3E01               	addlw	1
  4214  00C3  3E00               	addlw	0
  4215  00C4  00CD               	movwf	___fldiv@new_exp+1
  4216  00C5                     l2296:
  4217  00C5  0841               	movf	___fldiv@b+3,w
  4218  00C6  00CA               	movwf	___fldiv@rem+3
  4219  00C7  0840               	movf	___fldiv@b+2,w
  4220  00C8  00C9               	movwf	___fldiv@rem+2
  4221  00C9  083F               	movf	___fldiv@b+1,w
  4222  00CA  00C8               	movwf	___fldiv@rem+1
  4223  00CB  083E               	movf	___fldiv@b,w
  4224  00CC  00C7               	movwf	___fldiv@rem
  4225  00CD                     l2298:
  4226  00CD  3000               	movlw	0
  4227  00CE  00C1               	movwf	___fldiv@b+3
  4228  00CF  3000               	movlw	0
  4229  00D0  00C0               	movwf	___fldiv@b+2
  4230  00D1  3000               	movlw	0
  4231  00D2  00BF               	movwf	___fldiv@b+1
  4232  00D3  3000               	movlw	0
  4233  00D4  00BE               	movwf	___fldiv@b
  4234  00D5                     l2300:
  4235  00D5  3000               	movlw	0
  4236  00D6  00D1               	movwf	___fldiv@grs+3
  4237  00D7  3000               	movlw	0
  4238  00D8  00D0               	movwf	___fldiv@grs+2
  4239  00D9  3000               	movlw	0
  4240  00DA  00CF               	movwf	___fldiv@grs+1
  4241  00DB  3000               	movlw	0
  4242  00DC  00CE               	movwf	___fldiv@grs
  4243  00DD                     l2302:
  4244  00DD  01D3               	clrf	___fldiv@aexp
  4245  00DE  2929               	goto	l2322
  4246  00DF                     l2304:
  4247  00DF  0853               	movf	___fldiv@aexp,w
  4248  00E0  1903               	btfsc	3,2
  4249  00E1  28E3               	goto	u2871
  4250  00E2  28E4               	goto	u2870
  4251  00E3                     u2871:
  4252  00E3  2904               	goto	l2314
  4253  00E4                     u2870:
  4254  00E4                     l2306:
  4255  00E4  3001               	movlw	1
  4256  00E5  00C2               	movwf	??___fldiv
  4257  00E6                     u2885:
  4258  00E6  1003               	clrc
  4259  00E7  0DC7               	rlf	___fldiv@rem,f
  4260  00E8  0DC8               	rlf	___fldiv@rem+1,f
  4261  00E9  0DC9               	rlf	___fldiv@rem+2,f
  4262  00EA  0DCA               	rlf	___fldiv@rem+3,f
  4263  00EB  0BC2               	decfsz	??___fldiv,f
  4264  00EC  28E6               	goto	u2885
  4265  00ED  3001               	movlw	1
  4266  00EE  00C2               	movwf	??___fldiv
  4267  00EF                     u2895:
  4268  00EF  1003               	clrc
  4269  00F0  0DBE               	rlf	___fldiv@b,f
  4270  00F1  0DBF               	rlf	___fldiv@b+1,f
  4271  00F2  0DC0               	rlf	___fldiv@b+2,f
  4272  00F3  0DC1               	rlf	___fldiv@b+3,f
  4273  00F4  0BC2               	decfsz	??___fldiv,f
  4274  00F5  28EF               	goto	u2895
  4275  00F6                     l2308:
  4276  00F6  1FD1               	btfss	___fldiv@grs+3,7
  4277  00F7  28F9               	goto	u2901
  4278  00F8  28FA               	goto	u2900
  4279  00F9                     u2901:
  4280  00F9  28FB               	goto	l2312
  4281  00FA                     u2900:
  4282  00FA                     l2310:
  4283  00FA  143E               	bsf	___fldiv@b,0
  4284  00FB                     l2312:
  4285  00FB  3001               	movlw	1
  4286  00FC  00C2               	movwf	??___fldiv
  4287  00FD                     u2915:
  4288  00FD  1003               	clrc
  4289  00FE  0DCE               	rlf	___fldiv@grs,f
  4290  00FF  0DCF               	rlf	___fldiv@grs+1,f
  4291  0100  0DD0               	rlf	___fldiv@grs+2,f
  4292  0101  0DD1               	rlf	___fldiv@grs+3,f
  4293  0102  0BC2               	decfsz	??___fldiv,f
  4294  0103  28FD               	goto	u2915
  4295  0104                     l2314:
  4296  0104  083D               	movf	___fldiv@a+3,w
  4297  0105  024A               	subwf	___fldiv@rem+3,w
  4298  0106  1D03               	skipz
  4299  0107  2912               	goto	u2925
  4300  0108  083C               	movf	___fldiv@a+2,w
  4301  0109  0249               	subwf	___fldiv@rem+2,w
  4302  010A  1D03               	skipz
  4303  010B  2912               	goto	u2925
  4304  010C  083B               	movf	___fldiv@a+1,w
  4305  010D  0248               	subwf	___fldiv@rem+1,w
  4306  010E  1D03               	skipz
  4307  010F  2912               	goto	u2925
  4308  0110  083A               	movf	___fldiv@a,w
  4309  0111  0247               	subwf	___fldiv@rem,w
  4310  0112                     u2925:
  4311  0112  1C03               	skipc
  4312  0113  2915               	goto	u2921
  4313  0114  2916               	goto	u2920
  4314  0115                     u2921:
  4315  0115  2925               	goto	l2320
  4316  0116                     u2920:
  4317  0116                     l2316:
  4318  0116  1751               	bsf	___fldiv@grs+3,6
  4319  0117                     l2318:
  4320  0117  083A               	movf	___fldiv@a,w
  4321  0118  02C7               	subwf	___fldiv@rem,f
  4322  0119  083B               	movf	___fldiv@a+1,w
  4323  011A  1C03               	skipc
  4324  011B  0F3B               	incfsz	___fldiv@a+1,w
  4325  011C  02C8               	subwf	___fldiv@rem+1,f
  4326  011D  083C               	movf	___fldiv@a+2,w
  4327  011E  1C03               	skipc
  4328  011F  0F3C               	incfsz	___fldiv@a+2,w
  4329  0120  02C9               	subwf	___fldiv@rem+2,f
  4330  0121  083D               	movf	___fldiv@a+3,w
  4331  0122  1C03               	skipc
  4332  0123  0F3D               	incfsz	___fldiv@a+3,w
  4333  0124  02CA               	subwf	___fldiv@rem+3,f
  4334  0125                     l2320:
  4335  0125  3001               	movlw	1
  4336  0126  00C2               	movwf	??___fldiv
  4337  0127  0842               	movf	??___fldiv,w
  4338  0128  07D3               	addwf	___fldiv@aexp,f
  4339  0129                     l2322:
  4340  0129  301A               	movlw	26
  4341  012A  0253               	subwf	___fldiv@aexp,w
  4342  012B  1C03               	skipc
  4343  012C  292E               	goto	u2931
  4344  012D  292F               	goto	u2930
  4345  012E                     u2931:
  4346  012E  28DF               	goto	l2304
  4347  012F                     u2930:
  4348  012F                     l2324:
  4349  012F  084A               	movf	___fldiv@rem+3,w
  4350  0130  0449               	iorwf	___fldiv@rem+2,w
  4351  0131  0448               	iorwf	___fldiv@rem+1,w
  4352  0132  0447               	iorwf	___fldiv@rem,w
  4353  0133  1903               	skipnz
  4354  0134  2936               	goto	u2941
  4355  0135  2937               	goto	u2940
  4356  0136                     u2941:
  4357  0136  2956               	goto	l2338
  4358  0137                     u2940:
  4359  0137                     l2326:
  4360  0137  144E               	bsf	___fldiv@grs,0
  4361  0138  2956               	goto	l2338
  4362  0139                     l2328:
  4363  0139  3001               	movlw	1
  4364  013A  00C2               	movwf	??___fldiv
  4365  013B                     u2955:
  4366  013B  1003               	clrc
  4367  013C  0DBE               	rlf	___fldiv@b,f
  4368  013D  0DBF               	rlf	___fldiv@b+1,f
  4369  013E  0DC0               	rlf	___fldiv@b+2,f
  4370  013F  0DC1               	rlf	___fldiv@b+3,f
  4371  0140  0BC2               	decfsz	??___fldiv,f
  4372  0141  293B               	goto	u2955
  4373  0142                     l2330:
  4374  0142  1FD1               	btfss	___fldiv@grs+3,7
  4375  0143  2945               	goto	u2961
  4376  0144  2946               	goto	u2960
  4377  0145                     u2961:
  4378  0145  2947               	goto	l2334
  4379  0146                     u2960:
  4380  0146                     l2332:
  4381  0146  143E               	bsf	___fldiv@b,0
  4382  0147                     l2334:
  4383  0147  3001               	movlw	1
  4384  0148  00C2               	movwf	??___fldiv
  4385  0149                     u2975:
  4386  0149  1003               	clrc
  4387  014A  0DCE               	rlf	___fldiv@grs,f
  4388  014B  0DCF               	rlf	___fldiv@grs+1,f
  4389  014C  0DD0               	rlf	___fldiv@grs+2,f
  4390  014D  0DD1               	rlf	___fldiv@grs+3,f
  4391  014E  0BC2               	decfsz	??___fldiv,f
  4392  014F  2949               	goto	u2975
  4393  0150                     l2336:
  4394  0150  30FF               	movlw	255
  4395  0151  07CC               	addwf	___fldiv@new_exp,f
  4396  0152  1803               	skipnc
  4397  0153  0ACD               	incf	___fldiv@new_exp+1,f
  4398  0154  30FF               	movlw	255
  4399  0155  07CD               	addwf	___fldiv@new_exp+1,f
  4400  0156                     l2338:
  4401  0156  1FC0               	btfss	___fldiv@b+2,7
  4402  0157  2959               	goto	u2981
  4403  0158  295A               	goto	u2980
  4404  0159                     u2981:
  4405  0159  2939               	goto	l2328
  4406  015A                     u2980:
  4407  015A                     l2340:
  4408  015A  01D3               	clrf	___fldiv@aexp
  4409  015B                     l2342:
  4410  015B  1FD1               	btfss	___fldiv@grs+3,7
  4411  015C  295E               	goto	u2991
  4412  015D  295F               	goto	u2990
  4413  015E                     u2991:
  4414  015E  297B               	goto	l2350
  4415  015F                     u2990:
  4416  015F                     l2344:
  4417  015F  30FF               	movlw	255
  4418  0160  054E               	andwf	___fldiv@grs,w
  4419  0161  00C2               	movwf	??___fldiv
  4420  0162  30FF               	movlw	255
  4421  0163  054F               	andwf	___fldiv@grs+1,w
  4422  0164  00C3               	movwf	??___fldiv+1
  4423  0165  30FF               	movlw	255
  4424  0166  0550               	andwf	___fldiv@grs+2,w
  4425  0167  00C4               	movwf	??___fldiv+2
  4426  0168  307F               	movlw	127
  4427  0169  0551               	andwf	___fldiv@grs+3,w
  4428  016A  00C5               	movwf	??___fldiv+3
  4429  016B  0845               	movf	??___fldiv+3,w
  4430  016C  0444               	iorwf	??___fldiv+2,w
  4431  016D  0443               	iorwf	??___fldiv+1,w
  4432  016E  0442               	iorwf	??___fldiv,w
  4433  016F  1903               	skipnz
  4434  0170  2972               	goto	u3001
  4435  0171  2973               	goto	u3000
  4436  0172                     u3001:
  4437  0172  2976               	goto	l643
  4438  0173                     u3000:
  4439  0173                     l2346:
  4440  0173  01D3               	clrf	___fldiv@aexp
  4441  0174  0AD3               	incf	___fldiv@aexp,f
  4442  0175  297B               	goto	l2350
  4443  0176                     l643:
  4444  0176  1C3E               	btfss	___fldiv@b,0
  4445  0177  2979               	goto	u3011
  4446  0178  297A               	goto	u3010
  4447  0179                     u3011:
  4448  0179  297B               	goto	l2350
  4449  017A                     u3010:
  4450  017A  2973               	goto	l2346
  4451  017B                     l2350:
  4452  017B  0853               	movf	___fldiv@aexp,w
  4453  017C  1903               	btfsc	3,2
  4454  017D  297F               	goto	u3021
  4455  017E  2980               	goto	u3020
  4456  017F                     u3021:
  4457  017F  29B1               	goto	l2360
  4458  0180                     u3020:
  4459  0180                     l2352:
  4460  0180  3001               	movlw	1
  4461  0181  07BE               	addwf	___fldiv@b,f
  4462  0182  3000               	movlw	0
  4463  0183  1803               	skipnc
  4464  0184  3001               	movlw	1
  4465  0185  07BF               	addwf	___fldiv@b+1,f
  4466  0186  3000               	movlw	0
  4467  0187  1803               	skipnc
  4468  0188  3001               	movlw	1
  4469  0189  07C0               	addwf	___fldiv@b+2,f
  4470  018A  3000               	movlw	0
  4471  018B  1803               	skipnc
  4472  018C  3001               	movlw	1
  4473  018D  07C1               	addwf	___fldiv@b+3,f
  4474  018E                     l2354:
  4475  018E  1C41               	btfss	___fldiv@b+3,0
  4476  018F  2991               	goto	u3031
  4477  0190  2992               	goto	u3030
  4478  0191                     u3031:
  4479  0191  29B1               	goto	l2360
  4480  0192                     u3030:
  4481  0192                     l2356:
  4482  0192  083E               	movf	___fldiv@b,w
  4483  0193  00C2               	movwf	??___fldiv
  4484  0194  083F               	movf	___fldiv@b+1,w
  4485  0195  00C3               	movwf	??___fldiv+1
  4486  0196  0840               	movf	___fldiv@b+2,w
  4487  0197  00C4               	movwf	??___fldiv+2
  4488  0198  0841               	movf	___fldiv@b+3,w
  4489  0199  00C5               	movwf	??___fldiv+3
  4490  019A  3001               	movlw	1
  4491  019B  00C6               	movwf	??___fldiv+4
  4492  019C                     u3045:
  4493  019C  0D45               	rlf	??___fldiv+3,w
  4494  019D  0CC5               	rrf	??___fldiv+3,f
  4495  019E  0CC4               	rrf	??___fldiv+2,f
  4496  019F  0CC3               	rrf	??___fldiv+1,f
  4497  01A0  0CC2               	rrf	??___fldiv,f
  4498  01A1                     u3040:
  4499  01A1  0BC6               	decfsz	??___fldiv+4,f
  4500  01A2  299C               	goto	u3045
  4501  01A3  0845               	movf	??___fldiv+3,w
  4502  01A4  00C1               	movwf	___fldiv@b+3
  4503  01A5  0844               	movf	??___fldiv+2,w
  4504  01A6  00C0               	movwf	___fldiv@b+2
  4505  01A7  0843               	movf	??___fldiv+1,w
  4506  01A8  00BF               	movwf	___fldiv@b+1
  4507  01A9  0842               	movf	??___fldiv,w
  4508  01AA  00BE               	movwf	___fldiv@b
  4509  01AB                     l2358:
  4510  01AB  3001               	movlw	1
  4511  01AC  07CC               	addwf	___fldiv@new_exp,f
  4512  01AD  1803               	skipnc
  4513  01AE  0ACD               	incf	___fldiv@new_exp+1,f
  4514  01AF  3000               	movlw	0
  4515  01B0  07CD               	addwf	___fldiv@new_exp+1,f
  4516  01B1                     l2360:
  4517  01B1  084D               	movf	___fldiv@new_exp+1,w
  4518  01B2  3A80               	xorlw	128
  4519  01B3  00FF               	movwf	btemp+1
  4520  01B4  3080               	movlw	128
  4521  01B5  027F               	subwf	btemp+1,w
  4522  01B6  1D03               	skipz
  4523  01B7  29BA               	goto	u3055
  4524  01B8  30FF               	movlw	255
  4525  01B9  024C               	subwf	___fldiv@new_exp,w
  4526  01BA                     u3055:
  4527  01BA  1C03               	skipc
  4528  01BB  29BD               	goto	u3051
  4529  01BC  29BE               	goto	u3050
  4530  01BD                     u3051:
  4531  01BD  29CC               	goto	l2364
  4532  01BE                     u3050:
  4533  01BE                     l2362:
  4534  01BE  30FF               	movlw	255
  4535  01BF  1283               	bcf	3,5	;RP0=0, select bank0
  4536  01C0  1303               	bcf	3,6	;RP1=0, select bank0
  4537  01C1  00CC               	movwf	___fldiv@new_exp
  4538  01C2  3000               	movlw	0
  4539  01C3  00CD               	movwf	___fldiv@new_exp+1
  4540  01C4  3000               	movlw	0
  4541  01C5  00C1               	movwf	___fldiv@b+3
  4542  01C6  3000               	movlw	0
  4543  01C7  00C0               	movwf	___fldiv@b+2
  4544  01C8  3000               	movlw	0
  4545  01C9  00BF               	movwf	___fldiv@b+1
  4546  01CA  3000               	movlw	0
  4547  01CB  00BE               	movwf	___fldiv@b
  4548  01CC                     l2364:
  4549  01CC  1283               	bcf	3,5	;RP0=0, select bank0
  4550  01CD  1303               	bcf	3,6	;RP1=0, select bank0
  4551  01CE  084D               	movf	___fldiv@new_exp+1,w
  4552  01CF  3A80               	xorlw	128
  4553  01D0  00FF               	movwf	btemp+1
  4554  01D1  3080               	movlw	128
  4555  01D2  027F               	subwf	btemp+1,w
  4556  01D3  1D03               	skipz
  4557  01D4  29D7               	goto	u3065
  4558  01D5  3001               	movlw	1
  4559  01D6  024C               	subwf	___fldiv@new_exp,w
  4560  01D7                     u3065:
  4561  01D7  1803               	skipnc
  4562  01D8  29DA               	goto	u3061
  4563  01D9  29DB               	goto	u3060
  4564  01DA                     u3061:
  4565  01DA  29E8               	goto	l649
  4566  01DB                     u3060:
  4567  01DB                     l2366:
  4568  01DB  1283               	bcf	3,5	;RP0=0, select bank0
  4569  01DC  1303               	bcf	3,6	;RP1=0, select bank0
  4570  01DD  01CC               	clrf	___fldiv@new_exp
  4571  01DE  01CD               	clrf	___fldiv@new_exp+1
  4572  01DF                     l2368:
  4573  01DF  3000               	movlw	0
  4574  01E0  00C1               	movwf	___fldiv@b+3
  4575  01E1  3000               	movlw	0
  4576  01E2  00C0               	movwf	___fldiv@b+2
  4577  01E3  3000               	movlw	0
  4578  01E4  00BF               	movwf	___fldiv@b+1
  4579  01E5  3000               	movlw	0
  4580  01E6  00BE               	movwf	___fldiv@b
  4581  01E7                     l2370:
  4582  01E7  01CB               	clrf	___fldiv@sign
  4583  01E8                     l649:
  4584  01E8  1283               	bcf	3,5	;RP0=0, select bank0
  4585  01E9  1303               	bcf	3,6	;RP1=0, select bank0
  4586  01EA  084C               	movf	___fldiv@new_exp,w
  4587  01EB  00C2               	movwf	??___fldiv
  4588  01EC  0842               	movf	??___fldiv,w
  4589  01ED  00D2               	movwf	___fldiv@bexp
  4590  01EE                     l2372:
  4591  01EE  1C52               	btfss	___fldiv@bexp,0
  4592  01EF  29F1               	goto	u3071
  4593  01F0  29F2               	goto	u3070
  4594  01F1                     u3071:
  4595  01F1  29F4               	goto	l2376
  4596  01F2                     u3070:
  4597  01F2                     l2374:
  4598  01F2  17C0               	bsf	___fldiv@b+2,7
  4599  01F3  29F8               	goto	l651
  4600  01F4                     l2376:
  4601  01F4  307F               	movlw	127
  4602  01F5  00C2               	movwf	??___fldiv
  4603  01F6  0842               	movf	??___fldiv,w
  4604  01F7  05C0               	andwf	___fldiv@b+2,f
  4605  01F8                     l651:
  4606  01F8  0852               	movf	___fldiv@bexp,w
  4607  01F9  00C2               	movwf	??___fldiv
  4608  01FA  1003               	clrc
  4609  01FB  0C42               	rrf	??___fldiv,w
  4610  01FC  00C3               	movwf	??___fldiv+1
  4611  01FD  0843               	movf	??___fldiv+1,w
  4612  01FE  00C1               	movwf	___fldiv@b+3
  4613  01FF  084B               	movf	___fldiv@sign,w
  4614  0200  00C2               	movwf	??___fldiv
  4615  0201  0842               	movf	??___fldiv,w
  4616  0202  04C1               	iorwf	___fldiv@b+3,f
  4617  0203  289C               	goto	l2284
  4618  0204                     l629:
  4619  0204  0008               	return
  4620  0205                     __end_of___fldiv:
  4621                           
  4622                           	psect	text12
  4623  0205                     __ptext12:	
  4624 ;; *************** function ___fladd *****************
  4625 ;; Defined at:
  4626 ;;		line 10 in file "C:\Program Files\Microchip\xc8\v2.31\pic\sources\c90\common\sprcadd.c"
  4627 ;; Parameters:    Size  Location     Type
  4628 ;;  b               4   52[BANK0 ] unsigned char 
  4629 ;;  a               4   56[BANK0 ] unsigned char 
  4630 ;; Auto vars:     Size  Location     Type
  4631 ;;  grs             1   71[BANK0 ] unsigned char 
  4632 ;;  bexp            1   70[BANK0 ] unsigned char 
  4633 ;;  aexp            1   69[BANK0 ] unsigned char 
  4634 ;;  signs           1   68[BANK0 ] unsigned char 
  4635 ;; Return value:  Size  Location     Type
  4636 ;;                  4   52[BANK0 ] unsigned char 
  4637 ;; Registers used:
  4638 ;;		wreg, status,2, status,0, btemp+1
  4639 ;; Tracked objects:
  4640 ;;		On entry : 0/0
  4641 ;;		On exit  : 0/0
  4642 ;;		Unchanged: 0/0
  4643 ;; Data sizes:     COMMON   BANK0   BANK1   BANK3   BANK2
  4644 ;;      Params:         0       8       0       0       0
  4645 ;;      Locals:         0       4       0       0       0
  4646 ;;      Temps:          0       8       0       0       0
  4647 ;;      Totals:         0      20       0       0       0
  4648 ;;Total ram usage:       20 bytes
  4649 ;; Hardware stack levels used:    1
  4650 ;; This function calls:
  4651 ;;		Nothing
  4652 ;; This function is called by:
  4653 ;;		_main
  4654 ;; This function uses a non-reentrant model
  4655 ;;
  4656                           
  4657                           
  4658                           ;psect for function ___fladd
  4659  0205                     ___fladd:
  4660  0205                     l2046:	
  4661                           ;incstack = 0
  4662                           ; Regs used in ___fladd: [wreg+status,2+status,0+btemp+1]
  4663                           
  4664  0205  1283               	bcf	3,5	;RP0=0, select bank0
  4665  0206  1303               	bcf	3,6	;RP1=0, select bank0
  4666  0207  0857               	movf	___fladd@b+3,w
  4667  0208  3980               	andlw	128
  4668  0209  00DC               	movwf	??___fladd
  4669  020A  085C               	movf	??___fladd,w
  4670  020B  00E4               	movwf	___fladd@signs
  4671  020C                     l2048:
  4672  020C  0857               	movf	___fladd@b+3,w
  4673  020D  00DC               	movwf	??___fladd
  4674  020E  075C               	addwf	??___fladd,w
  4675  020F  00DD               	movwf	??___fladd+1
  4676  0210  085D               	movf	??___fladd+1,w
  4677  0211  00E6               	movwf	___fladd@bexp
  4678  0212                     l2050:
  4679  0212  1FD6               	btfss	___fladd@b+2,7
  4680  0213  2A15               	goto	u2331
  4681  0214  2A16               	goto	u2330
  4682  0215                     u2331:
  4683  0215  2A17               	goto	l2054
  4684  0216                     u2330:
  4685  0216                     l2052:
  4686  0216  1466               	bsf	___fladd@bexp,0
  4687  0217                     l2054:
  4688  0217  0866               	movf	___fladd@bexp,w
  4689  0218  1903               	btfsc	3,2
  4690  0219  2A1B               	goto	u2341
  4691  021A  2A1C               	goto	u2340
  4692  021B                     u2341:
  4693  021B  2A2C               	goto	l2064
  4694  021C                     u2340:
  4695  021C                     l2056:
  4696  021C  0A66               	incf	___fladd@bexp,w
  4697  021D  1D03               	btfss	3,2
  4698  021E  2A20               	goto	u2351
  4699  021F  2A21               	goto	u2350
  4700  0220                     u2351:
  4701  0220  2A29               	goto	l2060
  4702  0221                     u2350:
  4703  0221                     l2058:
  4704  0221  3000               	movlw	0
  4705  0222  00D7               	movwf	___fladd@b+3
  4706  0223  3000               	movlw	0
  4707  0224  00D6               	movwf	___fladd@b+2
  4708  0225  3000               	movlw	0
  4709  0226  00D5               	movwf	___fladd@b+1
  4710  0227  3000               	movlw	0
  4711  0228  00D4               	movwf	___fladd@b
  4712  0229                     l2060:
  4713  0229  17D6               	bsf	___fladd@b+2,7
  4714  022A                     l2062:
  4715  022A  01D7               	clrf	___fladd@b+3
  4716  022B  2A34               	goto	l2066
  4717  022C                     l2064:
  4718  022C  3000               	movlw	0
  4719  022D  00D7               	movwf	___fladd@b+3
  4720  022E  3000               	movlw	0
  4721  022F  00D6               	movwf	___fladd@b+2
  4722  0230  3000               	movlw	0
  4723  0231  00D5               	movwf	___fladd@b+1
  4724  0232  3000               	movlw	0
  4725  0233  00D4               	movwf	___fladd@b
  4726  0234                     l2066:
  4727  0234  085B               	movf	___fladd@a+3,w
  4728  0235  3980               	andlw	128
  4729  0236  00DC               	movwf	??___fladd
  4730  0237  085C               	movf	??___fladd,w
  4731  0238  00E5               	movwf	___fladd@aexp
  4732  0239                     l2068:
  4733  0239  0865               	movf	___fladd@aexp,w
  4734  023A  0664               	xorwf	___fladd@signs,w
  4735  023B  1903               	skipnz
  4736  023C  2A3E               	goto	u2361
  4737  023D  2A3F               	goto	u2360
  4738  023E                     u2361:
  4739  023E  2A40               	goto	l2072
  4740  023F                     u2360:
  4741  023F                     l2070:
  4742  023F  1764               	bsf	___fladd@signs,6
  4743  0240                     l2072:
  4744  0240  085B               	movf	___fladd@a+3,w
  4745  0241  00DC               	movwf	??___fladd
  4746  0242  075C               	addwf	??___fladd,w
  4747  0243  00DD               	movwf	??___fladd+1
  4748  0244  085D               	movf	??___fladd+1,w
  4749  0245  00E5               	movwf	___fladd@aexp
  4750  0246                     l2074:
  4751  0246  1FDA               	btfss	___fladd@a+2,7
  4752  0247  2A49               	goto	u2371
  4753  0248  2A4A               	goto	u2370
  4754  0249                     u2371:
  4755  0249  2A4B               	goto	l2078
  4756  024A                     u2370:
  4757  024A                     l2076:
  4758  024A  1465               	bsf	___fladd@aexp,0
  4759  024B                     l2078:
  4760  024B  0865               	movf	___fladd@aexp,w
  4761  024C  1903               	btfsc	3,2
  4762  024D  2A4F               	goto	u2381
  4763  024E  2A50               	goto	u2380
  4764  024F                     u2381:
  4765  024F  2A60               	goto	l2088
  4766  0250                     u2380:
  4767  0250                     l2080:
  4768  0250  0A65               	incf	___fladd@aexp,w
  4769  0251  1D03               	btfss	3,2
  4770  0252  2A54               	goto	u2391
  4771  0253  2A55               	goto	u2390
  4772  0254                     u2391:
  4773  0254  2A5D               	goto	l2084
  4774  0255                     u2390:
  4775  0255                     l2082:
  4776  0255  3000               	movlw	0
  4777  0256  00DB               	movwf	___fladd@a+3
  4778  0257  3000               	movlw	0
  4779  0258  00DA               	movwf	___fladd@a+2
  4780  0259  3000               	movlw	0
  4781  025A  00D9               	movwf	___fladd@a+1
  4782  025B  3000               	movlw	0
  4783  025C  00D8               	movwf	___fladd@a
  4784  025D                     l2084:
  4785  025D  17DA               	bsf	___fladd@a+2,7
  4786  025E                     l2086:
  4787  025E  01DB               	clrf	___fladd@a+3
  4788  025F  2A68               	goto	l571
  4789  0260                     l2088:
  4790  0260  3000               	movlw	0
  4791  0261  00DB               	movwf	___fladd@a+3
  4792  0262  3000               	movlw	0
  4793  0263  00DA               	movwf	___fladd@a+2
  4794  0264  3000               	movlw	0
  4795  0265  00D9               	movwf	___fladd@a+1
  4796  0266  3000               	movlw	0
  4797  0267  00D8               	movwf	___fladd@a
  4798  0268                     l571:
  4799  0268  0866               	movf	___fladd@bexp,w
  4800  0269  0265               	subwf	___fladd@aexp,w
  4801  026A  1803               	skipnc
  4802  026B  2A6D               	goto	u2401
  4803  026C  2A6E               	goto	u2400
  4804  026D                     u2401:
  4805  026D  2AB2               	goto	l2124
  4806  026E                     u2400:
  4807  026E                     l2090:
  4808  026E  1F64               	btfss	___fladd@signs,6
  4809  026F  2A71               	goto	u2411
  4810  0270  2A72               	goto	u2410
  4811  0271                     u2411:
  4812  0271  2A76               	goto	l2094
  4813  0272                     u2410:
  4814  0272                     l2092:
  4815  0272  3080               	movlw	128
  4816  0273  00DC               	movwf	??___fladd
  4817  0274  085C               	movf	??___fladd,w
  4818  0275  06E4               	xorwf	___fladd@signs,f
  4819  0276                     l2094:
  4820  0276  0866               	movf	___fladd@bexp,w
  4821  0277  00DC               	movwf	??___fladd
  4822  0278  085C               	movf	??___fladd,w
  4823  0279  00E7               	movwf	___fladd@grs
  4824  027A                     l2096:
  4825  027A  0865               	movf	___fladd@aexp,w
  4826  027B  00DC               	movwf	??___fladd
  4827  027C  085C               	movf	??___fladd,w
  4828  027D  00E6               	movwf	___fladd@bexp
  4829  027E                     l2098:
  4830  027E  0867               	movf	___fladd@grs,w
  4831  027F  00DC               	movwf	??___fladd
  4832  0280  085C               	movf	??___fladd,w
  4833  0281  00E5               	movwf	___fladd@aexp
  4834  0282                     l2100:
  4835  0282  0854               	movf	___fladd@b,w
  4836  0283  00DC               	movwf	??___fladd
  4837  0284  085C               	movf	??___fladd,w
  4838  0285  00E7               	movwf	___fladd@grs
  4839  0286                     l2102:
  4840  0286  0858               	movf	___fladd@a,w
  4841  0287  00DC               	movwf	??___fladd
  4842  0288  085C               	movf	??___fladd,w
  4843  0289  00D4               	movwf	___fladd@b
  4844  028A                     l2104:
  4845  028A  0867               	movf	___fladd@grs,w
  4846  028B  00DC               	movwf	??___fladd
  4847  028C  085C               	movf	??___fladd,w
  4848  028D  00D8               	movwf	___fladd@a
  4849  028E                     l2106:
  4850  028E  0855               	movf	___fladd@b+1,w
  4851  028F  00DC               	movwf	??___fladd
  4852  0290  085C               	movf	??___fladd,w
  4853  0291  00E7               	movwf	___fladd@grs
  4854  0292                     l2108:
  4855  0292  0859               	movf	___fladd@a+1,w
  4856  0293  00DC               	movwf	??___fladd
  4857  0294  085C               	movf	??___fladd,w
  4858  0295  00D5               	movwf	___fladd@b+1
  4859  0296                     l2110:
  4860  0296  0867               	movf	___fladd@grs,w
  4861  0297  00DC               	movwf	??___fladd
  4862  0298  085C               	movf	??___fladd,w
  4863  0299  00D9               	movwf	___fladd@a+1
  4864  029A                     l2112:
  4865  029A  0856               	movf	___fladd@b+2,w
  4866  029B  00DC               	movwf	??___fladd
  4867  029C  085C               	movf	??___fladd,w
  4868  029D  00E7               	movwf	___fladd@grs
  4869  029E                     l2114:
  4870  029E  085A               	movf	___fladd@a+2,w
  4871  029F  00DC               	movwf	??___fladd
  4872  02A0  085C               	movf	??___fladd,w
  4873  02A1  00D6               	movwf	___fladd@b+2
  4874  02A2                     l2116:
  4875  02A2  0867               	movf	___fladd@grs,w
  4876  02A3  00DC               	movwf	??___fladd
  4877  02A4  085C               	movf	??___fladd,w
  4878  02A5  00DA               	movwf	___fladd@a+2
  4879  02A6                     l2118:
  4880  02A6  0857               	movf	___fladd@b+3,w
  4881  02A7  00DC               	movwf	??___fladd
  4882  02A8  085C               	movf	??___fladd,w
  4883  02A9  00E7               	movwf	___fladd@grs
  4884  02AA                     l2120:
  4885  02AA  085B               	movf	___fladd@a+3,w
  4886  02AB  00DC               	movwf	??___fladd
  4887  02AC  085C               	movf	??___fladd,w
  4888  02AD  00D7               	movwf	___fladd@b+3
  4889  02AE                     l2122:
  4890  02AE  0867               	movf	___fladd@grs,w
  4891  02AF  00DC               	movwf	??___fladd
  4892  02B0  085C               	movf	??___fladd,w
  4893  02B1  00DB               	movwf	___fladd@a+3
  4894  02B2                     l2124:
  4895  02B2  01E7               	clrf	___fladd@grs
  4896  02B3                     l2126:
  4897  02B3  0865               	movf	___fladd@aexp,w
  4898  02B4  00DC               	movwf	??___fladd
  4899  02B5  01DD               	clrf	??___fladd+1
  4900  02B6  085D               	movf	??___fladd+1,w
  4901  02B7  00DF               	movwf	??___fladd+3
  4902  02B8  0866               	movf	___fladd@bexp,w
  4903  02B9  025C               	subwf	??___fladd,w
  4904  02BA  00DE               	movwf	??___fladd+2
  4905  02BB  1C03               	skipc
  4906  02BC  03DF               	decf	??___fladd+3,f
  4907  02BD  085F               	movf	??___fladd+3,w
  4908  02BE  3A80               	xorlw	128
  4909  02BF  00FF               	movwf	btemp+1
  4910  02C0  3080               	movlw	128
  4911  02C1  027F               	subwf	btemp+1,w
  4912  02C2  1D03               	skipz
  4913  02C3  2AC6               	goto	u2425
  4914  02C4  301A               	movlw	26
  4915  02C5  025E               	subwf	??___fladd+2,w
  4916  02C6                     u2425:
  4917  02C6  1C03               	skipc
  4918  02C7  2AC9               	goto	u2421
  4919  02C8  2ACA               	goto	u2420
  4920  02C9                     u2421:
  4921  02C9  2B07               	goto	l2142
  4922  02CA                     u2420:
  4923  02CA                     l2128:
  4924  02CA  1283               	bcf	3,5	;RP0=0, select bank0
  4925  02CB  1303               	bcf	3,6	;RP1=0, select bank0
  4926  02CC  0857               	movf	___fladd@b+3,w
  4927  02CD  0456               	iorwf	___fladd@b+2,w
  4928  02CE  0455               	iorwf	___fladd@b+1,w
  4929  02CF  0454               	iorwf	___fladd@b,w
  4930  02D0  1D03               	skipz
  4931  02D1  2AD3               	goto	u2431
  4932  02D2  2AD5               	goto	u2430
  4933  02D3                     u2431:
  4934  02D3  3001               	movlw	1
  4935  02D4  2AD6               	goto	u2440
  4936  02D5                     u2430:
  4937  02D5  3000               	movlw	0
  4938  02D6                     u2440:
  4939  02D6  00DC               	movwf	??___fladd
  4940  02D7  085C               	movf	??___fladd,w
  4941  02D8  00E7               	movwf	___fladd@grs
  4942  02D9  3000               	movlw	0
  4943  02DA  00D7               	movwf	___fladd@b+3
  4944  02DB  3000               	movlw	0
  4945  02DC  00D6               	movwf	___fladd@b+2
  4946  02DD  3000               	movlw	0
  4947  02DE  00D5               	movwf	___fladd@b+1
  4948  02DF  3000               	movlw	0
  4949  02E0  00D4               	movwf	___fladd@b
  4950  02E1  0865               	movf	___fladd@aexp,w
  4951  02E2  00DC               	movwf	??___fladd
  4952  02E3  085C               	movf	??___fladd,w
  4953  02E4  00E6               	movwf	___fladd@bexp
  4954  02E5  2B0F               	goto	l575
  4955  02E6                     l577:
  4956  02E6  1C67               	btfss	___fladd@grs,0
  4957  02E7  2AE9               	goto	u2451
  4958  02E8  2AEA               	goto	u2450
  4959  02E9                     u2451:
  4960  02E9  2AF3               	goto	l2132
  4961  02EA                     u2450:
  4962  02EA                     l2130:
  4963  02EA  0867               	movf	___fladd@grs,w
  4964  02EB  00DC               	movwf	??___fladd
  4965  02EC  1003               	clrc
  4966  02ED  0C5C               	rrf	??___fladd,w
  4967  02EE  3801               	iorlw	1
  4968  02EF  00DD               	movwf	??___fladd+1
  4969  02F0  085D               	movf	??___fladd+1,w
  4970  02F1  00E7               	movwf	___fladd@grs
  4971  02F2  2AF5               	goto	l2134
  4972  02F3                     l2132:
  4973  02F3  1003               	clrc
  4974  02F4  0CE7               	rrf	___fladd@grs,f
  4975  02F5                     l2134:
  4976  02F5  1C54               	btfss	___fladd@b,0
  4977  02F6  2AF8               	goto	u2461
  4978  02F7  2AF9               	goto	u2460
  4979  02F8                     u2461:
  4980  02F8  2AFA               	goto	l2138
  4981  02F9                     u2460:
  4982  02F9                     l2136:
  4983  02F9  17E7               	bsf	___fladd@grs,7
  4984  02FA                     l2138:
  4985  02FA  3001               	movlw	1
  4986  02FB  00DC               	movwf	??___fladd
  4987  02FC                     u2475:
  4988  02FC  0D57               	rlf	___fladd@b+3,w
  4989  02FD  0CD7               	rrf	___fladd@b+3,f
  4990  02FE  0CD6               	rrf	___fladd@b+2,f
  4991  02FF  0CD5               	rrf	___fladd@b+1,f
  4992  0300  0CD4               	rrf	___fladd@b,f
  4993  0301  0BDC               	decfsz	??___fladd& (0+127),f
  4994  0302  2AFC               	goto	u2475
  4995  0303                     l2140:
  4996  0303  3001               	movlw	1
  4997  0304  00DC               	movwf	??___fladd
  4998  0305  085C               	movf	??___fladd,w
  4999  0306  07E6               	addwf	___fladd@bexp,f
  5000  0307                     l2142:
  5001  0307  1283               	bcf	3,5	;RP0=0, select bank0
  5002  0308  1303               	bcf	3,6	;RP1=0, select bank0
  5003  0309  0865               	movf	___fladd@aexp,w
  5004  030A  0266               	subwf	___fladd@bexp,w
  5005  030B  1C03               	skipc
  5006  030C  2B0E               	goto	u2481
  5007  030D  2B0F               	goto	u2480
  5008  030E                     u2481:
  5009  030E  2AE6               	goto	l577
  5010  030F                     u2480:
  5011  030F                     l575:
  5012  030F  1B64               	btfsc	___fladd@signs,6
  5013  0310  2B12               	goto	u2491
  5014  0311  2B13               	goto	u2490
  5015  0312                     u2491:
  5016  0312  2B5E               	goto	l2168
  5017  0313                     u2490:
  5018  0313                     l2144:
  5019  0313  0866               	movf	___fladd@bexp,w
  5020  0314  1D03               	btfss	3,2
  5021  0315  2B17               	goto	u2501
  5022  0316  2B18               	goto	u2500
  5023  0317                     u2501:
  5024  0317  2B21               	goto	l2150
  5025  0318                     u2500:
  5026  0318                     l2146:
  5027  0318  3000               	movlw	0
  5028  0319  00D7               	movwf	?___fladd+3
  5029  031A  3000               	movlw	0
  5030  031B  00D6               	movwf	?___fladd+2
  5031  031C  3000               	movlw	0
  5032  031D  00D5               	movwf	?___fladd+1
  5033  031E  3000               	movlw	0
  5034  031F  00D4               	movwf	?___fladd
  5035  0320  2C8C               	goto	l584
  5036  0321                     l2150:
  5037  0321  0858               	movf	___fladd@a,w
  5038  0322  07D4               	addwf	___fladd@b,f
  5039  0323  0859               	movf	___fladd@a+1,w
  5040  0324  1103               	clrz
  5041  0325  1803               	skipnc
  5042  0326  3E01               	addlw	1
  5043  0327  1903               	skipnz
  5044  0328  2B2A               	goto	u2511
  5045  0329  07D5               	addwf	___fladd@b+1,f
  5046  032A                     u2511:
  5047  032A  085A               	movf	___fladd@a+2,w
  5048  032B  1103               	clrz
  5049  032C  1803               	skipnc
  5050  032D  3E01               	addlw	1
  5051  032E  1903               	skipnz
  5052  032F  2B31               	goto	u2512
  5053  0330  07D6               	addwf	___fladd@b+2,f
  5054  0331                     u2512:
  5055  0331  085B               	movf	___fladd@a+3,w
  5056  0332  1103               	clrz
  5057  0333  1803               	skipnc
  5058  0334  3E01               	addlw	1
  5059  0335  1903               	skipnz
  5060  0336  2B38               	goto	u2513
  5061  0337  07D7               	addwf	___fladd@b+3,f
  5062  0338                     u2513:
  5063  0338                     l2152:
  5064  0338  1C57               	btfss	___fladd@b+3,0
  5065  0339  2B3B               	goto	u2521
  5066  033A  2B3C               	goto	u2520
  5067  033B                     u2521:
  5068  033B  2C12               	goto	l2202
  5069  033C                     u2520:
  5070  033C                     l2154:
  5071  033C  1C67               	btfss	___fladd@grs,0
  5072  033D  2B3F               	goto	u2531
  5073  033E  2B40               	goto	u2530
  5074  033F                     u2531:
  5075  033F  2B49               	goto	l2158
  5076  0340                     u2530:
  5077  0340                     l2156:
  5078  0340  0867               	movf	___fladd@grs,w
  5079  0341  00DC               	movwf	??___fladd
  5080  0342  1003               	clrc
  5081  0343  0C5C               	rrf	??___fladd,w
  5082  0344  3801               	iorlw	1
  5083  0345  00DD               	movwf	??___fladd+1
  5084  0346  085D               	movf	??___fladd+1,w
  5085  0347  00E7               	movwf	___fladd@grs
  5086  0348  2B4B               	goto	l2160
  5087  0349                     l2158:
  5088  0349  1003               	clrc
  5089  034A  0CE7               	rrf	___fladd@grs,f
  5090  034B                     l2160:
  5091  034B  1C54               	btfss	___fladd@b,0
  5092  034C  2B4E               	goto	u2541
  5093  034D  2B4F               	goto	u2540
  5094  034E                     u2541:
  5095  034E  2B50               	goto	l2164
  5096  034F                     u2540:
  5097  034F                     l2162:
  5098  034F  17E7               	bsf	___fladd@grs,7
  5099  0350                     l2164:
  5100  0350  3001               	movlw	1
  5101  0351  00DC               	movwf	??___fladd
  5102  0352                     u2555:
  5103  0352  0D57               	rlf	___fladd@b+3,w
  5104  0353  0CD7               	rrf	___fladd@b+3,f
  5105  0354  0CD6               	rrf	___fladd@b+2,f
  5106  0355  0CD5               	rrf	___fladd@b+1,f
  5107  0356  0CD4               	rrf	___fladd@b,f
  5108  0357  0BDC               	decfsz	??___fladd& (0+127),f
  5109  0358  2B52               	goto	u2555
  5110  0359                     l2166:
  5111  0359  3001               	movlw	1
  5112  035A  00DC               	movwf	??___fladd
  5113  035B  085C               	movf	??___fladd,w
  5114  035C  07E6               	addwf	___fladd@bexp,f
  5115  035D  2C12               	goto	l2202
  5116  035E                     l2168:
  5117  035E  0857               	movf	___fladd@b+3,w
  5118  035F  3A80               	xorlw	128
  5119  0360  00FF               	movwf	btemp+1
  5120  0361  085B               	movf	___fladd@a+3,w
  5121  0362  3A80               	xorlw	128
  5122  0363  027F               	subwf	btemp+1,w
  5123  0364  1D03               	skipz
  5124  0365  2B70               	goto	u2563
  5125  0366  085A               	movf	___fladd@a+2,w
  5126  0367  0256               	subwf	___fladd@b+2,w
  5127  0368  1D03               	skipz
  5128  0369  2B70               	goto	u2563
  5129  036A  0859               	movf	___fladd@a+1,w
  5130  036B  0255               	subwf	___fladd@b+1,w
  5131  036C  1D03               	skipz
  5132  036D  2B70               	goto	u2563
  5133  036E  0858               	movf	___fladd@a,w
  5134  036F  0254               	subwf	___fladd@b,w
  5135  0370                     u2563:
  5136  0370  1803               	skipnc
  5137  0371  2B73               	goto	u2561
  5138  0372  2B74               	goto	u2560
  5139  0373                     u2561:
  5140  0373  2BCC               	goto	l2178
  5141  0374                     u2560:
  5142  0374                     l2170:
  5143  0374  30FF               	movlw	255
  5144  0375  00DC               	movwf	??___fladd
  5145  0376  30FF               	movlw	255
  5146  0377  00DD               	movwf	??___fladd+1
  5147  0378  30FF               	movlw	255
  5148  0379  00DE               	movwf	??___fladd+2
  5149  037A  30FF               	movlw	255
  5150  037B  00DF               	movwf	??___fladd+3
  5151  037C  0858               	movf	___fladd@a,w
  5152  037D  00E0               	movwf	??___fladd+4
  5153  037E  0859               	movf	___fladd@a+1,w
  5154  037F  00E1               	movwf	??___fladd+5
  5155  0380  085A               	movf	___fladd@a+2,w
  5156  0381  00E2               	movwf	??___fladd+6
  5157  0382  085B               	movf	___fladd@a+3,w
  5158  0383  00E3               	movwf	??___fladd+7
  5159  0384  0854               	movf	___fladd@b,w
  5160  0385  02E0               	subwf	??___fladd+4,f
  5161  0386  0855               	movf	___fladd@b+1,w
  5162  0387  1C03               	skipc
  5163  0388  0F55               	incfsz	___fladd@b+1,w
  5164  0389  2B8B               	goto	u2571
  5165  038A  2B8C               	goto	u2572
  5166  038B                     u2571:
  5167  038B  02E1               	subwf	??___fladd+5,f
  5168  038C                     u2572:
  5169  038C  0856               	movf	___fladd@b+2,w
  5170  038D  1C03               	skipc
  5171  038E  0F56               	incfsz	___fladd@b+2,w
  5172  038F  2B91               	goto	u2573
  5173  0390  2B92               	goto	u2574
  5174  0391                     u2573:
  5175  0391  02E2               	subwf	??___fladd+6,f
  5176  0392                     u2574:
  5177  0392  0857               	movf	___fladd@b+3,w
  5178  0393  1C03               	skipc
  5179  0394  0F57               	incfsz	___fladd@b+3,w
  5180  0395  2B97               	goto	u2575
  5181  0396  2B98               	goto	u2576
  5182  0397                     u2575:
  5183  0397  02E3               	subwf	??___fladd+7,f
  5184  0398                     u2576:
  5185  0398  0860               	movf	??___fladd+4,w
  5186  0399  07DC               	addwf	??___fladd,f
  5187  039A  0861               	movf	??___fladd+5,w
  5188  039B  1803               	skipnc
  5189  039C  0F61               	incfsz	??___fladd+5,w
  5190  039D  2B9F               	goto	u2580
  5191  039E  2BA0               	goto	u2581
  5192  039F                     u2580:
  5193  039F  07DD               	addwf	??___fladd+1,f
  5194  03A0                     u2581:
  5195  03A0  0862               	movf	??___fladd+6,w
  5196  03A1  1803               	skipnc
  5197  03A2  0F62               	incfsz	??___fladd+6,w
  5198  03A3  2BA5               	goto	u2582
  5199  03A4  2BA6               	goto	u2583
  5200  03A5                     u2582:
  5201  03A5  07DE               	addwf	??___fladd+2,f
  5202  03A6                     u2583:
  5203  03A6  0863               	movf	??___fladd+7,w
  5204  03A7  1803               	skipnc
  5205  03A8  0A63               	incf	??___fladd+7,w
  5206  03A9  07DF               	addwf	??___fladd+3,f
  5207  03AA  085F               	movf	??___fladd+3,w
  5208  03AB  00D7               	movwf	___fladd@b+3
  5209  03AC  085E               	movf	??___fladd+2,w
  5210  03AD  00D6               	movwf	___fladd@b+2
  5211  03AE  085D               	movf	??___fladd+1,w
  5212  03AF  00D5               	movwf	___fladd@b+1
  5213  03B0  085C               	movf	??___fladd,w
  5214  03B1  00D4               	movwf	___fladd@b
  5215  03B2                     l2172:
  5216  03B2  3080               	movlw	128
  5217  03B3  00DC               	movwf	??___fladd
  5218  03B4  085C               	movf	??___fladd,w
  5219  03B5  06E4               	xorwf	___fladd@signs,f
  5220  03B6  09E7               	comf	___fladd@grs,f
  5221  03B7  0AE7               	incf	___fladd@grs,f
  5222  03B8                     l2174:
  5223  03B8  0867               	movf	___fladd@grs,w
  5224  03B9  1D03               	btfss	3,2
  5225  03BA  2BBC               	goto	u2591
  5226  03BB  2BBD               	goto	u2590
  5227  03BC                     u2591:
  5228  03BC  2BDA               	goto	l592
  5229  03BD                     u2590:
  5230  03BD                     l2176:
  5231  03BD  3001               	movlw	1
  5232  03BE  07D4               	addwf	___fladd@b,f
  5233  03BF  3000               	movlw	0
  5234  03C0  1803               	skipnc
  5235  03C1  3001               	movlw	1
  5236  03C2  07D5               	addwf	___fladd@b+1,f
  5237  03C3  3000               	movlw	0
  5238  03C4  1803               	skipnc
  5239  03C5  3001               	movlw	1
  5240  03C6  07D6               	addwf	___fladd@b+2,f
  5241  03C7  3000               	movlw	0
  5242  03C8  1803               	skipnc
  5243  03C9  3001               	movlw	1
  5244  03CA  07D7               	addwf	___fladd@b+3,f
  5245  03CB  2BDA               	goto	l592
  5246  03CC                     l2178:
  5247  03CC  0858               	movf	___fladd@a,w
  5248  03CD  02D4               	subwf	___fladd@b,f
  5249  03CE  0859               	movf	___fladd@a+1,w
  5250  03CF  1C03               	skipc
  5251  03D0  0F59               	incfsz	___fladd@a+1,w
  5252  03D1  02D5               	subwf	___fladd@b+1,f
  5253  03D2  085A               	movf	___fladd@a+2,w
  5254  03D3  1C03               	skipc
  5255  03D4  0F5A               	incfsz	___fladd@a+2,w
  5256  03D5  02D6               	subwf	___fladd@b+2,f
  5257  03D6  085B               	movf	___fladd@a+3,w
  5258  03D7  1C03               	skipc
  5259  03D8  0F5B               	incfsz	___fladd@a+3,w
  5260  03D9  02D7               	subwf	___fladd@b+3,f
  5261  03DA                     l592:
  5262  03DA  0857               	movf	___fladd@b+3,w
  5263  03DB  0456               	iorwf	___fladd@b+2,w
  5264  03DC  0455               	iorwf	___fladd@b+1,w
  5265  03DD  0454               	iorwf	___fladd@b,w
  5266  03DE  1D03               	skipz
  5267  03DF  2BE1               	goto	u2601
  5268  03E0  2BE2               	goto	u2600
  5269  03E1                     u2601:
  5270  03E1  2C0E               	goto	l2200
  5271  03E2                     u2600:
  5272  03E2                     l2180:
  5273  03E2  0867               	movf	___fladd@grs,w
  5274  03E3  1D03               	btfss	3,2
  5275  03E4  2BE6               	goto	u2611
  5276  03E5  2BE7               	goto	u2610
  5277  03E6                     u2611:
  5278  03E6  2C0E               	goto	l2200
  5279  03E7                     u2610:
  5280  03E7                     l2182:
  5281  03E7  3000               	movlw	0
  5282  03E8  00D7               	movwf	?___fladd+3
  5283  03E9  3000               	movlw	0
  5284  03EA  00D6               	movwf	?___fladd+2
  5285  03EB  3000               	movlw	0
  5286  03EC  00D5               	movwf	?___fladd+1
  5287  03ED  3000               	movlw	0
  5288  03EE  00D4               	movwf	?___fladd
  5289  03EF  2C8C               	goto	l584
  5290  03F0                     l2186:
  5291  03F0  3001               	movlw	1
  5292  03F1  00DC               	movwf	??___fladd
  5293  03F2                     u2625:
  5294  03F2  1003               	clrc
  5295  03F3  0DD4               	rlf	___fladd@b,f
  5296  03F4  0DD5               	rlf	___fladd@b+1,f
  5297  03F5  0DD6               	rlf	___fladd@b+2,f
  5298  03F6  0DD7               	rlf	___fladd@b+3,f
  5299  03F7  0BDC               	decfsz	??___fladd,f
  5300  03F8  2BF2               	goto	u2625
  5301  03F9                     l2188:
  5302  03F9  1FE7               	btfss	___fladd@grs,7
  5303  03FA  2BFC               	goto	u2631
  5304  03FB  2BFD               	goto	u2630
  5305  03FC                     u2631:
  5306  03FC  2BFE               	goto	l596
  5307  03FD                     u2630:
  5308  03FD                     l2190:
  5309  03FD  1454               	bsf	___fladd@b,0
  5310  03FE                     l596:
  5311  03FE  1C67               	btfss	___fladd@grs,0
  5312  03FF  2C01               	goto	u2641
  5313  0400  2C02               	goto	u2640
  5314  0401                     u2641:
  5315  0401  2C05               	goto	l2194
  5316  0402                     u2640:
  5317  0402                     l2192:
  5318  0402  1403               	setc
  5319  0403  0DE7               	rlf	___fladd@grs,f
  5320  0404  2C07               	goto	l2196
  5321  0405                     l2194:
  5322  0405  1003               	clrc
  5323  0406  0DE7               	rlf	___fladd@grs,f
  5324  0407                     l2196:
  5325  0407  0866               	movf	___fladd@bexp,w
  5326  0408  1903               	btfsc	3,2
  5327  0409  2C0B               	goto	u2651
  5328  040A  2C0C               	goto	u2650
  5329  040B                     u2651:
  5330  040B  2C0E               	goto	l2200
  5331  040C                     u2650:
  5332  040C                     l2198:
  5333  040C  3001               	movlw	1
  5334  040D  02E6               	subwf	___fladd@bexp,f
  5335  040E                     l2200:
  5336  040E  1FD6               	btfss	___fladd@b+2,7
  5337  040F  2C11               	goto	u2661
  5338  0410  2C12               	goto	u2660
  5339  0411                     u2661:
  5340  0411  2BF0               	goto	l2186
  5341  0412                     u2660:
  5342  0412                     l2202:
  5343  0412  01E5               	clrf	___fladd@aexp
  5344  0413                     l2204:
  5345  0413  1FE7               	btfss	___fladd@grs,7
  5346  0414  2C16               	goto	u2671
  5347  0415  2C17               	goto	u2670
  5348  0416                     u2671:
  5349  0416  2C25               	goto	l2212
  5350  0417                     u2670:
  5351  0417                     l2206:
  5352  0417  0867               	movf	___fladd@grs,w
  5353  0418  397F               	andlw	127
  5354  0419  1903               	btfsc	3,2
  5355  041A  2C1C               	goto	u2681
  5356  041B  2C1D               	goto	u2680
  5357  041C                     u2681:
  5358  041C  2C20               	goto	l602
  5359  041D                     u2680:
  5360  041D                     l2208:
  5361  041D  01E5               	clrf	___fladd@aexp
  5362  041E  0AE5               	incf	___fladd@aexp,f
  5363  041F  2C25               	goto	l2212
  5364  0420                     l602:
  5365  0420  1C54               	btfss	___fladd@b,0
  5366  0421  2C23               	goto	u2691
  5367  0422  2C24               	goto	u2690
  5368  0423                     u2691:
  5369  0423  2C25               	goto	l2212
  5370  0424                     u2690:
  5371  0424  2C1D               	goto	l2208
  5372  0425                     l2212:
  5373  0425  0865               	movf	___fladd@aexp,w
  5374  0426  1903               	btfsc	3,2
  5375  0427  2C29               	goto	u2701
  5376  0428  2C2A               	goto	u2700
  5377  0429                     u2701:
  5378  0429  2C5E               	goto	l605
  5379  042A                     u2700:
  5380  042A                     l2214:
  5381  042A  3001               	movlw	1
  5382  042B  07D4               	addwf	___fladd@b,f
  5383  042C  3000               	movlw	0
  5384  042D  1803               	skipnc
  5385  042E  3001               	movlw	1
  5386  042F  07D5               	addwf	___fladd@b+1,f
  5387  0430  3000               	movlw	0
  5388  0431  1803               	skipnc
  5389  0432  3001               	movlw	1
  5390  0433  07D6               	addwf	___fladd@b+2,f
  5391  0434  3000               	movlw	0
  5392  0435  1803               	skipnc
  5393  0436  3001               	movlw	1
  5394  0437  07D7               	addwf	___fladd@b+3,f
  5395  0438                     l2216:
  5396  0438  1C57               	btfss	___fladd@b+3,0
  5397  0439  2C3B               	goto	u2711
  5398  043A  2C3C               	goto	u2710
  5399  043B                     u2711:
  5400  043B  2C5E               	goto	l605
  5401  043C                     u2710:
  5402  043C                     l2218:
  5403  043C  0854               	movf	___fladd@b,w
  5404  043D  00DC               	movwf	??___fladd
  5405  043E  0855               	movf	___fladd@b+1,w
  5406  043F  00DD               	movwf	??___fladd+1
  5407  0440  0856               	movf	___fladd@b+2,w
  5408  0441  00DE               	movwf	??___fladd+2
  5409  0442  0857               	movf	___fladd@b+3,w
  5410  0443  00DF               	movwf	??___fladd+3
  5411  0444  3001               	movlw	1
  5412  0445  00E0               	movwf	??___fladd+4
  5413  0446                     u2725:
  5414  0446  0D5F               	rlf	??___fladd+3,w
  5415  0447  0CDF               	rrf	??___fladd+3,f
  5416  0448  0CDE               	rrf	??___fladd+2,f
  5417  0449  0CDD               	rrf	??___fladd+1,f
  5418  044A  0CDC               	rrf	??___fladd,f
  5419  044B                     u2720:
  5420  044B  0BE0               	decfsz	??___fladd+4,f
  5421  044C  2C46               	goto	u2725
  5422  044D  085F               	movf	??___fladd+3,w
  5423  044E  00D7               	movwf	___fladd@b+3
  5424  044F  085E               	movf	??___fladd+2,w
  5425  0450  00D6               	movwf	___fladd@b+2
  5426  0451  085D               	movf	??___fladd+1,w
  5427  0452  00D5               	movwf	___fladd@b+1
  5428  0453  085C               	movf	??___fladd,w
  5429  0454  00D4               	movwf	___fladd@b
  5430  0455  0A66               	incf	___fladd@bexp,w
  5431  0456  1903               	btfsc	3,2
  5432  0457  2C59               	goto	u2731
  5433  0458  2C5A               	goto	u2730
  5434  0459                     u2731:
  5435  0459  2C5E               	goto	l605
  5436  045A                     u2730:
  5437  045A                     l2220:
  5438  045A  3001               	movlw	1
  5439  045B  00DC               	movwf	??___fladd
  5440  045C  085C               	movf	??___fladd,w
  5441  045D  07E6               	addwf	___fladd@bexp,f
  5442  045E                     l605:
  5443  045E  0A66               	incf	___fladd@bexp,w
  5444  045F  1903               	btfsc	3,2
  5445  0460  2C62               	goto	u2741
  5446  0461  2C63               	goto	u2740
  5447  0462                     u2741:
  5448  0462  2C68               	goto	l2224
  5449  0463                     u2740:
  5450  0463                     l2222:
  5451  0463  0866               	movf	___fladd@bexp,w
  5452  0464  1D03               	btfss	3,2
  5453  0465  2C67               	goto	u2751
  5454  0466  2C68               	goto	u2750
  5455  0467                     u2751:
  5456  0467  2C76               	goto	l2230
  5457  0468                     u2750:
  5458  0468                     l2224:
  5459  0468  3000               	movlw	0
  5460  0469  00D7               	movwf	___fladd@b+3
  5461  046A  3000               	movlw	0
  5462  046B  00D6               	movwf	___fladd@b+2
  5463  046C  3000               	movlw	0
  5464  046D  00D5               	movwf	___fladd@b+1
  5465  046E  3000               	movlw	0
  5466  046F  00D4               	movwf	___fladd@b
  5467  0470                     l2226:
  5468  0470  0866               	movf	___fladd@bexp,w
  5469  0471  1D03               	btfss	3,2
  5470  0472  2C74               	goto	u2761
  5471  0473  2C75               	goto	u2760
  5472  0474                     u2761:
  5473  0474  2C76               	goto	l2230
  5474  0475                     u2760:
  5475  0475                     l2228:
  5476  0475  01E4               	clrf	___fladd@signs
  5477  0476                     l2230:
  5478  0476  1C66               	btfss	___fladd@bexp,0
  5479  0477  2C79               	goto	u2771
  5480  0478  2C7A               	goto	u2770
  5481  0479                     u2771:
  5482  0479  2C7C               	goto	l2234
  5483  047A                     u2770:
  5484  047A                     l2232:
  5485  047A  17D6               	bsf	___fladd@b+2,7
  5486  047B  2C80               	goto	l613
  5487  047C                     l2234:
  5488  047C  307F               	movlw	127
  5489  047D  00DC               	movwf	??___fladd
  5490  047E  085C               	movf	??___fladd,w
  5491  047F  05D6               	andwf	___fladd@b+2,f
  5492  0480                     l613:
  5493  0480  0866               	movf	___fladd@bexp,w
  5494  0481  00DC               	movwf	??___fladd
  5495  0482  1003               	clrc
  5496  0483  0C5C               	rrf	??___fladd,w
  5497  0484  00DD               	movwf	??___fladd+1
  5498  0485  085D               	movf	??___fladd+1,w
  5499  0486  00D7               	movwf	___fladd@b+3
  5500  0487                     l2236:
  5501  0487  1FE4               	btfss	___fladd@signs,7
  5502  0488  2C8A               	goto	u2781
  5503  0489  2C8B               	goto	u2780
  5504  048A                     u2781:
  5505  048A  2C8C               	goto	l614
  5506  048B                     u2780:
  5507  048B                     l2238:
  5508  048B  17D7               	bsf	___fladd@b+3,7
  5509  048C                     l614:
  5510  048C                     l584:
  5511  048C  0008               	return
  5512  048D                     __end_of___fladd:
  5513                           
  5514                           	psect	text13
  5515  0003                     __ptext13:	
  5516 ;; *************** function _Lcd_Write_String *****************
  5517 ;; Defined at:
  5518 ;;		line 98 in file "LCD_4b.c"
  5519 ;; Parameters:    Size  Location     Type
  5520 ;;  a               1    wreg     PTR unsigned char 
  5521 ;;		 -> STR_3(4), STR_2(4), STR_1(4), 
  5522 ;; Auto vars:     Size  Location     Type
  5523 ;;  a               1    7[COMMON] PTR unsigned char 
  5524 ;;		 -> STR_3(4), STR_2(4), STR_1(4), 
  5525 ;;  i               2    5[COMMON] int 
  5526 ;; Return value:  Size  Location     Type
  5527 ;;                  1    wreg      void 
  5528 ;; Registers used:
  5529 ;;		wreg, fsr0l, fsr0h, status,2, status,0, pclath, cstack
  5530 ;; Tracked objects:
  5531 ;;		On entry : 0/0
  5532 ;;		On exit  : 0/0
  5533 ;;		Unchanged: 0/0
  5534 ;; Data sizes:     COMMON   BANK0   BANK1   BANK3   BANK2
  5535 ;;      Params:         0       0       0       0       0
  5536 ;;      Locals:         3       0       0       0       0
  5537 ;;      Temps:          0       0       0       0       0
  5538 ;;      Totals:         3       0       0       0       0
  5539 ;;Total ram usage:        3 bytes
  5540 ;; Hardware stack levels used:    1
  5541 ;; Hardware stack levels required when called:    2
  5542 ;; This function calls:
  5543 ;;		_Lcd_Write_Char
  5544 ;; This function is called by:
  5545 ;;		_main
  5546 ;; This function uses a non-reentrant model
  5547 ;;
  5548                           
  5549                           
  5550                           ;psect for function _Lcd_Write_String
  5551  0003                     _Lcd_Write_String:
  5552                           
  5553                           ;incstack = 0
  5554                           ; Regs used in _Lcd_Write_String: [wreg-fsr0h+status,2+status,0+pclath+cstack]
  5555                           ;Lcd_Write_String@a stored from wreg
  5556  0003  00F7               	movwf	Lcd_Write_String@a
  5557  0004                     l1964:
  5558                           
  5559                           ;LCD_4b.c: 99:     int i;;LCD_4b.c: 100:     for (i = 0; a[i] != '\0'; i++)
  5560  0004  01F5               	clrf	Lcd_Write_String@i
  5561  0005  01F6               	clrf	Lcd_Write_String@i+1
  5562  0006  281A               	goto	l1970
  5563  0007                     l1966:
  5564                           
  5565                           ;LCD_4b.c: 101:         Lcd_Write_Char(a[i]);
  5566  0007  0875               	movf	Lcd_Write_String@i,w
  5567  0008  0777               	addwf	Lcd_Write_String@a,w
  5568  0009  0084               	movwf	4
  5569  000A  120A  158A  2000  120A  118A  	fcall	stringdir
  5570  000F  120A  158A  21A3  120A  118A  	fcall	_Lcd_Write_Char
  5571  0014                     l1968:
  5572  0014  3001               	movlw	1
  5573  0015  07F5               	addwf	Lcd_Write_String@i,f
  5574  0016  1803               	skipnc
  5575  0017  0AF6               	incf	Lcd_Write_String@i+1,f
  5576  0018  3000               	movlw	0
  5577  0019  07F6               	addwf	Lcd_Write_String@i+1,f
  5578  001A                     l1970:
  5579  001A  0875               	movf	Lcd_Write_String@i,w
  5580  001B  0777               	addwf	Lcd_Write_String@a,w
  5581  001C  0084               	movwf	4
  5582  001D  120A  158A  2000  120A  118A  	fcall	stringdir
  5583  0022  3A00               	xorlw	0
  5584  0023  1D03               	skipz
  5585  0024  2826               	goto	u2211
  5586  0025  2827               	goto	u2210
  5587  0026                     u2211:
  5588  0026  2807               	goto	l1966
  5589  0027                     u2210:
  5590  0027                     l186:
  5591  0027  0008               	return
  5592  0028                     __end_of_Lcd_Write_String:
  5593                           
  5594                           	psect	text14
  5595  09A3                     __ptext14:	
  5596 ;; *************** function _Lcd_Write_Char *****************
  5597 ;; Defined at:
  5598 ;;		line 83 in file "LCD_4b.c"
  5599 ;; Parameters:    Size  Location     Type
  5600 ;;  a               1    wreg     unsigned char 
  5601 ;; Auto vars:     Size  Location     Type
  5602 ;;  a               1    4[COMMON] unsigned char 
  5603 ;;  y               1    3[COMMON] unsigned char 
  5604 ;;  temp            1    2[COMMON] unsigned char 
  5605 ;; Return value:  Size  Location     Type
  5606 ;;                  1    wreg      void 
  5607 ;; Registers used:
  5608 ;;		wreg, status,2, status,0, pclath, cstack
  5609 ;; Tracked objects:
  5610 ;;		On entry : 0/0
  5611 ;;		On exit  : 0/0
  5612 ;;		Unchanged: 0/0
  5613 ;; Data sizes:     COMMON   BANK0   BANK1   BANK3   BANK2
  5614 ;;      Params:         0       0       0       0       0
  5615 ;;      Locals:         3       0       0       0       0
  5616 ;;      Temps:          1       0       0       0       0
  5617 ;;      Totals:         4       0       0       0       0
  5618 ;;Total ram usage:        4 bytes
  5619 ;; Hardware stack levels used:    1
  5620 ;; Hardware stack levels required when called:    1
  5621 ;; This function calls:
  5622 ;;		_Lcd_Port
  5623 ;; This function is called by:
  5624 ;;		_main
  5625 ;;		_Lcd_Write_String
  5626 ;; This function uses a non-reentrant model
  5627 ;;
  5628                           
  5629                           
  5630                           ;psect for function _Lcd_Write_Char
  5631  09A3                     _Lcd_Write_Char:
  5632                           
  5633                           ;incstack = 0
  5634                           ; Regs used in _Lcd_Write_Char: [wreg+status,2+status,0+pclath+cstack]
  5635                           ;Lcd_Write_Char@a stored from wreg
  5636  09A3  00F4               	movwf	Lcd_Write_Char@a
  5637  09A4                     l1776:
  5638                           
  5639                           ;LCD_4b.c: 84:     char temp, y;;LCD_4b.c: 85:     temp = a & 0x0F;
  5640  09A4  0874               	movf	Lcd_Write_Char@a,w
  5641  09A5  390F               	andlw	15
  5642  09A6  00F1               	movwf	??_Lcd_Write_Char
  5643  09A7  0871               	movf	??_Lcd_Write_Char,w
  5644  09A8  00F2               	movwf	Lcd_Write_Char@temp
  5645                           
  5646                           ;LCD_4b.c: 86:     y = a & 0xF0;
  5647  09A9  0874               	movf	Lcd_Write_Char@a,w
  5648  09AA  39F0               	andlw	240
  5649  09AB  00F1               	movwf	??_Lcd_Write_Char
  5650  09AC  0871               	movf	??_Lcd_Write_Char,w
  5651  09AD  00F3               	movwf	Lcd_Write_Char@y
  5652  09AE                     l1778:
  5653                           
  5654                           ;LCD_4b.c: 87:     PORTDbits.RD2 = 1;
  5655  09AE  1283               	bcf	3,5	;RP0=0, select bank0
  5656  09AF  1303               	bcf	3,6	;RP1=0, select bank0
  5657  09B0  1508               	bsf	8,2	;volatile
  5658  09B1                     l1780:
  5659                           
  5660                           ;LCD_4b.c: 88:     Lcd_Port(y >> 4);
  5661  09B1  0873               	movf	Lcd_Write_Char@y,w
  5662  09B2  00F1               	movwf	??_Lcd_Write_Char
  5663  09B3  3004               	movlw	4
  5664  09B4                     u1915:
  5665  09B4  1003               	clrc
  5666  09B5  0CF1               	rrf	??_Lcd_Write_Char,f
  5667  09B6  3EFF               	addlw	-1
  5668  09B7  1D03               	skipz
  5669  09B8  29B4               	goto	u1915
  5670  09B9  0871               	movf	??_Lcd_Write_Char,w
  5671  09BA  120A  158A  2108  120A  158A  	fcall	_Lcd_Port
  5672  09BF                     l1782:
  5673                           
  5674                           ;LCD_4b.c: 89:     RD3 = 1;
  5675  09BF  1283               	bcf	3,5	;RP0=0, select bank0
  5676  09C0  1303               	bcf	3,6	;RP1=0, select bank0
  5677  09C1  1588               	bsf	8,3	;volatile
  5678  09C2                     l1784:
  5679                           
  5680                           ;LCD_4b.c: 90:     _delay((unsigned long)((40)*(4000000/4000000.0)));
  5681  09C2  300D               	movlw	13
  5682  09C3  00F1               	movwf	??_Lcd_Write_Char
  5683  09C4                     u3637:
  5684  09C4  0BF1               	decfsz	??_Lcd_Write_Char,f
  5685  09C5  29C4               	goto	u3637
  5686  09C6                     l1786:
  5687                           
  5688                           ;LCD_4b.c: 91:     RD3 = 0;
  5689  09C6  1283               	bcf	3,5	;RP0=0, select bank0
  5690  09C7  1303               	bcf	3,6	;RP1=0, select bank0
  5691  09C8  1188               	bcf	8,3	;volatile
  5692  09C9                     l1788:
  5693                           
  5694                           ;LCD_4b.c: 92:     Lcd_Port(temp);
  5695  09C9  0872               	movf	Lcd_Write_Char@temp,w
  5696  09CA  120A  158A  2108  120A  158A  	fcall	_Lcd_Port
  5697  09CF                     l1790:
  5698                           
  5699                           ;LCD_4b.c: 93:     RD3 = 1;
  5700  09CF  1283               	bcf	3,5	;RP0=0, select bank0
  5701  09D0  1303               	bcf	3,6	;RP1=0, select bank0
  5702  09D1  1588               	bsf	8,3	;volatile
  5703  09D2                     l1792:
  5704                           
  5705                           ;LCD_4b.c: 94:     _delay((unsigned long)((40)*(4000000/4000000.0)));
  5706  09D2  300D               	movlw	13
  5707  09D3  00F1               	movwf	??_Lcd_Write_Char
  5708  09D4                     u3647:
  5709  09D4  0BF1               	decfsz	??_Lcd_Write_Char,f
  5710  09D5  29D4               	goto	u3647
  5711  09D6                     l1794:
  5712                           
  5713                           ;LCD_4b.c: 95:     RD3 = 0;
  5714  09D6  1283               	bcf	3,5	;RP0=0, select bank0
  5715  09D7  1303               	bcf	3,6	;RP1=0, select bank0
  5716  09D8  1188               	bcf	8,3	;volatile
  5717  09D9                     l180:
  5718  09D9  0008               	return
  5719  09DA                     __end_of_Lcd_Write_Char:
  5720                           
  5721                           	psect	text15
  5722  0A12                     __ptext15:	
  5723 ;; *************** function _Lcd_Set_Cursor *****************
  5724 ;; Defined at:
  5725 ;;		line 48 in file "LCD_4b.c"
  5726 ;; Parameters:    Size  Location     Type
  5727 ;;  a               1    wreg     unsigned char 
  5728 ;;  b               1    4[COMMON] unsigned char 
  5729 ;; Auto vars:     Size  Location     Type
  5730 ;;  a               1    7[COMMON] unsigned char 
  5731 ;;  temp            1   10[COMMON] unsigned char 
  5732 ;;  y               1    9[COMMON] unsigned char 
  5733 ;;  z               1    8[COMMON] unsigned char 
  5734 ;; Return value:  Size  Location     Type
  5735 ;;                  1    wreg      void 
  5736 ;; Registers used:
  5737 ;;		wreg, status,2, status,0, pclath, cstack
  5738 ;; Tracked objects:
  5739 ;;		On entry : 0/0
  5740 ;;		On exit  : 0/0
  5741 ;;		Unchanged: 0/0
  5742 ;; Data sizes:     COMMON   BANK0   BANK1   BANK3   BANK2
  5743 ;;      Params:         1       0       0       0       0
  5744 ;;      Locals:         4       0       0       0       0
  5745 ;;      Temps:          2       0       0       0       0
  5746 ;;      Totals:         7       0       0       0       0
  5747 ;;Total ram usage:        7 bytes
  5748 ;; Hardware stack levels used:    1
  5749 ;; Hardware stack levels required when called:    2
  5750 ;; This function calls:
  5751 ;;		_Lcd_Cmd
  5752 ;; This function is called by:
  5753 ;;		_main
  5754 ;; This function uses a non-reentrant model
  5755 ;;
  5756                           
  5757                           
  5758                           ;psect for function _Lcd_Set_Cursor
  5759  0A12                     _Lcd_Set_Cursor:
  5760                           
  5761                           ;incstack = 0
  5762                           ; Regs used in _Lcd_Set_Cursor: [wreg+status,2+status,0+pclath+cstack]
  5763                           ;Lcd_Set_Cursor@a stored from wreg
  5764  0A12  00F7               	movwf	Lcd_Set_Cursor@a
  5765  0A13                     l1944:
  5766                           
  5767                           ;LCD_4b.c: 49:     char temp, z, y;;LCD_4b.c: 50:     if (a == 1) {
  5768  0A13  0377               	decf	Lcd_Set_Cursor@a,w
  5769  0A14  1D03               	btfss	3,2
  5770  0A15  2A17               	goto	u2171
  5771  0A16  2A18               	goto	u2170
  5772  0A17                     u2171:
  5773  0A17  2A3B               	goto	l1954
  5774  0A18                     u2170:
  5775  0A18                     l1946:
  5776                           
  5777                           ;LCD_4b.c: 51:         temp = 0x80 + b - 1;
  5778  0A18  0874               	movf	Lcd_Set_Cursor@b,w
  5779  0A19  3E7F               	addlw	127
  5780  0A1A  00F5               	movwf	??_Lcd_Set_Cursor
  5781  0A1B  0875               	movf	??_Lcd_Set_Cursor,w
  5782  0A1C  00FA               	movwf	Lcd_Set_Cursor@temp
  5783                           
  5784                           ;LCD_4b.c: 52:         z = temp >> 4;
  5785  0A1D  087A               	movf	Lcd_Set_Cursor@temp,w
  5786  0A1E  00F5               	movwf	??_Lcd_Set_Cursor
  5787  0A1F  3004               	movlw	4
  5788  0A20                     u2185:
  5789  0A20  1003               	clrc
  5790  0A21  0CF5               	rrf	??_Lcd_Set_Cursor,f
  5791  0A22  3EFF               	addlw	-1
  5792  0A23  1D03               	skipz
  5793  0A24  2A20               	goto	u2185
  5794  0A25  0875               	movf	??_Lcd_Set_Cursor,w
  5795  0A26  00F6               	movwf	??_Lcd_Set_Cursor+1
  5796  0A27  0876               	movf	??_Lcd_Set_Cursor+1,w
  5797  0A28  00F8               	movwf	Lcd_Set_Cursor@z
  5798  0A29                     l1948:
  5799                           
  5800                           ;LCD_4b.c: 53:         y = temp & 0x0F;
  5801  0A29  087A               	movf	Lcd_Set_Cursor@temp,w
  5802  0A2A  390F               	andlw	15
  5803  0A2B  00F5               	movwf	??_Lcd_Set_Cursor
  5804  0A2C  0875               	movf	??_Lcd_Set_Cursor,w
  5805  0A2D  00F9               	movwf	Lcd_Set_Cursor@y
  5806  0A2E                     l1950:
  5807                           
  5808                           ;LCD_4b.c: 54:         Lcd_Cmd(z);
  5809  0A2E  0878               	movf	Lcd_Set_Cursor@z,w
  5810  0A2F  120A  158A  20EE  120A  158A  	fcall	_Lcd_Cmd
  5811  0A34                     l1952:
  5812                           
  5813                           ;LCD_4b.c: 55:         Lcd_Cmd(y);
  5814  0A34  0879               	movf	Lcd_Set_Cursor@y,w
  5815  0A35  120A  158A  20EE  120A  158A  	fcall	_Lcd_Cmd
  5816                           
  5817                           ;LCD_4b.c: 56:     } else if (a == 2) {
  5818  0A3A  2A63               	goto	l174
  5819  0A3B                     l1954:
  5820  0A3B  3002               	movlw	2
  5821  0A3C  0677               	xorwf	Lcd_Set_Cursor@a,w
  5822  0A3D  1D03               	btfss	3,2
  5823  0A3E  2A40               	goto	u2191
  5824  0A3F  2A41               	goto	u2190
  5825  0A40                     u2191:
  5826  0A40  2A63               	goto	l174
  5827  0A41                     u2190:
  5828  0A41                     l1956:
  5829                           
  5830                           ;LCD_4b.c: 57:         temp = 0xC0 + b - 1;
  5831  0A41  0874               	movf	Lcd_Set_Cursor@b,w
  5832  0A42  3EBF               	addlw	191
  5833  0A43  00F5               	movwf	??_Lcd_Set_Cursor
  5834  0A44  0875               	movf	??_Lcd_Set_Cursor,w
  5835  0A45  00FA               	movwf	Lcd_Set_Cursor@temp
  5836                           
  5837                           ;LCD_4b.c: 58:         z = temp >> 4;
  5838  0A46  087A               	movf	Lcd_Set_Cursor@temp,w
  5839  0A47  00F5               	movwf	??_Lcd_Set_Cursor
  5840  0A48  3004               	movlw	4
  5841  0A49                     u2205:
  5842  0A49  1003               	clrc
  5843  0A4A  0CF5               	rrf	??_Lcd_Set_Cursor,f
  5844  0A4B  3EFF               	addlw	-1
  5845  0A4C  1D03               	skipz
  5846  0A4D  2A49               	goto	u2205
  5847  0A4E  0875               	movf	??_Lcd_Set_Cursor,w
  5848  0A4F  00F6               	movwf	??_Lcd_Set_Cursor+1
  5849  0A50  0876               	movf	??_Lcd_Set_Cursor+1,w
  5850  0A51  00F8               	movwf	Lcd_Set_Cursor@z
  5851  0A52                     l1958:
  5852                           
  5853                           ;LCD_4b.c: 59:         y = temp & 0x0F;
  5854  0A52  087A               	movf	Lcd_Set_Cursor@temp,w
  5855  0A53  390F               	andlw	15
  5856  0A54  00F5               	movwf	??_Lcd_Set_Cursor
  5857  0A55  0875               	movf	??_Lcd_Set_Cursor,w
  5858  0A56  00F9               	movwf	Lcd_Set_Cursor@y
  5859  0A57                     l1960:
  5860                           
  5861                           ;LCD_4b.c: 60:         Lcd_Cmd(z);
  5862  0A57  0878               	movf	Lcd_Set_Cursor@z,w
  5863  0A58  120A  158A  20EE  120A  158A  	fcall	_Lcd_Cmd
  5864  0A5D                     l1962:
  5865                           
  5866                           ;LCD_4b.c: 61:         Lcd_Cmd(y);
  5867  0A5D  0879               	movf	Lcd_Set_Cursor@y,w
  5868  0A5E  120A  158A  20EE  120A  158A  	fcall	_Lcd_Cmd
  5869  0A63                     l174:
  5870  0A63  0008               	return
  5871  0A64                     __end_of_Lcd_Set_Cursor:
  5872                           
  5873                           	psect	text16
  5874  0ABD                     __ptext16:	
  5875 ;; *************** function _Lcd_Init *****************
  5876 ;; Defined at:
  5877 ;;		line 65 in file "LCD_4b.c"
  5878 ;; Parameters:    Size  Location     Type
  5879 ;;		None
  5880 ;; Auto vars:     Size  Location     Type
  5881 ;;		None
  5882 ;; Return value:  Size  Location     Type
  5883 ;;                  1    wreg      void 
  5884 ;; Registers used:
  5885 ;;		wreg, status,2, status,0, pclath, cstack
  5886 ;; Tracked objects:
  5887 ;;		On entry : 0/0
  5888 ;;		On exit  : 0/0
  5889 ;;		Unchanged: 0/0
  5890 ;; Data sizes:     COMMON   BANK0   BANK1   BANK3   BANK2
  5891 ;;      Params:         0       0       0       0       0
  5892 ;;      Locals:         0       0       0       0       0
  5893 ;;      Temps:          2       0       0       0       0
  5894 ;;      Totals:         2       0       0       0       0
  5895 ;;Total ram usage:        2 bytes
  5896 ;; Hardware stack levels used:    1
  5897 ;; Hardware stack levels required when called:    2
  5898 ;; This function calls:
  5899 ;;		_Lcd_Cmd
  5900 ;;		_Lcd_Port
  5901 ;; This function is called by:
  5902 ;;		_main
  5903 ;; This function uses a non-reentrant model
  5904 ;;
  5905                           
  5906                           
  5907                           ;psect for function _Lcd_Init
  5908  0ABD                     _Lcd_Init:
  5909  0ABD                     l1932:	
  5910                           ;incstack = 0
  5911                           ; Regs used in _Lcd_Init: [wreg+status,2+status,0+pclath+cstack]
  5912                           
  5913                           
  5914                           ;LCD_4b.c: 66:     Lcd_Port(0x00);
  5915  0ABD  3000               	movlw	0
  5916  0ABE  120A  158A  2108  120A  158A  	fcall	_Lcd_Port
  5917  0AC3                     l1934:
  5918                           
  5919                           ;LCD_4b.c: 67:     _delay((unsigned long)((20)*(4000000/4000.0)));
  5920  0AC3  301A               	movlw	26
  5921  0AC4  00F5               	movwf	??_Lcd_Init+1
  5922  0AC5  30F8               	movlw	248
  5923  0AC6  00F4               	movwf	??_Lcd_Init
  5924  0AC7                     u3657:
  5925  0AC7  0BF4               	decfsz	??_Lcd_Init,f
  5926  0AC8  2AC7               	goto	u3657
  5927  0AC9  0BF5               	decfsz	??_Lcd_Init+1,f
  5928  0ACA  2AC7               	goto	u3657
  5929  0ACB  0000               	nop
  5930  0ACC                     l1936:
  5931                           
  5932                           ;LCD_4b.c: 68:     Lcd_Cmd(0x03);
  5933  0ACC  3003               	movlw	3
  5934  0ACD  120A  158A  20EE  120A  158A  	fcall	_Lcd_Cmd
  5935                           
  5936                           ;LCD_4b.c: 69:     _delay((unsigned long)((5)*(4000000/4000.0)));
  5937  0AD2  3007               	movlw	7
  5938  0AD3  00F5               	movwf	??_Lcd_Init+1
  5939  0AD4  307D               	movlw	125
  5940  0AD5  00F4               	movwf	??_Lcd_Init
  5941  0AD6                     u3667:
  5942  0AD6  0BF4               	decfsz	??_Lcd_Init,f
  5943  0AD7  2AD6               	goto	u3667
  5944  0AD8  0BF5               	decfsz	??_Lcd_Init+1,f
  5945  0AD9  2AD6               	goto	u3667
  5946  0ADA                     l1938:
  5947                           
  5948                           ;LCD_4b.c: 70:     Lcd_Cmd(0x03);
  5949  0ADA  3003               	movlw	3
  5950  0ADB  120A  158A  20EE  120A  158A  	fcall	_Lcd_Cmd
  5951  0AE0                     l1940:
  5952                           
  5953                           ;LCD_4b.c: 71:     _delay((unsigned long)((11)*(4000000/4000.0)));
  5954  0AE0  300F               	movlw	15
  5955  0AE1  00F5               	movwf	??_Lcd_Init+1
  5956  0AE2  3047               	movlw	71
  5957  0AE3  00F4               	movwf	??_Lcd_Init
  5958  0AE4                     u3677:
  5959  0AE4  0BF4               	decfsz	??_Lcd_Init,f
  5960  0AE5  2AE4               	goto	u3677
  5961  0AE6  0BF5               	decfsz	??_Lcd_Init+1,f
  5962  0AE7  2AE4               	goto	u3677
  5963  0AE8  2AE9               	nop2
  5964                           
  5965                           ;LCD_4b.c: 72:     Lcd_Cmd(0x03);
  5966  0AE9  3003               	movlw	3
  5967  0AEA  120A  158A  20EE  120A  158A  	fcall	_Lcd_Cmd
  5968                           
  5969                           ;LCD_4b.c: 74:     Lcd_Cmd(0x02);
  5970  0AEF  3002               	movlw	2
  5971  0AF0  120A  158A  20EE  120A  158A  	fcall	_Lcd_Cmd
  5972                           
  5973                           ;LCD_4b.c: 75:     Lcd_Cmd(0x02);
  5974  0AF5  3002               	movlw	2
  5975  0AF6  120A  158A  20EE  120A  158A  	fcall	_Lcd_Cmd
  5976                           
  5977                           ;LCD_4b.c: 76:     Lcd_Cmd(0x08);
  5978  0AFB  3008               	movlw	8
  5979  0AFC  120A  158A  20EE  120A  158A  	fcall	_Lcd_Cmd
  5980                           
  5981                           ;LCD_4b.c: 77:     Lcd_Cmd(0x00);
  5982  0B01  3000               	movlw	0
  5983  0B02  120A  158A  20EE  120A  158A  	fcall	_Lcd_Cmd
  5984                           
  5985                           ;LCD_4b.c: 78:     Lcd_Cmd(0x0C);
  5986  0B07  300C               	movlw	12
  5987  0B08  120A  158A  20EE  120A  158A  	fcall	_Lcd_Cmd
  5988                           
  5989                           ;LCD_4b.c: 79:     Lcd_Cmd(0x00);
  5990  0B0D  3000               	movlw	0
  5991  0B0E  120A  158A  20EE  120A  158A  	fcall	_Lcd_Cmd
  5992                           
  5993                           ;LCD_4b.c: 80:     Lcd_Cmd(0x06);
  5994  0B13  3006               	movlw	6
  5995  0B14  120A  158A  20EE  120A  158A  	fcall	_Lcd_Cmd
  5996  0B19                     l177:
  5997  0B19  0008               	return
  5998  0B1A                     __end_of_Lcd_Init:
  5999                           
  6000                           	psect	text17
  6001  08E1                     __ptext17:	
  6002 ;; *************** function _Lcd_Clear *****************
  6003 ;; Defined at:
  6004 ;;		line 43 in file "LCD_4b.c"
  6005 ;; Parameters:    Size  Location     Type
  6006 ;;		None
  6007 ;; Auto vars:     Size  Location     Type
  6008 ;;		None
  6009 ;; Return value:  Size  Location     Type
  6010 ;;                  1    wreg      void 
  6011 ;; Registers used:
  6012 ;;		wreg, status,2, status,0, pclath, cstack
  6013 ;; Tracked objects:
  6014 ;;		On entry : 0/0
  6015 ;;		On exit  : 0/0
  6016 ;;		Unchanged: 0/0
  6017 ;; Data sizes:     COMMON   BANK0   BANK1   BANK3   BANK2
  6018 ;;      Params:         0       0       0       0       0
  6019 ;;      Locals:         0       0       0       0       0
  6020 ;;      Temps:          0       0       0       0       0
  6021 ;;      Totals:         0       0       0       0       0
  6022 ;;Total ram usage:        0 bytes
  6023 ;; Hardware stack levels used:    1
  6024 ;; Hardware stack levels required when called:    2
  6025 ;; This function calls:
  6026 ;;		_Lcd_Cmd
  6027 ;; This function is called by:
  6028 ;;		_main
  6029 ;; This function uses a non-reentrant model
  6030 ;;
  6031                           
  6032                           
  6033                           ;psect for function _Lcd_Clear
  6034  08E1                     _Lcd_Clear:
  6035  08E1                     l1942:	
  6036                           ;incstack = 0
  6037                           ; Regs used in _Lcd_Clear: [wreg+status,2+status,0+pclath+cstack]
  6038                           
  6039                           
  6040                           ;LCD_4b.c: 44:     Lcd_Cmd(0);
  6041  08E1  3000               	movlw	0
  6042  08E2  120A  158A  20EE  120A  158A  	fcall	_Lcd_Cmd
  6043                           
  6044                           ;LCD_4b.c: 45:     Lcd_Cmd(1);
  6045  08E7  3001               	movlw	1
  6046  08E8  120A  158A  20EE  120A  158A  	fcall	_Lcd_Cmd
  6047  08ED                     l168:
  6048  08ED  0008               	return
  6049  08EE                     __end_of_Lcd_Clear:
  6050                           
  6051                           	psect	text18
  6052  08EE                     __ptext18:	
  6053 ;; *************** function _Lcd_Cmd *****************
  6054 ;; Defined at:
  6055 ;;		line 35 in file "LCD_4b.c"
  6056 ;; Parameters:    Size  Location     Type
  6057 ;;  a               1    wreg     unsigned char 
  6058 ;; Auto vars:     Size  Location     Type
  6059 ;;  a               1    3[COMMON] unsigned char 
  6060 ;; Return value:  Size  Location     Type
  6061 ;;                  1    wreg      void 
  6062 ;; Registers used:
  6063 ;;		wreg, status,2, status,0, pclath, cstack
  6064 ;; Tracked objects:
  6065 ;;		On entry : 0/0
  6066 ;;		On exit  : 0/0
  6067 ;;		Unchanged: 0/0
  6068 ;; Data sizes:     COMMON   BANK0   BANK1   BANK3   BANK2
  6069 ;;      Params:         0       0       0       0       0
  6070 ;;      Locals:         1       0       0       0       0
  6071 ;;      Temps:          2       0       0       0       0
  6072 ;;      Totals:         3       0       0       0       0
  6073 ;;Total ram usage:        3 bytes
  6074 ;; Hardware stack levels used:    1
  6075 ;; Hardware stack levels required when called:    1
  6076 ;; This function calls:
  6077 ;;		_Lcd_Port
  6078 ;; This function is called by:
  6079 ;;		_Lcd_Clear
  6080 ;;		_Lcd_Set_Cursor
  6081 ;;		_Lcd_Init
  6082 ;;		_Lcd_Shift_Right
  6083 ;;		_Lcd_Shift_Left
  6084 ;; This function uses a non-reentrant model
  6085 ;;
  6086                           
  6087                           
  6088                           ;psect for function _Lcd_Cmd
  6089  08EE                     _Lcd_Cmd:
  6090                           
  6091                           ;incstack = 0
  6092                           ; Regs used in _Lcd_Cmd: [wreg+status,2+status,0+pclath+cstack]
  6093                           ;Lcd_Cmd@a stored from wreg
  6094  08EE  00F3               	movwf	Lcd_Cmd@a
  6095  08EF                     l1812:
  6096                           
  6097                           ;LCD_4b.c: 36:     PORTDbits.RD2 = 0;
  6098  08EF  1283               	bcf	3,5	;RP0=0, select bank0
  6099  08F0  1303               	bcf	3,6	;RP1=0, select bank0
  6100  08F1  1108               	bcf	8,2	;volatile
  6101  08F2                     l1814:
  6102                           
  6103                           ;LCD_4b.c: 37:     Lcd_Port(a);
  6104  08F2  0873               	movf	Lcd_Cmd@a,w
  6105  08F3  120A  158A  2108  120A  158A  	fcall	_Lcd_Port
  6106  08F8                     l1816:
  6107                           
  6108                           ;LCD_4b.c: 38:     RD3 = 1;
  6109  08F8  1283               	bcf	3,5	;RP0=0, select bank0
  6110  08F9  1303               	bcf	3,6	;RP1=0, select bank0
  6111  08FA  1588               	bsf	8,3	;volatile
  6112  08FB                     l1818:
  6113                           
  6114                           ;LCD_4b.c: 39:     _delay((unsigned long)((4)*(4000000/4000.0)));
  6115  08FB  3006               	movlw	6
  6116  08FC  00F2               	movwf	??_Lcd_Cmd+1
  6117  08FD  3030               	movlw	48
  6118  08FE  00F1               	movwf	??_Lcd_Cmd
  6119  08FF                     u3687:
  6120  08FF  0BF1               	decfsz	??_Lcd_Cmd,f
  6121  0900  28FF               	goto	u3687
  6122  0901  0BF2               	decfsz	??_Lcd_Cmd+1,f
  6123  0902  28FF               	goto	u3687
  6124  0903  0000               	nop
  6125  0904                     l1820:
  6126                           
  6127                           ;LCD_4b.c: 40:     RD3 = 0;
  6128  0904  1283               	bcf	3,5	;RP0=0, select bank0
  6129  0905  1303               	bcf	3,6	;RP1=0, select bank0
  6130  0906  1188               	bcf	8,3	;volatile
  6131  0907                     l165:
  6132  0907  0008               	return
  6133  0908                     __end_of_Lcd_Cmd:
  6134                           
  6135                           	psect	text19
  6136  0908                     __ptext19:	
  6137 ;; *************** function _Lcd_Port *****************
  6138 ;; Defined at:
  6139 ;;		line 13 in file "LCD_4b.c"
  6140 ;; Parameters:    Size  Location     Type
  6141 ;;  a               1    wreg     unsigned char 
  6142 ;; Auto vars:     Size  Location     Type
  6143 ;;  a               1    0[COMMON] unsigned char 
  6144 ;; Return value:  Size  Location     Type
  6145 ;;                  1    wreg      void 
  6146 ;; Registers used:
  6147 ;;		wreg
  6148 ;; Tracked objects:
  6149 ;;		On entry : 0/0
  6150 ;;		On exit  : 0/0
  6151 ;;		Unchanged: 0/0
  6152 ;; Data sizes:     COMMON   BANK0   BANK1   BANK3   BANK2
  6153 ;;      Params:         0       0       0       0       0
  6154 ;;      Locals:         1       0       0       0       0
  6155 ;;      Temps:          0       0       0       0       0
  6156 ;;      Totals:         1       0       0       0       0
  6157 ;;Total ram usage:        1 bytes
  6158 ;; Hardware stack levels used:    1
  6159 ;; This function calls:
  6160 ;;		Nothing
  6161 ;; This function is called by:
  6162 ;;		_Lcd_Cmd
  6163 ;;		_Lcd_Init
  6164 ;;		_Lcd_Write_Char
  6165 ;; This function uses a non-reentrant model
  6166 ;;
  6167                           
  6168                           
  6169                           ;psect for function _Lcd_Port
  6170  0908                     _Lcd_Port:
  6171                           
  6172                           ;incstack = 0
  6173                           ; Regs used in _Lcd_Port: [wreg]
  6174                           ;Lcd_Port@a stored from wreg
  6175  0908  00F0               	movwf	Lcd_Port@a
  6176  0909                     l1742:
  6177                           
  6178                           ;LCD_4b.c: 14:     if (a & 1)
  6179  0909  1C70               	btfss	Lcd_Port@a,0
  6180  090A  290C               	goto	u1801
  6181  090B  290D               	goto	u1800
  6182  090C                     u1801:
  6183  090C  2911               	goto	l154
  6184  090D                     u1800:
  6185  090D                     l1744:
  6186                           
  6187                           ;LCD_4b.c: 15:         RD4 = 1;
  6188  090D  1283               	bcf	3,5	;RP0=0, select bank0
  6189  090E  1303               	bcf	3,6	;RP1=0, select bank0
  6190  090F  1608               	bsf	8,4	;volatile
  6191  0910  2914               	goto	l155
  6192  0911                     l154:	
  6193                           ;LCD_4b.c: 16:     else
  6194                           
  6195                           
  6196                           ;LCD_4b.c: 17:         RD4 = 0;
  6197  0911  1283               	bcf	3,5	;RP0=0, select bank0
  6198  0912  1303               	bcf	3,6	;RP1=0, select bank0
  6199  0913  1208               	bcf	8,4	;volatile
  6200  0914                     l155:
  6201                           
  6202                           ;LCD_4b.c: 19:     if (a & 2)
  6203  0914  1CF0               	btfss	Lcd_Port@a,1
  6204  0915  2917               	goto	u1811
  6205  0916  2918               	goto	u1810
  6206  0917                     u1811:
  6207  0917  291A               	goto	l156
  6208  0918                     u1810:
  6209  0918                     l1746:
  6210                           
  6211                           ;LCD_4b.c: 20:         RD5 = 1;
  6212  0918  1688               	bsf	8,5	;volatile
  6213  0919  291B               	goto	l157
  6214  091A                     l156:	
  6215                           ;LCD_4b.c: 21:     else
  6216                           
  6217                           
  6218                           ;LCD_4b.c: 22:         RD5 = 0;
  6219  091A  1288               	bcf	8,5	;volatile
  6220  091B                     l157:
  6221                           
  6222                           ;LCD_4b.c: 24:     if (a & 4)
  6223  091B  1D70               	btfss	Lcd_Port@a,2
  6224  091C  291E               	goto	u1821
  6225  091D  291F               	goto	u1820
  6226  091E                     u1821:
  6227  091E  2921               	goto	l158
  6228  091F                     u1820:
  6229  091F                     l1748:
  6230                           
  6231                           ;LCD_4b.c: 25:         RD6 = 1;
  6232  091F  1708               	bsf	8,6	;volatile
  6233  0920  2922               	goto	l159
  6234  0921                     l158:	
  6235                           ;LCD_4b.c: 26:     else
  6236                           
  6237                           
  6238                           ;LCD_4b.c: 27:         RD6 = 0;
  6239  0921  1308               	bcf	8,6	;volatile
  6240  0922                     l159:
  6241                           
  6242                           ;LCD_4b.c: 29:     if (a & 8)
  6243  0922  1DF0               	btfss	Lcd_Port@a,3
  6244  0923  2925               	goto	u1831
  6245  0924  2926               	goto	u1830
  6246  0925                     u1831:
  6247  0925  2928               	goto	l160
  6248  0926                     u1830:
  6249  0926                     l1750:
  6250                           
  6251                           ;LCD_4b.c: 30:         RD7 = 1;
  6252  0926  1788               	bsf	8,7	;volatile
  6253  0927  2929               	goto	l162
  6254  0928                     l160:	
  6255                           ;LCD_4b.c: 31:     else
  6256                           
  6257                           
  6258                           ;LCD_4b.c: 32:         RD7 = 0;
  6259  0928  1388               	bcf	8,7	;volatile
  6260  0929                     l162:
  6261  0929  0008               	return
  6262  092A                     __end_of_Lcd_Port:
  6263                           
  6264                           	psect	text20
  6265  08CA                     __ptext20:	
  6266 ;; *************** function _I2C_Master_Write *****************
  6267 ;; Defined at:
  6268 ;;		line 65 in file "I2C.c"
  6269 ;; Parameters:    Size  Location     Type
  6270 ;;  d               2    0[COMMON] unsigned int 
  6271 ;; Auto vars:     Size  Location     Type
  6272 ;;		None
  6273 ;; Return value:  Size  Location     Type
  6274 ;;                  1    wreg      void 
  6275 ;; Registers used:
  6276 ;;		wreg, status,2, status,0, pclath, cstack
  6277 ;; Tracked objects:
  6278 ;;		On entry : 0/0
  6279 ;;		On exit  : 0/0
  6280 ;;		Unchanged: 0/0
  6281 ;; Data sizes:     COMMON   BANK0   BANK1   BANK3   BANK2
  6282 ;;      Params:         2       0       0       0       0
  6283 ;;      Locals:         0       0       0       0       0
  6284 ;;      Temps:          0       0       0       0       0
  6285 ;;      Totals:         2       0       0       0       0
  6286 ;;Total ram usage:        2 bytes
  6287 ;; Hardware stack levels used:    1
  6288 ;; Hardware stack levels required when called:    1
  6289 ;; This function calls:
  6290 ;;		_I2C_Master_Wait
  6291 ;; This function is called by:
  6292 ;;		_main
  6293 ;; This function uses a non-reentrant model
  6294 ;;
  6295                           
  6296                           
  6297                           ;psect for function _I2C_Master_Write
  6298  08CA                     _I2C_Master_Write:
  6299  08CA                     l1976:	
  6300                           ;incstack = 0
  6301                           ; Regs used in _I2C_Master_Write: [wreg+status,2+status,0+pclath+cstack]
  6302                           
  6303                           
  6304                           ;I2C.c: 65: void I2C_Master_Write(unsigned d);I2C.c: 66: {;I2C.c: 67:     I2C_Master_Wai
      +                          t();
  6305  08CA  120A  158A  20D4  120A  158A  	fcall	_I2C_Master_Wait
  6306  08CF                     l1978:
  6307                           
  6308                           ;I2C.c: 68:     SSPBUF = d;
  6309  08CF  0870               	movf	I2C_Master_Write@d,w
  6310  08D0  1283               	bcf	3,5	;RP0=0, select bank0
  6311  08D1  1303               	bcf	3,6	;RP1=0, select bank0
  6312  08D2  0093               	movwf	19	;volatile
  6313  08D3                     l129:
  6314  08D3  0008               	return
  6315  08D4                     __end_of_I2C_Master_Write:
  6316                           
  6317                           	psect	text21
  6318  08C1                     __ptext21:	
  6319 ;; *************** function _I2C_Master_Stop *****************
  6320 ;; Defined at:
  6321 ;;		line 55 in file "I2C.c"
  6322 ;; Parameters:    Size  Location     Type
  6323 ;;		None
  6324 ;; Auto vars:     Size  Location     Type
  6325 ;;		None
  6326 ;; Return value:  Size  Location     Type
  6327 ;;                  1    wreg      void 
  6328 ;; Registers used:
  6329 ;;		wreg, status,2, status,0, pclath, cstack
  6330 ;; Tracked objects:
  6331 ;;		On entry : 0/0
  6332 ;;		On exit  : 0/0
  6333 ;;		Unchanged: 0/0
  6334 ;; Data sizes:     COMMON   BANK0   BANK1   BANK3   BANK2
  6335 ;;      Params:         0       0       0       0       0
  6336 ;;      Locals:         0       0       0       0       0
  6337 ;;      Temps:          0       0       0       0       0
  6338 ;;      Totals:         0       0       0       0       0
  6339 ;;Total ram usage:        0 bytes
  6340 ;; Hardware stack levels used:    1
  6341 ;; Hardware stack levels required when called:    1
  6342 ;; This function calls:
  6343 ;;		_I2C_Master_Wait
  6344 ;; This function is called by:
  6345 ;;		_main
  6346 ;; This function uses a non-reentrant model
  6347 ;;
  6348                           
  6349                           
  6350                           ;psect for function _I2C_Master_Stop
  6351  08C1                     _I2C_Master_Stop:
  6352  08C1                     l1996:	
  6353                           ;incstack = 0
  6354                           ; Regs used in _I2C_Master_Stop: [wreg+status,2+status,0+pclath+cstack]
  6355                           
  6356                           
  6357                           ;I2C.c: 57:     I2C_Master_Wait();
  6358  08C1  120A  158A  20D4  120A  158A  	fcall	_I2C_Master_Wait
  6359  08C6                     l1998:
  6360                           
  6361                           ;I2C.c: 58:     SSPCON2bits.PEN = 1;
  6362  08C6  1683               	bsf	3,5	;RP0=1, select bank1
  6363  08C7  1303               	bcf	3,6	;RP1=0, select bank1
  6364  08C8  1511               	bsf	17,2	;volatile
  6365  08C9                     l126:
  6366  08C9  0008               	return
  6367  08CA                     __end_of_I2C_Master_Stop:
  6368                           
  6369                           	psect	text22
  6370  08B8                     __ptext22:	
  6371 ;; *************** function _I2C_Master_Start *****************
  6372 ;; Defined at:
  6373 ;;		line 39 in file "I2C.c"
  6374 ;; Parameters:    Size  Location     Type
  6375 ;;		None
  6376 ;; Auto vars:     Size  Location     Type
  6377 ;;		None
  6378 ;; Return value:  Size  Location     Type
  6379 ;;                  1    wreg      void 
  6380 ;; Registers used:
  6381 ;;		wreg, status,2, status,0, pclath, cstack
  6382 ;; Tracked objects:
  6383 ;;		On entry : 0/0
  6384 ;;		On exit  : 0/0
  6385 ;;		Unchanged: 0/0
  6386 ;; Data sizes:     COMMON   BANK0   BANK1   BANK3   BANK2
  6387 ;;      Params:         0       0       0       0       0
  6388 ;;      Locals:         0       0       0       0       0
  6389 ;;      Temps:          0       0       0       0       0
  6390 ;;      Totals:         0       0       0       0       0
  6391 ;;Total ram usage:        0 bytes
  6392 ;; Hardware stack levels used:    1
  6393 ;; Hardware stack levels required when called:    1
  6394 ;; This function calls:
  6395 ;;		_I2C_Master_Wait
  6396 ;; This function is called by:
  6397 ;;		_main
  6398 ;; This function uses a non-reentrant model
  6399 ;;
  6400                           
  6401                           
  6402                           ;psect for function _I2C_Master_Start
  6403  08B8                     _I2C_Master_Start:
  6404  08B8                     l1972:	
  6405                           ;incstack = 0
  6406                           ; Regs used in _I2C_Master_Start: [wreg+status,2+status,0+pclath+cstack]
  6407                           
  6408                           
  6409                           ;I2C.c: 41:     I2C_Master_Wait();
  6410  08B8  120A  158A  20D4  120A  158A  	fcall	_I2C_Master_Wait
  6411  08BD                     l1974:
  6412                           
  6413                           ;I2C.c: 42:     SSPCON2bits.SEN = 1;
  6414  08BD  1683               	bsf	3,5	;RP0=1, select bank1
  6415  08BE  1303               	bcf	3,6	;RP1=0, select bank1
  6416  08BF  1411               	bsf	17,0	;volatile
  6417  08C0                     l120:
  6418  08C0  0008               	return
  6419  08C1                     __end_of_I2C_Master_Start:
  6420                           
  6421                           	psect	text23
  6422  0975                     __ptext23:	
  6423 ;; *************** function _I2C_Master_Read *****************
  6424 ;; Defined at:
  6425 ;;		line 74 in file "I2C.c"
  6426 ;; Parameters:    Size  Location     Type
  6427 ;;  a               2    0[COMMON] unsigned short 
  6428 ;; Auto vars:     Size  Location     Type
  6429 ;;  temp            2    4[COMMON] unsigned short 
  6430 ;; Return value:  Size  Location     Type
  6431 ;;                  2    0[COMMON] unsigned short 
  6432 ;; Registers used:
  6433 ;;		wreg, status,2, status,0, pclath, cstack
  6434 ;; Tracked objects:
  6435 ;;		On entry : 0/0
  6436 ;;		On exit  : 0/0
  6437 ;;		Unchanged: 0/0
  6438 ;; Data sizes:     COMMON   BANK0   BANK1   BANK3   BANK2
  6439 ;;      Params:         2       0       0       0       0
  6440 ;;      Locals:         2       0       0       0       0
  6441 ;;      Temps:          2       0       0       0       0
  6442 ;;      Totals:         6       0       0       0       0
  6443 ;;Total ram usage:        6 bytes
  6444 ;; Hardware stack levels used:    1
  6445 ;; Hardware stack levels required when called:    1
  6446 ;; This function calls:
  6447 ;;		_I2C_Master_Wait
  6448 ;; This function is called by:
  6449 ;;		_main
  6450 ;; This function uses a non-reentrant model
  6451 ;;
  6452                           
  6453                           
  6454                           ;psect for function _I2C_Master_Read
  6455  0975                     _I2C_Master_Read:
  6456  0975                     l1980:	
  6457                           ;incstack = 0
  6458                           ; Regs used in _I2C_Master_Read: [wreg+status,2+status,0+pclath+cstack]
  6459                           
  6460                           
  6461                           ;I2C.c: 74: unsigned short I2C_Master_Read(unsigned short a);I2C.c: 75: {;I2C.c: 76:    
      +                           unsigned short temp;;I2C.c: 77:     I2C_Master_Wait();
  6462  0975  120A  158A  20D4  120A  158A  	fcall	_I2C_Master_Wait
  6463  097A                     l1982:
  6464                           
  6465                           ;I2C.c: 78:     SSPCON2bits.RCEN = 1;
  6466  097A  1683               	bsf	3,5	;RP0=1, select bank1
  6467  097B  1303               	bcf	3,6	;RP1=0, select bank1
  6468  097C  1591               	bsf	17,3	;volatile
  6469                           
  6470                           ;I2C.c: 79:     I2C_Master_Wait();
  6471  097D  120A  158A  20D4  120A  158A  	fcall	_I2C_Master_Wait
  6472  0982                     l1984:
  6473                           
  6474                           ;I2C.c: 80:     temp = SSPBUF;
  6475  0982  1283               	bcf	3,5	;RP0=0, select bank0
  6476  0983  1303               	bcf	3,6	;RP1=0, select bank0
  6477  0984  0813               	movf	19,w	;volatile
  6478  0985  00F2               	movwf	??_I2C_Master_Read
  6479  0986  01F3               	clrf	??_I2C_Master_Read+1
  6480  0987  0872               	movf	??_I2C_Master_Read,w
  6481  0988  00F4               	movwf	I2C_Master_Read@temp
  6482  0989  0873               	movf	??_I2C_Master_Read+1,w
  6483  098A  00F5               	movwf	I2C_Master_Read@temp+1
  6484  098B                     l1986:
  6485                           
  6486                           ;I2C.c: 81:     I2C_Master_Wait();
  6487  098B  120A  158A  20D4  120A  158A  	fcall	_I2C_Master_Wait
  6488  0990                     l1988:
  6489                           
  6490                           ;I2C.c: 82:     if(a == 1){
  6491  0990  0370               	decf	I2C_Master_Read@a,w
  6492  0991  0471               	iorwf	I2C_Master_Read@a+1,w
  6493  0992  1D03               	btfss	3,2
  6494  0993  2995               	goto	u2221
  6495  0994  2996               	goto	u2220
  6496  0995                     u2221:
  6497  0995  299A               	goto	l132
  6498  0996                     u2220:
  6499  0996                     l1990:
  6500                           
  6501                           ;I2C.c: 83:         SSPCON2bits.ACKDT = 0;
  6502  0996  1683               	bsf	3,5	;RP0=1, select bank1
  6503  0997  1303               	bcf	3,6	;RP1=0, select bank1
  6504  0998  1291               	bcf	17,5	;volatile
  6505                           
  6506                           ;I2C.c: 84:     }else{
  6507  0999  299D               	goto	l133
  6508  099A                     l132:
  6509                           
  6510                           ;I2C.c: 85:         SSPCON2bits.ACKDT = 1;
  6511  099A  1683               	bsf	3,5	;RP0=1, select bank1
  6512  099B  1303               	bcf	3,6	;RP1=0, select bank1
  6513  099C  1691               	bsf	17,5	;volatile
  6514  099D                     l133:	
  6515                           ;I2C.c: 86:     }
  6516                           
  6517                           
  6518                           ;I2C.c: 87:     SSPCON2bits.ACKEN = 1;
  6519  099D  1611               	bsf	17,4	;volatile
  6520  099E                     l1992:
  6521                           
  6522                           ;I2C.c: 88:     return temp;
  6523  099E  0875               	movf	I2C_Master_Read@temp+1,w
  6524  099F  00F1               	movwf	?_I2C_Master_Read+1
  6525  09A0  0874               	movf	I2C_Master_Read@temp,w
  6526  09A1  00F0               	movwf	?_I2C_Master_Read
  6527  09A2                     l134:
  6528  09A2  0008               	return
  6529  09A3                     __end_of_I2C_Master_Read:
  6530                           
  6531                           	psect	text24
  6532  08D4                     __ptext24:	
  6533 ;; *************** function _I2C_Master_Wait *****************
  6534 ;; Defined at:
  6535 ;;		line 32 in file "I2C.c"
  6536 ;; Parameters:    Size  Location     Type
  6537 ;;		None
  6538 ;; Auto vars:     Size  Location     Type
  6539 ;;		None
  6540 ;; Return value:  Size  Location     Type
  6541 ;;                  1    wreg      void 
  6542 ;; Registers used:
  6543 ;;		wreg, status,2
  6544 ;; Tracked objects:
  6545 ;;		On entry : 0/0
  6546 ;;		On exit  : 0/0
  6547 ;;		Unchanged: 0/0
  6548 ;; Data sizes:     COMMON   BANK0   BANK1   BANK3   BANK2
  6549 ;;      Params:         0       0       0       0       0
  6550 ;;      Locals:         0       0       0       0       0
  6551 ;;      Temps:          0       0       0       0       0
  6552 ;;      Totals:         0       0       0       0       0
  6553 ;;Total ram usage:        0 bytes
  6554 ;; Hardware stack levels used:    1
  6555 ;; This function calls:
  6556 ;;		Nothing
  6557 ;; This function is called by:
  6558 ;;		_I2C_Master_Start
  6559 ;;		_I2C_Master_Stop
  6560 ;;		_I2C_Master_Write
  6561 ;;		_I2C_Master_Read
  6562 ;;		_I2C_Master_RepeatedStart
  6563 ;; This function uses a non-reentrant model
  6564 ;;
  6565                           
  6566                           
  6567                           ;psect for function _I2C_Master_Wait
  6568  08D4                     _I2C_Master_Wait:
  6569  08D4                     l1808:	
  6570                           ;incstack = 0
  6571                           ; Regs used in _I2C_Master_Wait: [wreg+status,2]
  6572                           
  6573  08D4                     l114:	
  6574                           ;I2C.c: 34:     while ((SSPSTAT & 0x04) || (SSPCON2 & 0x1F));
  6575                           
  6576  08D4  1683               	bsf	3,5	;RP0=1, select bank1
  6577  08D5  1303               	bcf	3,6	;RP1=0, select bank1
  6578  08D6  1914               	btfsc	20,2	;volatile
  6579  08D7  28D9               	goto	u1931
  6580  08D8  28DA               	goto	u1930
  6581  08D9                     u1931:
  6582  08D9  28D4               	goto	l114
  6583  08DA                     u1930:
  6584  08DA                     l1810:
  6585  08DA  0811               	movf	17,w	;volatile
  6586  08DB  391F               	andlw	31
  6587  08DC  1D03               	btfss	3,2
  6588  08DD  28DF               	goto	u1941
  6589  08DE  28E0               	goto	u1940
  6590  08DF                     u1941:
  6591  08DF  28D4               	goto	l114
  6592  08E0                     u1940:
  6593  08E0                     l117:
  6594  08E0  0008               	return
  6595  08E1                     __end_of_I2C_Master_Wait:
  6596  007E                     btemp	set	126	;btemp
  6597  007E                     wtemp0	set	126
  6598                           
  6599                           	psect	config
  6600                           
  6601                           ;Config register CONFIG1 @ 0x2007
  6602                           ;	Oscillator Selection bits
  6603                           ;	FOSC = INTRC_NOCLKOUT, INTOSCIO oscillator: I/O function on RA6/OSC2/CLKOUT pin, I/O f
      +                          unction on RA7/OSC1/CLKIN
  6604                           ;	Watchdog Timer Enable bit
  6605                           ;	WDTE = OFF, WDT disabled and can be enabled by SWDTEN bit of the WDTCON register
  6606                           ;	Power-up Timer Enable bit
  6607                           ;	PWRTE = OFF, PWRT disabled
  6608                           ;	RE3/MCLR pin function select bit
  6609                           ;	MCLRE = OFF, RE3/MCLR pin function is digital input, MCLR internally tied to VDD
  6610                           ;	Code Protection bit
  6611                           ;	CP = OFF, Program memory code protection is disabled
  6612                           ;	Data Code Protection bit
  6613                           ;	CPD = OFF, Data memory code protection is disabled
  6614                           ;	Brown Out Reset Selection bits
  6615                           ;	BOREN = OFF, BOR disabled
  6616                           ;	Internal External Switchover bit
  6617                           ;	IESO = OFF, Internal/External Switchover mode is disabled
  6618                           ;	Fail-Safe Clock Monitor Enabled bit
  6619                           ;	FCMEN = OFF, Fail-Safe Clock Monitor is disabled
  6620                           ;	Low Voltage Programming Enable bit
  6621                           ;	LVP = OFF, RB3 pin has digital I/O, HV on MCLR must be used for programming
  6622                           ;	In-Circuit Debugger Mode bit
  6623                           ;	DEBUG = 0x1, unprogrammed default
  6624  2007                     	org	8199
  6625  2007  20D4               	dw	8404
  6626                           
  6627                           ;Config register CONFIG2 @ 0x2008
  6628                           ;	Brown-out Reset Selection bit
  6629                           ;	BOR4V = BOR40V, Brown-out Reset set to 4.0V
  6630                           ;	Flash Program Memory Self Write Enable bits
  6631                           ;	WRT = OFF, Write protection off
  6632  2008                     	org	8200
  6633  2008  3FFF               	dw	16383

Data Sizes:
    Strings     12
    Constant    0
    Data        0
    BSS         10
    Persistent  0
    Stack       0

Auto Spaces:
    Space          Size  Autos    Used
    COMMON           14     14      14
    BANK0            80     78      80
    BANK1            80     10      18
    BANK3            96      0       0
    BANK2            96      0       0

Pointer List with Targets:

    Lcd_Write_String@a	PTR unsigned char  size(1) Largest target is 4
		 -> STR_3(CODE[4]), STR_2(CODE[4]), STR_1(CODE[4]), 


Critical Paths under _main in COMMON

    _main->___xxtofl
    _I2C_Master_Init->___lldiv
    _division->___awdiv
    ___fltol->___xxtofl
    ___flmul->___xxtofl
    ___fldiv->___xxtofl
    ___fladd->___xxtofl
    _Lcd_Write_String->_Lcd_Write_Char
    _Lcd_Write_Char->_Lcd_Port
    _Lcd_Set_Cursor->_Lcd_Cmd
    _Lcd_Init->_Lcd_Cmd
    _Lcd_Clear->_Lcd_Cmd
    _Lcd_Cmd->_Lcd_Port

Critical Paths under _main in BANK0

    _main->___fltol
    _setup->_I2C_Master_Init
    ___fltol->___fladd
    ___fldiv->___flmul
    ___fladd->___fldiv

Critical Paths under _main in BANK1

    _main->___fltol

Critical Paths under _main in BANK3

    None.

Critical Paths under _main in BANK2

    None.

Call Graph Tables:

 ---------------------------------------------------------------------------------
 (Depth) Function   	        Calls       Base Space   Used Autos Params    Refs
 ---------------------------------------------------------------------------------
 (0) _main                                                 5     5      0   11287
                                              5 BANK1      5     5      0
                    _I2C_Master_Read
                   _I2C_Master_Start
                    _I2C_Master_Stop
                   _I2C_Master_Write
                          _Lcd_Clear
                           _Lcd_Init
                     _Lcd_Set_Cursor
                     _Lcd_Write_Char
                   _Lcd_Write_String
                            ___fladd
                            ___fldiv
                            ___flmul
                            ___fltol
                           ___xxtofl
                           _division
                              _setup
 ---------------------------------------------------------------------------------
 (1) _setup                                                0     0      0     412
                    _I2C_Master_Init
 ---------------------------------------------------------------------------------
 (2) _I2C_Master_Init                                      8     4      4     412
                                              0 BANK0      8     4      4
                            ___lldiv
 ---------------------------------------------------------------------------------
 (3) ___lldiv                                             14     6      8     314
                                              0 COMMON    14     6      8
 ---------------------------------------------------------------------------------
 (1) _division                                             4     4      0    1248
                                              9 COMMON     4     4      0
                            ___awdiv
                            ___awmod
 ---------------------------------------------------------------------------------
 (2) ___awmod                                              7     3      4     600
                                              0 COMMON     7     3      4
 ---------------------------------------------------------------------------------
 (2) ___awdiv                                              9     5      4     604
                                              0 COMMON     9     5      4
 ---------------------------------------------------------------------------------
 (1) ___xxtofl                                            14    10      4     398
                                              0 COMMON    14    10      4
 ---------------------------------------------------------------------------------
 (1) ___fltol                                             11     7      4     305
                                             72 BANK0      6     2      4
                                              0 BANK1      5     5      0
                            ___fladd (ARG)
                            ___fldiv (ARG)
                            ___flmul (ARG)
                           ___xxtofl (ARG)
 ---------------------------------------------------------------------------------
 (1) ___flmul                                             26    18      8    2417
                                              0 BANK0     26    18      8
                          __Umul8_16
                           ___xxtofl (ARG)
 ---------------------------------------------------------------------------------
 (2) __Umul8_16                                            9     7      2     799
                                              0 COMMON     9     7      2
 ---------------------------------------------------------------------------------
 (1) ___fldiv                                             26    18      8    1273
                                             26 BANK0     26    18      8
                            ___flmul (ARG)
                           ___xxtofl (ARG)
 ---------------------------------------------------------------------------------
 (1) ___fladd                                             20    12      8    2262
                                             52 BANK0     20    12      8
                            ___fldiv (ARG)
                            ___flmul (ARG)
                           ___xxtofl (ARG)
 ---------------------------------------------------------------------------------
 (1) _Lcd_Write_String                                     3     3      0     367
                                              5 COMMON     3     3      0
                     _Lcd_Write_Char
 ---------------------------------------------------------------------------------
 (2) _Lcd_Write_Char                                       4     4      0     178
                                              1 COMMON     4     4      0
                           _Lcd_Port
 ---------------------------------------------------------------------------------
 (1) _Lcd_Set_Cursor                                       7     6      1    1292
                                              4 COMMON     7     6      1
                            _Lcd_Cmd
 ---------------------------------------------------------------------------------
 (1) _Lcd_Init                                             2     2      0     198
                                              4 COMMON     2     2      0
                            _Lcd_Cmd
                           _Lcd_Port
 ---------------------------------------------------------------------------------
 (1) _Lcd_Clear                                            0     0      0     110
                            _Lcd_Cmd
 ---------------------------------------------------------------------------------
 (2) _Lcd_Cmd                                              3     3      0     110
                                              1 COMMON     3     3      0
                           _Lcd_Port
 ---------------------------------------------------------------------------------
 (3) _Lcd_Port                                             1     1      0      88
                                              0 COMMON     1     1      0
 ---------------------------------------------------------------------------------
 (1) _I2C_Master_Write                                     2     0      2     402
                                              0 COMMON     2     0      2
                    _I2C_Master_Wait
 ---------------------------------------------------------------------------------
 (1) _I2C_Master_Stop                                      0     0      0       0
                    _I2C_Master_Wait
 ---------------------------------------------------------------------------------
 (1) _I2C_Master_Start                                     0     0      0       0
                    _I2C_Master_Wait
 ---------------------------------------------------------------------------------
 (1) _I2C_Master_Read                                      6     4      2     425
                                              0 COMMON     6     4      2
                    _I2C_Master_Wait
 ---------------------------------------------------------------------------------
 (2) _I2C_Master_Wait                                      0     0      0       0
 ---------------------------------------------------------------------------------
 Estimated maximum stack depth 3
 ---------------------------------------------------------------------------------

 Call Graph Graphs:

 _main (ROOT)
   _I2C_Master_Read
     _I2C_Master_Wait
   _I2C_Master_Start
     _I2C_Master_Wait
   _I2C_Master_Stop
     _I2C_Master_Wait
   _I2C_Master_Write
     _I2C_Master_Wait
   _Lcd_Clear
     _Lcd_Cmd
       _Lcd_Port
   _Lcd_Init
     _Lcd_Cmd
       _Lcd_Port
     _Lcd_Port
   _Lcd_Set_Cursor
     _Lcd_Cmd
       _Lcd_Port
   _Lcd_Write_Char
     _Lcd_Port
   _Lcd_Write_String
     _Lcd_Write_Char
       _Lcd_Port
   ___fladd
     ___fldiv (ARG)
       ___flmul (ARG)
         __Umul8_16
         ___xxtofl (ARG)
       ___xxtofl (ARG)
     ___flmul (ARG)
       __Umul8_16
       ___xxtofl (ARG)
     ___xxtofl (ARG)
   ___fldiv
     ___flmul (ARG)
       __Umul8_16
       ___xxtofl (ARG)
     ___xxtofl (ARG)
   ___flmul
     __Umul8_16
     ___xxtofl (ARG)
   ___fltol
     ___fladd (ARG)
       ___fldiv (ARG)
         ___flmul (ARG)
           __Umul8_16
           ___xxtofl (ARG)
         ___xxtofl (ARG)
       ___flmul (ARG)
         __Umul8_16
         ___xxtofl (ARG)
       ___xxtofl (ARG)
     ___fldiv (ARG)
       ___flmul (ARG)
         __Umul8_16
         ___xxtofl (ARG)
       ___xxtofl (ARG)
     ___flmul (ARG)
       __Umul8_16
       ___xxtofl (ARG)
     ___xxtofl (ARG)
   ___xxtofl
   _division
     ___awdiv
     ___awmod
   _setup
     _I2C_Master_Init
       ___lldiv

 Address spaces:
Name               Size   Autos  Total    Cost      Usage
BITCOMMON            E      0       0       0        0.0%
EEDATA             100      0       0       0        0.0%
NULL                 0      0       0       0        0.0%
CODE                 0      0       0       0        0.0%
COMMON               E      E       E       1      100.0%
BITSFR0              0      0       0       1        0.0%
SFR0                 0      0       0       1        0.0%
BITSFR1              0      0       0       2        0.0%
SFR1                 0      0       0       2        0.0%
STACK                0      0       0       2        0.0%
ABS                  0      0      70       3        0.0%
BITBANK0            50      0       0       4        0.0%
BITSFR3              0      0       0       4        0.0%
SFR3                 0      0       0       4        0.0%
BANK0               50     4E      50       5      100.0%
BITSFR2              0      0       0       5        0.0%
SFR2                 0      0       0       5        0.0%
BITBANK1            50      0       0       6        0.0%
BANK1               50      A      12       7       22.5%
BITBANK3            60      0       0       8        0.0%
BANK3               60      0       0       9        0.0%
BITBANK2            60      0       0      10        0.0%
BANK2               60      0       0      11        0.0%
DATA                 0      0      70      12        0.0%


Microchip Technology PIC Macro Assembler V2.31 build 20201012212115 
Symbol Table                                                                                   Mon Aug 09 23:14:22 2021

             ___fldiv@aexp 0053               ___fldiv@bexp 0052                          pc 0002  
             ___fldiv@sign 004B                         l82 094D                         l79 0C52  
             ___awdiv@sign 0076                         fsr 0004        __Umul8_16@word_mpld 0076  
                      l111 0A11                        l120 08C0                        l114 08D4  
                      l132 099A                        l117 08E0                        l133 099D  
                      l134 09A2                        l126 08C9                        l160 0928  
                      l129 08D3                        l162 0929                        l154 0911  
                      l314 0B7F                        l155 0914                        l156 091A  
                      l180 09D9                        l157 091B                        l165 0907  
                      l158 0921                        l174 0A63                        l159 0922  
                      l431 0BE6                        l168 08ED                        l177 0B19  
                      l186 0027                        l602 0420                        l444 0ABC  
                      l613 0480                        l605 045E                        l614 048C  
                      l471 0CD9                        l711 0D11                        l464 0CEE  
                      l713 0DA8                        l474 0CEE                        l571 0268  
                      l651 01F8                        l643 0176                        l627 0084  
                      l724 0D72                        l629 0204                        l725 0D7E  
                      l717 0D56                        l575 030F                        l592 03DA  
                      l584 048C                        l577 02E6                        l649 01E8  
                      l673 0759                        l667 07ED                        l596 03FE  
                      l686 0962                        l679 07E1                        l688 0974  
                      _GIE 005F                        _RD3 0043                        _RD4 0044  
                      _RD5 0045                        _RD6 0046                        _RD7 0047  
                      fsr0 0004               ___awmod@sign 0076               ___flmul@aexp 0032  
             ___flmul@bexp 0033               ___flmul@sign 002D               ___flmul@temp 0038  
             ___flmul@prod 0034               ___fltol@exp1 006D                       l2000 0BE8  
                     l2010 0C53                       l2002 0C42                       l2100 0282  
                     l2020 0C93                       l2012 0C64                       l2004 0C48  
                     l2110 0296                       l2102 0286                       l2022 0C9B  
                     l2006 0C4E                       l2200 040E                       l2120 02AA  
                     l2112 029A                       l2104 028A                       l2040 0CC6  
                     l2032 0CA9                       l2024 0C9D                       l2016 0C6D  
                     l2202 0412                       l2130 02EA                       l2122 02AE  
                     l2114 029E                       l2106 028E                       l2050 0212  
                     l2042 0CDE                       l2026 0CA1                       l2034 0CBF  
                     l2018 0C92                       l2220 045A                       l2212 0425  
                     l2204 0413                       l2140 0303                       l2132 02F3  
                     l2116 02A2                       l2108 0292                       l2124 02B2  
                     l2060 0229                       l2052 0216                       l2300 00D5  
                     l2044 0CE3                       l2230 0476                       l2222 0463  
                     l2214 042A                       l2206 0417                       l2150 0321  
                     l2134 02F5                       l2142 0307                       l2126 02B3  
                     l2118 02A6                       l2070 023F                       l2062 022A  
                     l2054 0217                       l2046 0205                       l2310 00FA  
                     l2302 00DD                       l2232 047A                       l2224 0468  
                     l2216 0438                       l2208 041D                       l2160 034B  
                     l2152 0338                       l2144 0313                       l2136 02F9  
                     l2128 02CA                       l2080 0250                       l2072 0240  
                     l2056 021C                       l2064 022C                       l2048 020C  
                     l2320 0125                       l2312 00FB                       l2304 00DF  
                     l2240 0028                       l2400 04BB                       l2234 047C  
                     l2226 0470                       l2218 043C                       l2170 0374  
                     l2162 034F                       l2154 033C                       l2146 0318  
                     l2138 02FA                       l2090 026E                       l2082 0255  
                     l2074 0246                       l2066 0234                       l2058 0221  
                     l2330 0142                       l2306 00E4                       l2314 0104  
                     l2322 0129                       l2250 003F                       l2242 002F  
                     l2410 04D0                       l2402 04C0                       l2236 0487  
                     l2228 0475                       l2180 03E2                       l2172 03B2  
                     l2164 0350                       l2156 0340                       l2092 0272  
                     l2084 025D                       l2076 024A                       l2068 0239  
                     l2340 015A                       l2332 0146                       l2324 012F  
                     l2316 0116                       l2308 00F6                       l2260 0057  
                     l2252 0044                       l2244 0035                       l2500 0794  
                     l2420 04EC                       l2412 04D5                       l2404 04C6  
                     l2238 048B                       l2190 03FD                       l2182 03E7  
                     l2174 03B8                       l2166 0359                       l2158 0349  
                     l2094 0276                       l2086 025E                       l2078 024B  
                     l2350 017B                       l2342 015B                       l2334 0147  
                     l2326 0137                       l2318 0117                       l2270 006C  
                     l2262 005C                       l2254 004C                       l2246 0039  
                     l2510 07C7                       l2502 07A1                       l2430 0517  
                     l2422 04F1                       l2414 04DD                       l2406 04CA  
                     l2192 0402                       l2176 03BD                       l2168 035E  
                     l2096 027A                       l2088 0260                       l2352 0180  
                     l2360 01B1                       l2344 015F                       l2336 0150  
                     l2328 0139                       l2280 008C                       l2272 0071  
                     l2264 0062                       l2256 004D                       l2248 003A  
                     l2512 07D5                       l2504 07AC                       l2440 05B4  
                     l2432 0534                       l2416 04DF                       l2408 04CB  
                     l1800 09E1                       l2600 0E2B                       l1810 08DA  
                     l2194 0405                       l2186 03F0                       l2178 03CC  
                     l2098 027E                       l2370 01E7                       l2362 01BE  
                     l2354 018E                       l2346 0173                       l2338 0156  
                     l2290 00AA                       l2282 0098                       l2274 0079  
                     l2266 0066                       l2258 004F                       l2514 07D9  
                     l2506 07BB                       l2450 0617                       l2442 05BD  
                     l2434 0550                       l2426 04FA                       l2418 04E7  
                     l2530 0D19                       l2522 0CF0                       l1802 0A0E  
                     l2610 0E56                       l2602 0E34                       l1820 0904  
                     l1812 08EF                       l2196 0407                       l2188 03F9  
                     l2372 01EE                       l2364 01CC                       l2356 0192  
                     l2284 009C                       l2276 007A                       l2268 0067  
                     l2516 07DA                       l2508 07C5                       l2460 06B7  
                     l2452 0630                       l2444 05CD                       l2436 057C  
                     l2428 050A                       l2540 0D3B                       l2524 0CF5  
                     l1900 0AB8                       l1804 0A0F                       l2620 0E82  
                     l2612 0E5E                       l2604 0E39                       l1750 0926  
                     l1742 0909                       l1814 08F2                       l2198 040C  
                     l2374 01F2                       l2366 01DB                       l2358 01AB  
                     l2294 00B3                       l2278 007C                       l1910 095C  
                     l2518 07E5                       l2470 0725                       l2462 06DD  
                     l2454 064D                       l2446 05EA                       l2438 0598  
                     l2390 049F                       l2382 048D                       l2550 0D6C  
                     l2542 0D3F                       l2534 0D22                       l2526 0CF9  
                     l1830 0B8C                       l1822 0B80                       l1806 0A10  
                     l2630 0EB2                       l2622 0E91                       l2614 0E61  
                     l2606 0E48                       l1808 08D4                       l1744 090D  
                     l1816 08F8                       l2376 01F4                       l2368 01DF  
                     l2296 00C5                       l2288 00A5                       l1912 096B  
                     l1904 094F                       l2480 073D                       l2472 0729  
                     l2464 0705                       l2456 067A                       l2448 05FA  
                     l2392 04A4                       l2384 0494                       l2560 0D9F  
                     l2552 0D76                       l2544 0D4D                       l2536 0D27  
                     l2528 0D09                       l1840 0BA1                       l1832 0B90  
                     l1824 0B81                       l1760 0B3E                       l1752 0B1A  
                     l1920 0935                       l2640 0F46                       l2632 0EC1  
                     l2624 0E96                       l2616 0E6F                       l2608 0E4D  
                     l1746 0918                       l1818 08FB                       l2298 00CD  
                     l1914 0970                       l1906 0951                       l2490 075E  
                     l2482 073E                       l2474 072A                       l2466 070E  
                     l2458 068A                       l2394 04A9                       l2386 049A  
                     l2562 0DA0                       l2554 0D80                       l2546 0D5D  
                     l2538 0D34                       l1850 0BC4                       l1842 0BA4  
                     l1834 0B95                       l1826 0B85                       l1770 0B71  
                     l1762 0B47                       l1754 0B2A                       l1922 0936  
                     l2650 0F76                       l2642 0F4E                       l2634 0EC7  
                     l2626 0E9F                       l2618 0E7D                       l2570 0DB1  
                     l1748 091F                       l1940 0AE0                       l1932 0ABD  
                     l1780 09B1                       l1908 0958                       l2492 0763  
                     l2484 0742                       l2476 0733                       l2468 071C  
                     l2396 04B1                       l2388 049E                       l2556 0D96  
                     l2548 0D68                       l1860 0BDD                       l1852 0BCA  
                     l1844 0BAB                       l1836 0B99                       l1828 0B8A  
                     l1764 0B59                       l1756 0B2D                       l1772 0B77  
                     l1924 0937                       l2660 0FA6                       l2652 0F82  
                     l2644 0F5A                       l2636 0F36                       l2628 0EAD  
                     l2580 0DD5                       l2572 0DB6                       l1942 08E1  
                     l1934 0AC3                       l1950 0A2E                       l1790 09CF  
                     l1782 09BF                       l2494 0771                       l2486 0756  
                     l2478 0739                       l2398 04B3                       l2558 0D9B  
                     l1862 0BE2                       l1854 0BCB                       l1846 0BAF  
                     l1838 0B9B                       l1870 0A69                       l1766 0B67  
                     l1758 0B3A                       l1926 0938                       l1918 092A  
                     l2670 0FD6                       l2662 0FB2                       l2654 0F8A  
                     l2646 0F62                       l2638 0F3E                       l2590 0DFB  
                     l2582 0DDB                       l2574 0DBB                       l2566 0DA9  
                     l1936 0ACC                       l1960 0A57                       l1952 0A34  
                     l1944 0A13                       l1792 09D2                       l1784 09C2  
                     l1776 09A4                       l2496 0775                       l1856 0BD2  
                     l1848 0BB3                       l1880 0A7F                       l1872 0A6E  
                     l1768 0B68                       l1928 0940                       l2672 0FE2  
                     l2664 0FBA                       l2656 0F92                       l2648 0F6E  
                     l2592 0E09                       l2584 0DE7                       l2576 0DC3  
                     l2568 0DAE                       l1938 0ADA                       l1962 0A5D  
                     l1946 0A18                       l1954 0A3B                       l1794 09D6  
                     l1786 09C6                       l1778 09AE                       l1970 001A  
                     l2498 078E                       l1858 0BD8                       l1890 0A9B  
                     l1882 0A82                       l1874 0A70                       l1866 0A64  
                     l2674 0FEA                       l2666 0FC2                       l2658 0F9E  
                     l2594 0E0E                       l2586 0DED                       l2578 0DC9  
                     l1980 0975                       l1972 08B8                       l1956 0A41  
                     l1948 0A29                       l1788 09C9                       l1964 0004  
                     l1892 0AA1                       l1884 0A89                       l1876 0A74  
                     l1868 0A65                       l1796 09DA                       l2676 0FF6  
                     l2668 0FCE                       l2596 0E1D                       l2588 0DF2  
                     l1990 0996                       l1982 097A                       l1974 08BD  
                     l1958 0A52                       l1966 0007                       l1894 0AA8  
                     l1886 0A8D                       l1878 0A79                       l1798 09DE  
                     l2598 0E22                       l1992 099E                       l1984 0982  
                     l1976 08CA                       l1968 0014                       l1888 0A91  
                     l1896 0AAE                       l1986 098B                       l1978 08CF  
                     l1898 0AB3                       l1988 0990                       l1996 08C1  
                     l1998 08C6                       STR_1 0806                       STR_2 080A  
                     STR_3 080E                       u2010 0BC4                       u2011 0BC3  
                     u2100 0A9B                       u2005 0BB4                       u2101 0A9A  
                     u2030 0BD8                       u2031 0BD7                       u2015 0BC0  
                     u3000 0173                       u2040 0BDD                       u2120 0AAE  
                     u3001 0172                       u2041 0BDC                       u2025 0BCC  
                     u2121 0AAD                       u2105 0A97                       u2210 0027  
                     u3010 017A                       u2130 0AB3                       u2050 0A69  
                     u2211 0026                       u3011 0179                       u2131 0AB2  
                     u2115 0AA2                       u2051 0A68                       u2220 0996  
                     u3020 0180                       u2140 095C                       u3100 04A9  
                     u2060 0A74                       u2221 0995                       u2205 0A49  
                     u3021 017F                       u2141 095B                       u3101 04A8  
                     u2061 0A73                       u3030 0192                       u3110 04CA  
                     u2310 0CDE                       u2230 0C64                       u2070 0A7F  
                     u3031 0191                       u3111 04C9                       u2311 0CDD  
                     u2231 0C63                       u2071 0A7E                       u2400 026E  
                     u3040 01A1                       u2160 0970                       u3120 04D0  
                     u2320 0CE3                       u2240 0C89                       u2401 026D  
                     u2161 096F                       u3121 04CF                       u2321 0CE2  
                     u2305 0CCA                       u2170 0A18                       u2410 0272  
                     u2330 0216                       u3050 01BE                       u3130 04D5  
                     u2250 0CA1                       u2090 0A91                       u2171 0A17  
                     u2411 0271                       u2331 0215                       u3051 01BD  
                     u2155 0963                       u3211 05DC                       u3131 04D4  
                     u2251 0CA0                       u2091 0A90                       u2500 0318  
                     u2420 02CA                       u2340 021C                       u3060 01DB  
                     u3212 05E3                       u3140 04EC                       u2260 0CA8  
                     u2501 0317                       u2421 02C9                       u2341 021B  
                     u3061 01DA                       u3045 019C                       u3301 06F7  
                     u3221 0609                       u3213 05EA                       u3205 05B6  
                     u3141 04EB                       u2261 0CA7                       u2245 0C84  
                     u2085 0A83                       u2190 0A41                       u2430 02D5  
                     u2350 0221                       u3070 01F2                       u3302 06FE  
                     u3222 0610                       u3150 04F1                       u2191 0A40  
                     u2511 032A                       u2431 02D3                       u2351 0220  
                     u3071 01F1                       u3055 01BA                       u3303 0705  
                     u3223 0617                       u3151 04F0                       u1800 090D  
                     u2600 03E2                       u2520 033C                       u2512 0331  
                     u2440 02D6                       u2360 023F                       u3400 0775  
                     u3080 049E                       u2280 0CBE                       u1801 090C  
                     u2185 0A20                       u2601 03E1                       u2521 033B  
                     u2513 0338                       u2425 02C6                       u2361 023E  
                     u3065 01D7                       u3401 0774                       u3241 063F  
                     u3161 0542                       u3081 049D                       u2281 0CBD  
                     u1810 0918                       u2610 03E7                       u2530 0340  
                     u2450 02EA                       u2370 024A                       u3410 0784  
                     u3330 0729                       u3242 0646                       u3162 0549  
                     u3090 04A4                       u2290 0CC5                       u1811 0917  
                     u2611 03E6                       u2531 033F                       u2451 02E9  
                     u2371 0249                       u3331 0728                       u3315 0707  
                     u3251 066C                       u3243 064D                       u3235 0619  
                     u3171 055E                       u3163 0550                       u3091 04A3  
                     u2291 0CC4                       u2275 0CAA                       u1820 091F  
                     u2700 042A                       u2540 034F                       u2460 02F9  
                     u2380 0250                       u3420 07A1                       u3252 0673  
                     u3172 0565                       u1900 0B77                       u1821 091E  
                     u2701 0429                       u2541 034E                       u2461 02F8  
                     u2381 024F                       u3421 07A0                       u3325 071E  
                     u3261 0699                       u3253 067A                       u3181 058A  
                     u3173 056C                       u1901 0B76                       u1830 0926  
                     u2710 043C                       u2630 03FD                       u2390 0255  
                     u3430 07BB                       u3350 073D                       u3270 06C3  
                     u3262 06A0                       u3182 0591                       u3510 0D5C  
                     u1831 0925                       u2711 043B                       u2631 03FC  
                     u2391 0254                       u3431 07BA                       u3415 077F  
                     u3351 073C                       u3263 06A7                       u3191 05A6  
                     u3183 0598                       u3511 0D5B                       u2720 044B  
                     u2640 0402                       u2560 0374                       u2480 030F  
                     u2800 003F                       u3440 07D9                       u3360 0742  
                     u3192 05AD                       u1840 0B2A                       u1920 09F1  
                     u2641 0401                       u2625 03F2                       u2561 0373  
                     u2481 030E                       u2801 003E                       u3441 07D8  
                     u3425 079D                       u3361 0741                       u3345 072C  
                     u3281 06CF                       u3193 05B4                       u3505 0D4E  
                     u1841 0B29                       u1930 08DA                       u2730 045A  
                     u2650 040C                       u2490 0313                       u2810 0044  
                     u3370 0756                       u3290 06EB                       u3282 06D6  
                     u3530 0D6C                       u3450 0CF5                       u1931 08D9  
                     u1915 09B4                       u2731 0459                       u2651 040B  
                     u2571 038B                       u2563 0370                       u2555 0352  
                     u2491 0312                       u2475 02FC                       u2811 0043  
                     u3435 07B7                       u3371 0755                       u3283 06DD  
                     u3275 06BE                       u3531 0D6B                       u3451 0CF4  
                     u1940 08E0                       u2740 0463                       u2660 0412  
                     u2580 039F                       u2572 038C                       u2900 00FA  
                     u2820 0066                       u3380 075D                       u3540 0D72  
                     u3460 0CF9                       u1860 0B3E                       u1941 08DF  
                     u2741 0462                       u2725 0446                       u2661 0411  
                     u2581 03A0                       u2573 0391                       u2901 00F9  
                     u2821 0065                       u3381 075C                       u3541 0D71  
                     u3525 0D61                       u3461 0CF8                       u1861 0B3D  
                     u1925 09EC                       u2750 0468                       u2670 0417  
                     u2590 03BD                       u2582 03A5                       u2574 0392  
                     u2830 006C                       u3390 0763                       u3550 0D76  
                     u3470 0D19                       u1950 0B85                       u2751 0467  
                     u2671 0416                       u2591 03BC                       u2583 03A6  
                     u2575 0397                       u2831 006B                       u3391 0762  
                     u3295 06E6                       u3551 0D75                       u3471 0D18  
                     u1951 0B84                       u1855 0B2F                       u3607 0E41  
                     u2760 0475                       u2680 041D                       u2576 0398  
                     u2920 0116                       u2840 0071                       u3560 0D8B  
                     u1960 0B90                       u1880 0B59                       u2761 0474  
                     u2681 041C                       u2921 0115                       u2841 0070  
                     u1961 0B8F                       u1881 0B58                       u3617 0E8A  
                     u2770 047A                       u2690 0424                       u2930 012F  
                     u2850 008C                       u3570 0D9B                       u3490 0D3A  
                     u1970 0BA1                       u2771 0479                       u2691 0423  
                     u2931 012E                       u2915 00FD                       u2851 008B  
                     u3571 0D9A                       u3491 0D39                       u1971 0BA0  
                     u1875 0B40                       u3627 0EBA                       _PEIE 005E  
                     u2780 048B                       u2940 0137                       u2860 00AA  
                     u3580 0D9F                       u3637 09C4                       u2781 048A  
                     u2941 0136                       u2925 0112                       u2861 00A9  
                     u3581 0D9E                       u3565 0D86                       u3485 0D2C  
                     u1885 0B55                       u2870 00E4                       u2790 0039  
                     u1990 0BB3                       u3647 09D4                       u2871 00E3  
                     u2791 0038                       u1991 0BB2                       u1895 0B69  
                     u2960 0146                       u3657 0AC7                       u2961 0145  
                     u1985 0BA5                       u3667 0AD6                       u2955 013B  
                     u2980 015A                       u3677 0AE4                       u2981 0159  
                     u2885 00E6                       u3597 0E16                       u2990 015F  
                     u3687 08FF                       u2991 015E                       u2975 0149  
                     u2895 00EF          ?_Lcd_Write_String 0070                       _main 0DA9  
                     _temp 00B1                       btemp 007E                       start 0000  
       ??_Lcd_Write_String 0075            ___fldiv@new_exp 004C            __end_of_Lcd_Cmd 0908  
         ?_I2C_Master_Init 0020           ?_I2C_Master_Read 0070           ?_I2C_Master_Wait 0070  
         ?_I2C_Master_Stop 0070              ___fltol@sign1 006C            __end_of___fladd 048D  
                    ?_main 0070            __end_of___fldiv 0205            __end_of___awdiv 0BE7  
          __end_of___awmod 0ABD            __end_of___flmul 07EE            __end_of___fltol 0CEF  
          __end_of___lldiv 0B80            ___awdiv@divisor 0070            ___awdiv@counter 0075  
                    _PORTA 0005                      _PORTB 0006                      _PORTC 0007  
                    _PORTD 0008                      _PORTE 0009    __size_of_Lcd_Set_Cursor 0052  
                    _TRISA 0085                      _TRISB 0086                      _TRISD 0088  
                    _SSPIE 0463                      _TRISE 0089                      _SSPIF 0063  
                    _temp1 00AF                      _setup 092A                      pclath 000A  
                    status 0003                      wtemp0 007E           __end_of_Lcd_Init 0B1A  
         __end_of_Lcd_Port 092A            __initialization 07EE               __end_of_main 1000  
                   ??_main 00A5         __size_of_Lcd_Clear 000D          ?_I2C_Master_Start 0070  
        ?_I2C_Master_Write 0070         ??_I2C_Master_Start 0070         ??_I2C_Master_Write 0072  
         ___awdiv@dividend 0072                     ?_setup 0070                     _ANSELH 0189  
                ??_Lcd_Cmd 0071    __size_of_Lcd_Write_Char 0037                     _SSPADD 0093  
                   _TRISC3 043B                     _TRISC4 043C                     _SSPCON 0014  
                   _SSPBUF 0013           __end_of___xxtofl 0DA9           __end_of_division 0C53  
                ??___fladd 005C                  ??___fldiv 0042                  ??___awdiv 0074  
                ??___awmod 0074                  ??___flmul 0028                  ??___fltol 00A0  
                ??___lldiv 0078           ___awdiv@quotient 0077            ___awmod@divisor 0070  
          ___awmod@counter 0075         __size_of__Umul8_16 0027            Lcd_Set_Cursor@a 0077  
          Lcd_Set_Cursor@b 0074            Lcd_Set_Cursor@y 0079            Lcd_Set_Cursor@z 0078  
             ___xxtofl@arg 007A               ___xxtofl@exp 0079               ___xxtofl@val 0070  
  __end_of__initialization 07FC          __end_of_Lcd_Clear 08EE                 ___fltol@f1 0068  
           __pcstackCOMMON 0070              __end_of_setup 094E             _Lcd_Set_Cursor 0A12  
                ?_Lcd_Init 0070                  ?_Lcd_Port 0070                    ??_setup 007E  
               __pbssBANK0 006E                 __pbssBANK1 00AA          __end_of__Umul8_16 0975  
               __pmaintext 0DA9  __size_of_Lcd_Write_String 0025     __end_of_Lcd_Set_Cursor 0A64  
                ?___xxtofl 0070                 ??_Lcd_Init 0074                 ??_Lcd_Port 0070  
                  _SSPCON2 0091                    _SSPSTAT 0094                 __stringtab 0800  
                ?_division 0070             _Lcd_Write_Char 09A3                    _Lcd_Cmd 08EE  
                  ___fladd 0205                    ___fldiv 0028                    ___awdiv 0B80  
                  ___awmod 0A64                    ___flmul 048D                    ___fltol 0C53  
                  ___lldiv 0B1A                    _decenas 006F            ?_Lcd_Set_Cursor 0074  
                  __ptext1 092A                    __ptext2 09DA                    __ptext3 0B1A  
                  __ptext4 0BE7                    __ptext5 0A64                    __ptext6 0B80  
                  __ptext7 0CEF                    __ptext8 0C53                    __ptext9 048D  
               ??___xxtofl 0074           ___awmod@dividend 0072   __size_of_I2C_Master_Init 0038  
 __size_of_I2C_Master_Read 002E                    _residuo 00AA                    _sensor1 00AE  
                  _sensor2 00AD   __size_of_I2C_Master_Wait 000D   __size_of_I2C_Master_Stop 0009  
                  _voltaje 00B0     __end_of_Lcd_Write_Char 09DA       end_of_initialization 07FC  
               ??_division 0079  __size_of_I2C_Master_Start 0009  __size_of_I2C_Master_Write 000A  
          ___lldiv@divisor 0070            ___lldiv@counter 007D           I2C_Master_Init@c 0020  
         I2C_Master_Read@a 0070                  Lcd_Port@a 0070                  _PORTDbits 0008  
              ___fladd@grs 0067              ___xxtofl@sign 0078                  _TRISCbits 0087  
              ___fldiv@grs 004E                ___fldiv@rem 0047          division@dividendo 007C  
          ?_Lcd_Write_Char 0070          Lcd_Write_String@a 0077          Lcd_Write_String@i 0075  
              ___flmul@grs 002E                  _Lcd_Clear 08E1           _Lcd_Write_String 0003  
      start_initialization 07EE          __size_of_Lcd_Init 005D          __size_of_Lcd_Port 0022  
        ??_I2C_Master_Init 0024          ??_I2C_Master_Read 0072          ??_I2C_Master_Wait 0070  
        ??_I2C_Master_Stop 0070                 ?_Lcd_Clear 0070                  __Umul8_16 094E  
          Lcd_Write_Char@a 0074            Lcd_Write_Char@y 0073                  ___fladd@a 0058  
                ___fladd@b 0054                  ___fldiv@a 003A                  ___fldiv@b 003E  
                ___flmul@a 0024                  ___flmul@b 0020                  ___latbits 0002  
            __pcstackBANK0 0020              __pcstackBANK1 00A0          __size_of___xxtofl 00BA  
                 ?_Lcd_Cmd 0070          __size_of_division 006C           _I2C_Master_Start 08B8  
         _I2C_Master_Write 08CA           ??_Lcd_Set_Cursor 0075                   ?___fladd 0054  
                 ?___fldiv 003A                   ?___awdiv 0070                   ?___awmod 0070  
                 ?___flmul 0020                   ?___fltol 0068                   ?___lldiv 0070  
               ?__Umul8_16 0070                  _dividendo 00AC                  __pstrings 0800  
           __size_of_setup 0024                   Lcd_Cmd@a 0073                ??_Lcd_Clear 0074  
              __stringbase 0805           ??_Lcd_Write_Char 0071                   _Lcd_Init 0ABD  
                 _Lcd_Port 0908        I2C_Master_Read@temp 0074   __end_of_Lcd_Write_String 0028  
         __size_of_Lcd_Cmd 001A                ??__Umul8_16 0072           __size_of___fladd 0288  
         __size_of___fldiv 01DD           __size_of___awdiv 0067           __size_of___awmod 0059  
         __size_of___flmul 0361           __size_of___fltol 009C           __size_of___lldiv 0066  
       __end_of__stringtab 0806            _I2C_Master_Init 09DA            _I2C_Master_Read 0975  
                 ___xxtofl 0CEF            _I2C_Master_Wait 08D4            _I2C_Master_Stop 08C1  
                 _centenas 00AB                   __ptext10 094E                   __ptext11 0028  
                 __ptext20 08CA                   __ptext12 0205                   __ptext21 08C1  
                 __ptext13 0003                   __ptext22 08B8                   __ptext14 09A3  
                 __ptext23 0975                   __ptext15 0A12                   __ptext24 08D4  
                 __ptext16 0ABD                   __ptext17 08E1                   __ptext18 08EE  
                 __ptext19 0908                   _division 0BE7              __size_of_main 0257  
                 _unidades 006E   __end_of_I2C_Master_Start 08C1   __end_of_I2C_Master_Write 08D4  
       Lcd_Write_Char@temp 0072           ___lldiv@dividend 0074                  stringcode 0800  
               _OSCCONbits 008F    __end_of_I2C_Master_Init 0A12    __end_of_I2C_Master_Read 09A3  
  __end_of_I2C_Master_Wait 08E1    __end_of_I2C_Master_Stop 08CA         Lcd_Set_Cursor@temp 007A  
   __Umul8_16@multiplicand 0070           ___lldiv@quotient 0079          I2C_Master_Write@d 0070  
                 stringdir 0800                   stringtab 0800                _SSPCON2bits 0091  
            ___fladd@signs 0064               ___fladd@aexp 0065               ___fladd@bexp 0066  
     __Umul8_16@multiplier 0078          __Umul8_16@product 0074  
